3ffc8732 00000001 B ap_no_lr
3ffc877c 00000001 B bt_dig_gain_force
3ffc876a 00000001 B btpwr_atten_offset
3ffc8766 00000001 B bt_pwr_cap_sum_old
3ffc8765 00000001 B bt_pwr_freq_old
3ffc8764 00000001 B bt_pwr_track_num
3ffc876b 00000001 B btpwr_tsen_flag
3ffc876d 00000001 B btpwr_tsen_init
3ffc876c 00000001 B btpwr_tsen_old
3ffc8780 00000001 B chan14_mic_en
3ffb1703 00000001 D chan14_mic_most_power
3ffc8668 00000001 B connect_scan_flag
3ffc877e 00000001 B corr_cca_thr
3ffb1700 00000001 D dreg_1p2_set
3ffc7cf4 00000001 B _ESP_HAL_DEVICE_PERIPHERALS
3ffc8782 00000001 B force_hw_set_freq_flag
3ffc878d 00000001 B force_tx_gain_en
3ffc8736 00000001 B g_authmode_incompatible
3ffc8735 00000001 B g_authmode_threshold_failure
3ffc855c 00000001 B g_beacon_idx
3ffc8737 00000001 B g_in_blacklist_flag
3ffc8592 00000001 B g_mac_sleep_en
3ffb1f74 00000001 D g_mesh_is_root
3ffb1f7c 00000001 D g_mesh_is_started
3ffb120e 00000001 D g_mesh_self_organized
3ffb120d 00000001 D g_phy_cap_rx_stbc
3ffc8797 00000001 B g_pp_tx_pkt_num
3ffc8734 00000001 B g_rssi_threshold_failure
3ffb1f7d 00000001 D g_sta_connected_flag
3ffc8a7c 00000001 B g_wdev_last_desc_reset
3ffc8661 00000001 B g_wifi_improve_contention_ability
3ffc8bbc 00000001 B g_wpa_default_cert_bundle
3ffc8aa8 00000001 B g_wpa_pmk_caching_disabled
3ffc8bbd 00000001 B g_wpa_suiteb_certification
3ffca04c 00000001 B he_dcm_max_constellation_tx
3ffc877d 00000001 B init_wifi_disable
3ffc8690 00000001 B in_rssi_adjust
3ffc877f 00000001 B lr_enable
3ffb1702 00000001 D phy_bt_pll_track_en
3ffc8770 00000001 B phy_bt_power_track_en
3ffcb4dc 00000001 B phy_dac_org
3ffcb364 00000001 B phy_dcur_org
3ffc878f 00000001 B phy_dis_pwdet_one
3ffc8772 00000001 B phy_force_wifi_chan_en
3ffc8773 00000001 B phy_freq_wifi_only
3ffc8783 00000001 B phy_init_flag
3ffb1705 00000001 D phy_in_most_power
3ffb1704 00000001 D phy_in_most_power_bk
3ffc8792 00000001 B phy_in_vdd33_offset
3ffc878e 00000001 B phy_pwdet_onetime_flag
3ffc8789 00000001 B phy_set_most_tpw_disbg
3ffc8788 00000001 B phy_set_most_tpw_flag
3ffc8784 00000001 B phy_set_most_tpw_index
3ffc8771 00000001 B phy_sw_set_chan_en
3ffb1701 00000001 D phy_wifi_pll_track_en
3ffc8733 00000001 B reconnect_flag
3ffc8781 00000001 B re_entry
3ffb1719 00000001 d rfbb_gain_swp
3ffb172a 00000001 D rfcal_bb_atten_init
3ffc8684 00000001 B rssi_index
3ffc2c80 00000001 b __rust_no_alloc_shim_is_unstable
3ffc864d 00000001 B s_avail_seq
3ffb1f60 00000001 d s_disable_time_check
3ffb14d0 00000001 D send_deauth
3ffcb3dc 00000001 B set_most_tpw
3ffc8796 00000001 B s_is_6m
3ffb120f 00000001 D s_ndp_id
3ffc8508 00000001 B s_wifi_stop_in_progress
3ffc878c 00000001 B sw_scan_mode
3ffb120c 00000001 D TmpSTAAPCloseAP
3ffc8793 00000001 B tx_pwctrl_track_num
3ffb170c 00000001 D wifi_bbgain_max
3ffb1729 00000001 D wifi_txband
3ffb1728 00000001 D wifi_txband_ht40
3ffc7c88 00000001 b _ZN7esp_hal5clock13ACTIVE_CLOCKS17h32d380688d10152eE.0
3ffc7c90 00000001 b _ZN7esp_hal5clock13ACTIVE_CLOCKS17h32d380688d10152eE.2
3ffc7c91 00000001 b _ZN7esp_hal5clock21PHY_CLOCK_REF_COUNTER17h28f310b0199ab8feE.0
3ffb2180 00000001 b _ZN8esp_test9WIFI_INIT17h76c72b7b1ed3d8c7E
3ffc84d8 00000001 b _ZN8esp_wifi14common_adapter13chip_specific19G_IS_PHY_CALIBRATED17h8eb8b1d752b065d3E.0
3ffc84e0 00000001 b _ZN8esp_wifi14common_adapter13chip_specific19S_IS_PHY_REG_STORED17h4afdc673d05756c6E.0
3ffc8768 00000002 B bt_pwr_cap_sum
3ffb1706 00000002 D bt_tx_pa_gain
3ffc8774 00000002 B phy_freq_offset
3ffc878a 00000002 B phy_meas_noise_floor
3ffc8794 00000002 B phy_tx_power_out
3ffc8790 00000002 B phy_tx_pwr_error
3ffcb4de 00000002 B pwrdet_offset
3ffc876e 00000002 B rfpll_offset_delta
3ffc866a 00000002 B scannum
3ffc8786 00000002 B target_power_backoff_qdb
3ffc7cf5 00000002 b _ZN15esp_hal_embassy8executor6thread23SIGNAL_WORK_THREAD_MODE17h1eaf915410afea75E
3f411170 00000003 r CSWTCH$283
3ffcb3d8 00000004 B adc_ana_conf_org
3ffc8550 00000004 B ap_rxcb
3ffb1f24 00000004 D BcnInterval
3ffc89fc 00000004 B BcnSendTick
3ffc8bb4 00000004 b config_methods
3f411160 00000004 r CSWTCH$293
3ffc8bb8 00000004 b eap_methods
3ffc8b6c 00000004 b eloop_data_lock
3ffb15d8 00000004 D g_chm
3ffc873c 00000004 B g_cnx_probe_rc_list_cb
3ffc8a98 00000004 b gEapSm
3ffb1f70 00000004 D g_intr_lock_mux
3ffc8b44 00000004 B global_hapd
3ffc84e8 00000004 B g_log_level
3ffb1f78 00000004 D g_mesh_init_ps_type
3ffc8644 00000004 B g_mesh_topology
3ffc84ec 00000004 B g_misc_nvs
3ffb1f6c 00000004 D g_osi_funcs_p
3ffc8778 00000004 B g_phyFuns
3ffb14c0 00000004 D g_scan
3ffc8a74 00000004 B g_wdev_csi_rx
3ffc8a70 00000004 B g_wdev_csi_rx_ctx
3ffc8a78 00000004 B g_wdev_is_nan_pkt_in_valid_slot_cb
3ffb1204 00000004 D g_wifi_event_mask
3ffc8588 00000004 B g_wifi_global_lock
3ffb1f68 00000004 D g_wifi_mac_time_delta
3ffb12f0 00000004 D g_wifi_nvs
3ffc8c0c 00000004 B g_wpa_anonymous_identity
3ffc8c08 00000004 B g_wpa_anonymous_identity_len
3ffc8be4 00000004 B g_wpa_ca_cert
3ffc8be0 00000004 B g_wpa_ca_cert_len
3ffc8bfc 00000004 B g_wpa_client_cert
3ffc8bf8 00000004 B g_wpa_client_cert_len
3ffc8bd4 00000004 B g_wpa_new_password
3ffc8bd0 00000004 B g_wpa_new_password_len
3ffc8bc4 00000004 B g_wpa_pac_file
3ffc8bc0 00000004 B g_wpa_pac_file_len
3ffc8bdc 00000004 B g_wpa_password
3ffc8bd8 00000004 B g_wpa_password_len
3ffc8bc8 00000004 B g_wpa_phase1_options
3ffc8bf4 00000004 B g_wpa_private_key
3ffc8bf0 00000004 B g_wpa_private_key_len
3ffc8bec 00000004 B g_wpa_private_key_passwd
3ffc8be8 00000004 B g_wpa_private_key_passwd_len
3ffc8bcc 00000004 B g_wpa_ttls_phase2_type
3ffc8c04 00000004 B g_wpa_username
3ffc8c00 00000004 B g_wpa_username_len
3f411794 00000004 r memset_func
3f411798 00000004 r memset_func
3f41179c 00000004 r memset_func
3f4117a0 00000004 r memset_func
3f412c48 00000004 r memset_func
3f412c50 00000004 r memset_func
3f412c54 00000004 r memset_func
3f412fe4 00000004 r memset_func
3f413204 00000004 r memset_func
3ffc84fc 00000004 B mesh_rxcb
3f4102ca 00000004 R NAN_ACTION_OUI
3f4102ce 00000004 R NAN_STANDARD_OUI
3ffc8648 00000004 B ndp_rxcb
3ffc8f6c 00000004 B net80211_funcs
3ffb1850 00000004 D pTxRx
3ffca17c 00000004 B s_eapol_txdone_cb
3ffc89a0 00000004 B s_fix_rate_mask
3ffc865c 00000004 B s_netstack_free
3ffc8654 00000004 B s_netstack_ref
3ffc8b70 00000004 b s_sm_valid_bitmap
3ffc8680 00000004 B sta_rxcb
3ffc8500 00000004 B s_wifi_api_lock
3ffc8878 00000004 B s_wifi_queue
3ffc858c 00000004 B s_wifi_task_hdl
3ffc8a88 00000004 b s_wifi_wpa2_sync_sem
3ffc8a8c 00000004 b s_wpa2_api_lock
3ffc8a9c 00000004 b s_wpa2_data_lock
3ffc8a90 00000004 b s_wpa2_queue
3ffb1f64 00000004 d s_wpa2_state
3ffc8a94 00000004 b s_wpa2_task_hdl
3ffc8b40 00000004 b s_wps_sm_cb
3ffc8b48 00000004 b tls_ref_count
3ffb1708 00000004 D tx_rf_ana_gain
3ffb0e38 00000004 D WIFI_EVENT
3ffc8aa4 00000004 B wifi_funcs
3ffb1200 00000004 D WIFI_MESH_EVENT
3ffc8504 00000004 B wifi_sta_rx_probe_req
3ffc8aa0 00000004 B wpa_cb
3ffb2000 00000004 D xphyQueue
3ffc84f8 00000004 b _ZN3log20MAX_LOG_LEVEL_FILTER17hc604844e5b22008aE.0
3ffc84f4 00000004 b _ZN3log5STATE17h4a82eb5737cb86e7E.0
3ffb11fc 00000004 d _ZN3log6LOGGER17h7a9234779a12fa2cE.1
3ffb0c10 00000004 d _ZN7esp_hal4gpio9GPIO_LOCK17h05b60e292a4ba092E
3ffb0db8 00000004 d _ZN7esp_hal4sync16critical_section16CRITICAL_SECTION17hcb7d12754516b886E
3ffc7c8c 00000004 b _ZN7esp_hal5clock13ACTIVE_CLOCKS17h32d380688d10152eE.1
3ffc2c7c 00000004 b _ZN8esp_test12wifi_connect4POOL17he8daf0a7c5e11c30E.0
3ffb2c74 00000004 b _ZN8esp_test14__embassy_main4POOL17hc1f4f89be6af1c58E.0
3ffc2c78 00000004 b _ZN8esp_test8net_task4POOL17h3009f63b9fa4c9cfE.0
3ffc84e4 00000004 b _ZN8esp_wifi14common_adapter13chip_specific14PHY_ACCESS_REF17hcc6c0ff7411583b8E
3ffc84dc 00000004 b _ZN8esp_wifi14common_adapter13chip_specific22G_PHY_DIGITAL_REGS_MEM17h186339563a4cd42aE.0
3ffc84f0 00000004 b _ZN8esp_wifi14common_adapter20PHY_CLOCK_ENABLE_REF17hef0c20ce985085cdE
3ffc8498 00000004 b _ZN8esp_wifi4wifi10os_adapter12QUEUE_HANDLE17h9cb6397122447955E
3ffc849c 00000004 b _ZN8esp_wifi4wifi10os_adapter15ISR_INTERRUPT_117ha109f6e40bbfe41cE.0
3ffc84a0 00000004 b _ZN8esp_wifi4wifi10os_adapter15ISR_INTERRUPT_117ha109f6e40bbfe41cE.1
3ffb0f48 00000004 d _ZN8esp_wifi4wifi10os_adapter9WIFI_LOCK17h7ff2d87501f90d18E
3ffc84d4 00000004 b _ZN8esp_wifi4wifi16WIFI_TX_INFLIGHT17h50c7486c026cb678E
3ffb0f6c 00000004 d _ZN8esp_wifi4wifi5state8AP_STATE17hdaeb707eb44c604bE
3ffb0f68 00000004 d _ZN8esp_wifi4wifi5state9STA_STATE17hbe173ddff6821b76E
3ffc8494 00000004 b _ZN8esp_wifi6compat8_putchar3IDX17h8198620b01f50426E.0
40155e5c 00000005 T asn1_unexpected
00000007 00000005 N build_info.CHIP_NAME
401557b0 00000005 T crypto_global_deinit
401551bc 00000005 T dbg_lmac_init
401553f8 00000005 T esp_set_assoc_ie
401553f0 00000005 T esp_set_scan_ie
401553b0 00000005 T __hide_aliasing_typecast
40154b48 00000005 T ieee80211_crypto_attach
4015604c 00000005 t _out_null
401550e8 00000005 T pm_force_scan_unlock
40085e0c 00000005 T pm_hmac_rx_data_process
401550e0 00000005 T pm_noise_check_process
40155184 00000005 T ppSetInterface
40154f9c 00000005 T ram_rfpll_reset
401553e0 00000005 T supplicant_sta_conn_handler
401553e8 00000005 T supplicant_sta_disconn_handler
40155334 00000005 T wDev_SetAuthed
401557d4 00000005 t wpa_auth_pmksa_free_cb
401553d8 00000005 T wpa_sm_disassociate
3f411184 00000006 r CSWTCH$254
3f4110d8 00000006 r CSWTCH$360
3f41118c 00000006 r dco_gain_coarse$4710
0000000c 00000006 N espflash.LOG_FORMAT
3f4101fc 00000006 R ieee80211_ethbroadcast
3f4102be 00000006 R NAN_NETWORK_ID
3f4102c4 00000006 R NAN_STANDARD_BSSID
40154cb4 00000007 W adc2_wifi_acquire
40154cbc 00000007 W adc2_wifi_release
00000000 00000007 N bootloader.NAME
401557a8 00000007 T crypto_global_init
401557a0 00000007 T crypto_public_key_from_cert
40154cac 00000007 T ieee80211_setup_rateset
40154db0 00000007 T nan_in_transit_event_hdlr
401551c4 00000007 T RC_SetBasicRate
40155408 00000007 T tls_connection_enable_workaround
40155410 00000007 T tls_connection_get_failed
40155400 00000007 T tls_get_errors
40154cc4 00000007 T wifi_station_get_reconnect_policy
401553d0 00000007 T wpa_sm_mlme_setprotection
3ffc9450 00000008 B action_q
3f41117c 00000008 r CSWTCH$256
3f411174 00000008 r CSWTCH$266
3ffcb2b4 00000008 B ctx
40155ad8 00000008 T eap_get_config
3ffc8560 00000008 B g_beacon_eb
3ffb0e60 00000008 D g_wifi_feature_caps
40132894 00000008 T ic_reset_tbtt
40116194 00000008 T nan_get_clust_id
3ffcb4f4 00000008 B phy_chan_gain_table
40134d54 00000008 T pm_on_coex_schm_process_restart
40136d5c 00000008 T rc_get_G6M_sched
3ffc8688 00000008 B rssi_saved
3ffca044 00000008 B s_tx_cacheq
3ffc8a80 00000008 b s_wpa2_rxq
4013ccd4 00000008 T tlsv1_client_global_deinit
40138300 00000008 T wDev_disable_low_rate
40138308 00000008 T wDev_enable_low_rate
4013bc58 00000008 T wpa_config_done
4013bf28 00000008 T wpa_neg_complete
3ffc7c94 00000008 b _ZN7esp_hal4gpio8GpioBank16async_operations5FLAGS17hbbe05f46f1fa3b4bE
3ffb2c60 00000008 b _ZN8esp_test9NET_STACK17hb665bb9166adbdbeE
3ffb0e3c 00000008 d _ZN8esp_wifi6compat12timer_compat6TIMERS17h51c402b81c0e3c41E
3ffb1710 00000009 d bt_rx_gain_swp
401426c0 0000000a T crypto_private_key_free
401426b4 0000000a T crypto_public_key_free
40148df4 0000000a T eap_peer_method_free
40145c20 0000000a t eloop_run_wrapper
401256b8 0000000a T esp_wifi_auth_done_internal
4013c220 0000000a T hostapd_get_hapd_data
40132bd0 0000000a T ic_create_wifi_task
40132bdc 0000000a T ic_delete_wifi_task
40132680 0000000a T ic_disable_sniffer
40132674 0000000a T ic_enable_sniffer
40132be8 0000000a T ic_get_G6M_sched
4013284c 0000000a T ic_get_next_tbtt
40132b24 0000000a T ic_get_pp_hdl
400860d0 0000000a T ic_mac_deinit
400860c4 0000000a T ic_mac_init
40132ac8 0000000a T ic_set_beacon_int
40132b9c 0000000a T ic_stop_hw_txq
40132bc4 0000000a T ic_txq_empty
4011edbc 0000000a T ieee80211_phy_deinit
40116094 0000000a T nan_get_random_word
40155d44 0000000a T pmksa_cache_get_current
40136324 0000000a T ppGetTaskHdl
3f411a44 0000000a R rcons
4013ccc8 0000000a T tlsv1_client_global_init
4013783c 0000000a T wDev_Reset_TBTT
40114e70 0000000a T wifi_deinit_process
4010ac18 0000000a T wifi_get_init_state
4011b5a0 0000000a T wifi_nvs_get
40115d04 0000000a T wifi_on_coex_schm_phase_process
4013c164 0000000a T wpa_sm_free_eapol
4013bdcc 0000000a t wpa_sta_connected_cb
4013c214 0000000a T wps_get_wps_sm_cb
3f411164 0000000b r CSWTCH$289
3ffcb2bc 0000000b B freq_i2c_addr
3ffb12e2 0000000b D g_def_2g_channels
40132858 0000000b T ic_del_rx_ba
40132b60 0000000b T ic_set_sta_auth_flag
4011f9dc 0000000b T ieee80211_regdomain_ap_min_chan
401160a0 0000000b T nan_get_random_byte
4012a174 0000000b T offchan_in_progress
40133a0c 0000000b T pm_is_open
40133c24 0000000b T pm_mac_sleep
40133c14 0000000b T pm_mac_wakeup
400eecbc 0000000b t _RNvCs6MjFWaQOJWH_7___rustc26___rust_alloc_error_handler
401554e4 0000000b T tlsv1_client_set_session_ticket_cb
4010ac28 0000000b T wifi_is_stop_in_progress
4013bb04 0000000b T wifi_sta_get_enterprise_disable_time_check
401152fc 0000000b T wifi_wpa2_is_started
401152ec 0000000b T wifi_wps_is_started
40127598 0000000b T wl_is_ap_no_lr
4013be4c 0000000b T wpa_deauthenticate
400f1e00 0000000b t _ZN4core9panicking18panic_nounwind_fmt17hc8414c230f58346dE
400efba0 0000000b t _ZN5alloc5alloc18handle_alloc_error17h89ca94c6f9a11a4eE
400efbd0 0000000b t _ZN5alloc5alloc18handle_alloc_error8rt_error17ha4f51740834dbe45E
3ffb1efc 0000000c D BasicOFDMSched
401521f8 0000000c T crypto_rsa_get_modulus_len
40125978 0000000c T esp_wifi_register_eapol_txdonecb_internal
401251a4 0000000c T esp_wifi_sta_get_prof_ssid_internal
3ffb14c4 0000000c D g_dynamic_cs
401325f0 0000000c T ic_register_michael_mic_failure_cb
40132668 0000000c T ic_register_nan_callbacks
401325fc 0000000c T ic_register_pp_tx_done_cb
401325e4 0000000c T ic_register_timer_post_cb
40132af4 0000000c T ic_set_current_channel
40155d50 0000000c T pmksa_cache_clear_current
401203d0 0000000c T scan_get_type
3ffcb7c8 0000000c B s_fix_rate
40114c24 0000000c T wifi_crypto_init
3ffb171c 0000000c d wifi_rx_gain_swp
3ffb10e8 0000000c d _ZN117_$LT$esp_wifi..wifi..event..ConnectionlessModuleWakeIntervalStart$u20$as$u20$esp_wifi..wifi..event..sealed..Event$GT$7handler6HANDLE17h16cf60a3550c5d0dE
3ffb0c14 0000000c d _ZN71_$LT$esp_hal..peripherals..GPIO0$u20$as$u20$esp_hal..gpio..InputPin$GT$5waker5WAKER17hd75472a2e2f893b8E
3ffb0c20 0000000c d _ZN71_$LT$esp_hal..peripherals..GPIO1$u20$as$u20$esp_hal..gpio..InputPin$GT$5waker5WAKER17h65074120153444a6E
3ffb0c2c 0000000c d _ZN71_$LT$esp_hal..peripherals..GPIO2$u20$as$u20$esp_hal..gpio..InputPin$GT$5waker5WAKER17h927f22eb54b90b80E
3ffb0c38 0000000c d _ZN71_$LT$esp_hal..peripherals..GPIO3$u20$as$u20$esp_hal..gpio..InputPin$GT$5waker5WAKER17hdeac39d350ba5665E
3ffb0c44 0000000c d _ZN71_$LT$esp_hal..peripherals..GPIO4$u20$as$u20$esp_hal..gpio..InputPin$GT$5waker5WAKER17h6d7d3f517c805506E
3ffb0c50 0000000c d _ZN71_$LT$esp_hal..peripherals..GPIO5$u20$as$u20$esp_hal..gpio..InputPin$GT$5waker5WAKER17h95f63705bf1a26d8E
3ffb0c5c 0000000c d _ZN71_$LT$esp_hal..peripherals..GPIO6$u20$as$u20$esp_hal..gpio..InputPin$GT$5waker5WAKER17h9b63d92f667ee023E
3ffb0c68 0000000c d _ZN71_$LT$esp_hal..peripherals..GPIO7$u20$as$u20$esp_hal..gpio..InputPin$GT$5waker5WAKER17h0c51647b5fb7dfddE
3ffb0c74 0000000c d _ZN71_$LT$esp_hal..peripherals..GPIO8$u20$as$u20$esp_hal..gpio..InputPin$GT$5waker5WAKER17h3103713e11299d54E
3ffb0c80 0000000c d _ZN71_$LT$esp_hal..peripherals..GPIO9$u20$as$u20$esp_hal..gpio..InputPin$GT$5waker5WAKER17h3008dd3c8566e47cE
3ffb0c8c 0000000c d _ZN72_$LT$esp_hal..peripherals..GPIO10$u20$as$u20$esp_hal..gpio..InputPin$GT$5waker5WAKER17hda52e705d83614b7E
3ffb0c98 0000000c d _ZN72_$LT$esp_hal..peripherals..GPIO11$u20$as$u20$esp_hal..gpio..InputPin$GT$5waker5WAKER17h88c5edd88dabebfeE
3ffb0ca4 0000000c d _ZN72_$LT$esp_hal..peripherals..GPIO12$u20$as$u20$esp_hal..gpio..InputPin$GT$5waker5WAKER17hfaf411504d00709aE
3ffb0cb0 0000000c d _ZN72_$LT$esp_hal..peripherals..GPIO13$u20$as$u20$esp_hal..gpio..InputPin$GT$5waker5WAKER17h92bc895fcd25005bE
3ffb0cbc 0000000c d _ZN72_$LT$esp_hal..peripherals..GPIO14$u20$as$u20$esp_hal..gpio..InputPin$GT$5waker5WAKER17hd81882ada32f06c9E
3ffb0cc8 0000000c d _ZN72_$LT$esp_hal..peripherals..GPIO15$u20$as$u20$esp_hal..gpio..InputPin$GT$5waker5WAKER17h1579cc34425856aaE
3ffb0cd4 0000000c d _ZN72_$LT$esp_hal..peripherals..GPIO16$u20$as$u20$esp_hal..gpio..InputPin$GT$5waker5WAKER17hf379483dceaa364aE
3ffb0ce0 0000000c d _ZN72_$LT$esp_hal..peripherals..GPIO17$u20$as$u20$esp_hal..gpio..InputPin$GT$5waker5WAKER17hdc9d4ef192ef570cE
3ffb0cec 0000000c d _ZN72_$LT$esp_hal..peripherals..GPIO18$u20$as$u20$esp_hal..gpio..InputPin$GT$5waker5WAKER17h9a411d0b9455e0feE
3ffb0cf8 0000000c d _ZN72_$LT$esp_hal..peripherals..GPIO19$u20$as$u20$esp_hal..gpio..InputPin$GT$5waker5WAKER17hd6187885b9813dfdE
3ffb0d04 0000000c d _ZN72_$LT$esp_hal..peripherals..GPIO20$u20$as$u20$esp_hal..gpio..InputPin$GT$5waker5WAKER17hafef5e21677dd8b2E
3ffb0d10 0000000c d _ZN72_$LT$esp_hal..peripherals..GPIO21$u20$as$u20$esp_hal..gpio..InputPin$GT$5waker5WAKER17h233cda1d30ec4cdbE
3ffb0d1c 0000000c d _ZN72_$LT$esp_hal..peripherals..GPIO22$u20$as$u20$esp_hal..gpio..InputPin$GT$5waker5WAKER17h695d135382e3095cE
3ffb0d28 0000000c d _ZN72_$LT$esp_hal..peripherals..GPIO23$u20$as$u20$esp_hal..gpio..InputPin$GT$5waker5WAKER17h1ed284a2b79d07a1E
3ffb0d34 0000000c d _ZN72_$LT$esp_hal..peripherals..GPIO25$u20$as$u20$esp_hal..gpio..InputPin$GT$5waker5WAKER17hc91acc52e2cfc0c9E
3ffb0d40 0000000c d _ZN72_$LT$esp_hal..peripherals..GPIO26$u20$as$u20$esp_hal..gpio..InputPin$GT$5waker5WAKER17h40147ffe8071b620E
3ffb0d4c 0000000c d _ZN72_$LT$esp_hal..peripherals..GPIO27$u20$as$u20$esp_hal..gpio..InputPin$GT$5waker5WAKER17hd72c8154848eb79eE
3ffb0d58 0000000c d _ZN72_$LT$esp_hal..peripherals..GPIO32$u20$as$u20$esp_hal..gpio..InputPin$GT$5waker5WAKER17h77aa4154e98dbcd1E
3ffb0d64 0000000c d _ZN72_$LT$esp_hal..peripherals..GPIO33$u20$as$u20$esp_hal..gpio..InputPin$GT$5waker5WAKER17h3450c07838f31806E
3ffb0d70 0000000c d _ZN72_$LT$esp_hal..peripherals..GPIO34$u20$as$u20$esp_hal..gpio..InputPin$GT$5waker5WAKER17h121eddd79037e9c5E
3ffb0d7c 0000000c d _ZN72_$LT$esp_hal..peripherals..GPIO35$u20$as$u20$esp_hal..gpio..InputPin$GT$5waker5WAKER17h08f79e7ea2569b99E
3ffb0d88 0000000c d _ZN72_$LT$esp_hal..peripherals..GPIO36$u20$as$u20$esp_hal..gpio..InputPin$GT$5waker5WAKER17h69e020af44f8ef66E
3ffb0d94 0000000c d _ZN72_$LT$esp_hal..peripherals..GPIO37$u20$as$u20$esp_hal..gpio..InputPin$GT$5waker5WAKER17ha5b467c939c8ac91E
3ffb0da0 0000000c d _ZN72_$LT$esp_hal..peripherals..GPIO38$u20$as$u20$esp_hal..gpio..InputPin$GT$5waker5WAKER17h39e871472fbaa4b9E
3ffb0dac 0000000c d _ZN72_$LT$esp_hal..peripherals..GPIO39$u20$as$u20$esp_hal..gpio..InputPin$GT$5waker5WAKER17h55fc58040ea6ccafE
3ffc7cf8 0000000c b _ZN73_$LT$esp_hal..timer..timg..Timer$u20$as$u20$esp_hal_embassy..TimeBase$GT$6timers11STATIC_CELL17h0c81f6c40e07fa69E
3ffb107c 0000000c d _ZN86_$LT$esp_wifi..wifi..event..ApStop$u20$as$u20$esp_wifi..wifi..event..sealed..Event$GT$7handler6HANDLE17ha7ad9530f697bb2dE
3ffb1070 0000000c d _ZN87_$LT$esp_wifi..wifi..event..ApStart$u20$as$u20$esp_wifi..wifi..event..sealed..Event$GT$7handler6HANDLE17h2a4bdaa3f3b57d30E
3ffb10d0 0000000c d _ZN87_$LT$esp_wifi..wifi..event..RocDone$u20$as$u20$esp_wifi..wifi..event..sealed..Event$GT$7handler6HANDLE17hcd0e37df33980321E
3ffb1004 0000000c d _ZN87_$LT$esp_wifi..wifi..event..StaStop$u20$as$u20$esp_wifi..wifi..event..sealed..Event$GT$7handler6HANDLE17h09c582f8ca0d9a91E
3ffb0fec 0000000c d _ZN88_$LT$esp_wifi..wifi..event..ScanDone$u20$as$u20$esp_wifi..wifi..event..sealed..Event$GT$7handler6HANDLE17h4b61b67d22f506c0E
3ffb0ff8 0000000c d _ZN88_$LT$esp_wifi..wifi..event..StaStart$u20$as$u20$esp_wifi..wifi..event..sealed..Event$GT$7handler6HANDLE17h2b8464c5f269714cE
3ffb116c 0000000c d _ZN89_$LT$esp_wifi..wifi..event..BtwtSetup$u20$as$u20$esp_wifi..wifi..event..sealed..Event$GT$7handler6HANDLE17h7012caeedd284717E
3ffb10ac 0000000c d _ZN89_$LT$esp_wifi..wifi..event..FtmReport$u20$as$u20$esp_wifi..wifi..event..sealed..Event$GT$7handler6HANDLE17hd2f712f89159b2e5E
3ffb1148 0000000c d _ZN89_$LT$esp_wifi..wifi..event..ItwtProbe$u20$as$u20$esp_wifi..wifi..event..sealed..Event$GT$7handler6HANDLE17h8fd8ba142dab53edE
3ffb1130 0000000c d _ZN89_$LT$esp_wifi..wifi..event..ItwtSetup$u20$as$u20$esp_wifi..wifi..event..sealed..Event$GT$7handler6HANDLE17h3f84ce2b473e4d7cE
3ffb1160 0000000c d _ZN89_$LT$esp_wifi..wifi..event..TwtWakeup$u20$as$u20$esp_wifi..wifi..event..sealed..Event$GT$7handler6HANDLE17hdd21da9bf39a778fE
3ffb0fe0 0000000c d _ZN89_$LT$esp_wifi..wifi..event..WifiReady$u20$as$u20$esp_wifi..wifi..event..sealed..Event$GT$7handler6HANDLE17ha2a90f1b1645796aE
3ffb2c68 0000000c b _ZN8esp_test10NET_RUNNER17h3e1e89c6fda80272E
3ffb0e54 0000000c d _ZN8esp_wifi15preempt_builtin15SCHEDULER_STATE17he040cc0621ad4dffE
3ffb0f98 0000000c d _ZN8esp_wifi4wifi7embassy14TRANSMIT_WAKER17h983370a7f98535f7E
3ffb0fa4 0000000c d _ZN8esp_wifi4wifi7embassy16AP_RECEIVE_WAKER17h1ecba42bd58cd114E
3ffb0fbc 0000000c d _ZN8esp_wifi4wifi7embassy17STA_RECEIVE_WAKER17h9bbf3a902369c72fE
3ffb0fb0 0000000c d _ZN8esp_wifi4wifi7embassy19AP_LINK_STATE_WAKER17h36b18b746fe965e5E
3ffb0fc8 0000000c d _ZN8esp_wifi4wifi7embassy20STA_LINK_STATE_WAKER17h29b2f19384e5e614E
3ffb0fd4 0000000c d _ZN8esp_wifi4wifi9WifiEvent5waker5WAKER17h117ced63ec913ce1E
3ffb1118 0000000c d _ZN90_$LT$esp_wifi..wifi..event..ApWpsRgPin$u20$as$u20$esp_wifi..wifi..event..sealed..Event$GT$7handler6HANDLE17hff99b323bf4bbd6dE
3ffb11b4 0000000c d _ZN90_$LT$esp_wifi..wifi..event..NanReceive$u20$as$u20$esp_wifi..wifi..event..sealed..Event$GT$7handler6HANDLE17ha8f9949df402b99eE
3ffb11a8 0000000c d _ZN90_$LT$esp_wifi..wifi..event..NanReplied$u20$as$u20$esp_wifi..wifi..event..sealed..Event$GT$7handler6HANDLE17h1957bb9c127d5271E
3ffb1184 0000000c d _ZN90_$LT$esp_wifi..wifi..event..NanStarted$u20$as$u20$esp_wifi..wifi..event..sealed..Event$GT$7handler6HANDLE17h8c4e1796a5795174E
3ffb1190 0000000c d _ZN90_$LT$esp_wifi..wifi..event..NanStopped$u20$as$u20$esp_wifi..wifi..event..sealed..Event$GT$7handler6HANDLE17h1fd82d778cfb9ecfE
3ffb11cc 0000000c d _ZN90_$LT$esp_wifi..wifi..event..NdpConfirm$u20$as$u20$esp_wifi..wifi..event..sealed..Event$GT$7handler6HANDLE17h16ba52cd016a66d5E
3ffb1154 0000000c d _ZN91_$LT$esp_wifi..wifi..event..ItwtSuspend$u20$as$u20$esp_wifi..wifi..event..sealed..Event$GT$7handler6HANDLE17h8de51717cb936aa6E
3ffb119c 0000000c d _ZN91_$LT$esp_wifi..wifi..event..NanSvcMatch$u20$as$u20$esp_wifi..wifi..event..sealed..Event$GT$7handler6HANDLE17h738f0e207776b11dE
3ffb1058 0000000c d _ZN91_$LT$esp_wifi..wifi..event..StaWpsErPin$u20$as$u20$esp_wifi..wifi..event..sealed..Event$GT$7handler6HANDLE17hdd925874fa0e9988E
3ffb1178 0000000c d _ZN92_$LT$esp_wifi..wifi..event..BtwtTeardown$u20$as$u20$esp_wifi..wifi..event..sealed..Event$GT$7handler6HANDLE17h97a833897d612269E
3ffb113c 0000000c d _ZN92_$LT$esp_wifi..wifi..event..ItwtTeardown$u20$as$u20$esp_wifi..wifi..event..sealed..Event$GT$7handler6HANDLE17h6ed140b2cc3b43e0E
3ffb1010 0000000c d _ZN92_$LT$esp_wifi..wifi..event..StaConnected$u20$as$u20$esp_wifi..wifi..event..sealed..Event$GT$7handler6HANDLE17hbf9791ca380d2211E
3ffb1100 0000000c d _ZN93_$LT$esp_wifi..wifi..event..ApWpsRgFailed$u20$as$u20$esp_wifi..wifi..event..sealed..Event$GT$7handler6HANDLE17hf91a38b114664855E
3ffb11c0 0000000c d _ZN93_$LT$esp_wifi..wifi..event..NdpIndication$u20$as$u20$esp_wifi..wifi..event..sealed..Event$GT$7handler6HANDLE17hbb8d0ccfb2844d07E
3ffb11d8 0000000c d _ZN93_$LT$esp_wifi..wifi..event..NdpTerminated$u20$as$u20$esp_wifi..wifi..event..sealed..Event$GT$7handler6HANDLE17h6145c27aafa954ffE
3ffb10b8 0000000c d _ZN93_$LT$esp_wifi..wifi..event..StaBssRssiLow$u20$as$u20$esp_wifi..wifi..event..sealed..Event$GT$7handler6HANDLE17h087c46d269ae12aaE
3ffb10c4 0000000c d _ZN94_$LT$esp_wifi..wifi..event..ActionTxStatus$u20$as$u20$esp_wifi..wifi..event..sealed..Event$GT$7handler6HANDLE17h86d90384d57d28a4E
3ffb1088 0000000c d _ZN94_$LT$esp_wifi..wifi..event..ApStaconnected$u20$as$u20$esp_wifi..wifi..event..sealed..Event$GT$7handler6HANDLE17h4538b8d569875c1bE
3ffb10f4 0000000c d _ZN94_$LT$esp_wifi..wifi..event..ApWpsRgSuccess$u20$as$u20$esp_wifi..wifi..event..sealed..Event$GT$7handler6HANDLE17hecddbe3c76329436E
3ffb110c 0000000c d _ZN94_$LT$esp_wifi..wifi..event..ApWpsRgTimeout$u20$as$u20$esp_wifi..wifi..event..sealed..Event$GT$7handler6HANDLE17h86b0114e02aaba0bE
3ffb11f0 0000000c d _ZN94_$LT$esp_wifi..wifi..event..StaNeighborRep$u20$as$u20$esp_wifi..wifi..event..sealed..Event$GT$7handler6HANDLE17hf84dd43cbce9e0e6E
3ffb1040 0000000c d _ZN94_$LT$esp_wifi..wifi..event..StaWpsErFailed$u20$as$u20$esp_wifi..wifi..event..sealed..Event$GT$7handler6HANDLE17hd5d5e41c07d01f32E
3ffb101c 0000000c d _ZN95_$LT$esp_wifi..wifi..event..StaDisconnected$u20$as$u20$esp_wifi..wifi..event..sealed..Event$GT$7handler6HANDLE17hfdc663dd4465a90dE
3ffb1034 0000000c d _ZN95_$LT$esp_wifi..wifi..event..StaWpsErSuccess$u20$as$u20$esp_wifi..wifi..event..sealed..Event$GT$7handler6HANDLE17hc32796ad3b1e6e41E
3ffb104c 0000000c d _ZN95_$LT$esp_wifi..wifi..event..StaWpsErTimeout$u20$as$u20$esp_wifi..wifi..event..sealed..Event$GT$7handler6HANDLE17h35ae89eab279e87fE
3ffb10a0 0000000c d _ZN96_$LT$esp_wifi..wifi..event..ApProbereqrecved$u20$as$u20$esp_wifi..wifi..event..sealed..Event$GT$7handler6HANDLE17h18e2186c8c3c41c6E
3ffb10dc 0000000c d _ZN96_$LT$esp_wifi..wifi..event..StaBeaconTimeout$u20$as$u20$esp_wifi..wifi..event..sealed..Event$GT$7handler6HANDLE17h83b668391f6a0a77E
3ffb1094 0000000c d _ZN97_$LT$esp_wifi..wifi..event..ApStadisconnected$u20$as$u20$esp_wifi..wifi..event..sealed..Event$GT$7handler6HANDLE17h9e2c7f99dde388edE
3ffb1124 0000000c d _ZN97_$LT$esp_wifi..wifi..event..ApWpsRgPbcOverlap$u20$as$u20$esp_wifi..wifi..event..sealed..Event$GT$7handler6HANDLE17h1d94e0e2985c5712E
3ffb11e4 0000000c d _ZN97_$LT$esp_wifi..wifi..event..HomeChannelChange$u20$as$u20$esp_wifi..wifi..event..sealed..Event$GT$7handler6HANDLE17h11ce47b7ef777667E
3ffb1028 0000000c d _ZN97_$LT$esp_wifi..wifi..event..StaAuthmodeChange$u20$as$u20$esp_wifi..wifi..event..sealed..Event$GT$7handler6HANDLE17h0397a81a95838fdbE
3ffb1064 0000000c d _ZN98_$LT$esp_wifi..wifi..event..StaWpsErPbcOverlap$u20$as$u20$esp_wifi..wifi..event..sealed..Event$GT$7handler6HANDLE17hb447bb44efd8631cE
40126868 0000000d T chm_get_current_channel
40126878 0000000d T chm_get_home_channel
400819d8 0000000d T __default_exception
40155ae0 0000000d T eap_get_config_identity
40155b1c 0000000d T eap_get_config_new_password
40155af0 0000000d T eap_get_config_password
4013baf4 0000000d T esp_eap_client_set_disable_time_check
4010ac04 0000000d T esp_wifi_send_deauth_local
40125424 0000000d T esp_wifi_sta_get_prof_password_internal
4008be7c 0000000d T hal_mac_interrupt_get_event
400879bc 0000000d T hal_mac_rx_get_last_dscr
40087970 0000000d T hal_mac_rx_read_rxdscrnext
40084838 0000000d T hal_random
4013289c 0000000d T ic_del_key_all
40132b04 0000000d T ic_get_random
4013261c 0000000d T ic_is_mgmt_hwdecr_enabled
40132ae4 0000000d T ic_set_bssid
40132b6c 0000000d T ic_set_interface
40132ad4 0000000d T ic_set_mac
40138314 0000000d T wDev_is_low_rate_enable
40138430 0000000d T wdev_is_mgmt_hwdecr_enabled
4013782c 0000000d T wDev_Set_Beacon_Int
4010d5c8 0000000d T wifi_ap_reg_rxcb
401161b8 0000000d T wifi_nan_reg_rxcb
4011bdd8 0000000d T wifi_nvs_get_sta_listen_interval
40115108 0000000d T wifi_set_ps_process
401253d4 0000000d T wifi_sta_get_prof_password
401226ac 0000000d T wifi_sta_reg_rxcb
4013c040 0000000d T wpa_free_eapol
400d7c1c 0000000d t _ZN15esp_hal_embassy8executor6thread8Executor3run17hb0cf3978f3055613E
40127584 0000000e T cnx_assoc_timeout
40127574 0000000e T cnx_auth_timeout
40126d90 0000000e T cnx_connect_timeout
40126da0 0000000e T cnx_handshake_timeout
40115f00 0000000e T config_is_cache_tx_buf_enabled
40142f5c 0000000e T des_block_decrypt
40155bec 0000000e t eap_tls_isKeyAvailable
4013ab88 0000000e t esp_aes_decrypt
4013ab98 0000000e t esp_aes_encrypt
401325a8 0000000e T esp_wifi_internal_free_rx_buffer
40125fe4 0000000e T esp_wifi_skip_supp_pmkcaching
40125518 0000000e T esp_wifi_sta_get_group_cipher_internal
40125508 0000000e T esp_wifi_sta_get_pairwise_cipher_internal
401251e0 0000000e T esp_wifi_sta_get_prof_authmode_internal
40125434 0000000e T esp_wifi_sta_get_reset_param_internal
40125e84 0000000e T esp_wifi_sta_pmf_enabled
4010cd70 0000000e T hostap_handle_timer
40132598 0000000e T ic_ebuf_recycle_rx
40132584 0000000e T ic_ebuf_recycle_tx
401160ac 0000000e T nan_get_tsf
40116990 0000000e T nan_post_event
40119650 0000000e T nan_send_started_event
40122c60 0000000e T sta_is_11r_enabled
40122c70 0000000e T sta_is_wifi_ent_enabled
40155418 0000000e T tls_alert
40155478 0000000e T tlsv1_client_resumed
4008bb40 0000000e T wdev_record_rx_linked_list
4014e9ec 0000000e t wpa_sm_rekey_ptk
3ffcb3e0 0000000f B chip7_phy_api_ctrl
40155c38 0000000f t eap_fast_isKeyAvailable
40155aa8 0000000f T eap_sm_request_identity
40155ac8 0000000f T eap_sm_request_new_password
40155ab8 0000000f T eap_sm_request_password
40125194 0000000f T esp_wifi_ap_get_prof_ap_ssid_internal
401253c4 0000000f T esp_wifi_ap_get_prof_password_internal
40125138 0000000f T esp_wifi_ap_get_prof_pmk_internal
40132b7c 0000000f T ic_trc_set_per_pkt_rate
40132b8c 0000000f T ic_trc_update_ifx_phy_mode
4010c054 0000000f T ieee80211_ifdetach
40115d60 0000000f T ieee80211_ioctl_deinit
4008b880 0000000f T lmacPostTxComplete
4008b870 0000000f T lmacProcessAllTxTimeout
4008b860 0000000f T lmacProcessCollisions
40119f38 0000000f T nan_dw_end_process
40119f28 0000000f T nan_dw_start_process
40119f18 0000000f T nan_scan_timeout_process
40119ef8 0000000f W nan_sm_handle_event
40119fec 0000000f T nan_sm_start
40119f08 0000000f T nan_warmup_timeout_process
40133bb0 0000000f T pm_register_pm_tx_null_cb
40135648 0000000f T pp_register_config_cb
40135670 0000000f T pp_register_michael_mic_failure_cb
40135634 0000000f T pp_register_net80211_tx_cb
4013565c 0000000f T pp_register_timer_cb
401356a8 0000000f T ppRegisterTxDoneUserActionCallback
401363f8 0000000f T pp_timer_register_post_cb
4011ff28 0000000f T scan_set_pas_duration
40122c80 0000000f T sta_get_owe_data
40122a80 0000000f T sta_recv_ctl
40138078 0000000f T wdev_nan_set_callbacks
4013784c 0000000f T wDev_reset_bcnSendTick
40155e30 0000000f T wpabuf_put
400f0d84 0000000f t _ZN4core5slice29_$LT$impl$u20$$u5b$T$u5d$$GT$15copy_from_slice17len_mismatch_fail17hcd8757f7a1ca6a23E
400f1590 0000000f t _ZN4core5slice5index22slice_index_order_fail17hd4a627f106b56974E
400f0580 0000000f t _ZN4core5slice5index24slice_end_index_len_fail17h4024239d746064a2E
400f0538 0000000f t _ZN4core5slice5index26slice_start_index_len_fail17h8e8fe2d8cebe01ccE
3ffca16c 00000010 B app_scan_params
4008a6c0 00000010 T bb_wdt_get_status
4008a788 00000010 T bt_tx_gain_cal_set
40126db0 00000010 T cnx_csa_fn
3f410fc4 00000010 r CSWTCH$169
4014b2ec 00000010 T eap_peer_tls_reset_output
401251c0 00000010 T esp_wifi_ap_get_max_sta_conn
401251b0 00000010 T esp_wifi_ap_get_prof_authmode_internal
401251d0 00000010 T esp_wifi_ap_get_prof_pairwise_cipher_internal
40125e74 00000010 T esp_wifi_set_wpa2_ent_state_internal
4008be90 00000010 T hal_mac_interrupt_clr_event
4008bec0 00000010 T hal_mac_rx_get_end_state
400879cc 00000010 T hal_mac_rx_is_dscr_reload
40087984 00000010 T hal_mac_rx_set_base
40132b14 00000010 T ic_get_trc
4011fa38 00000010 T ieee80211_rfid_locp_recv_reset
40116540 00000010 T nan_rx_cb
4015603c 00000010 t _out_buffer
40154314 00000010 t _out_char
4012ad18 00000010 T phy_change_channel_nomac
3ffcb3c8 00000010 B phy_rxbb_dc
4013466c 00000010 T pm_coex_schm_process_restart
4008ccc0 00000010 T pm_on_data_tx
3ffc8868 00000010 B s_fragment
4013c594 00000010 T tls_connection_established
4013c7b4 00000010 T tls_connection_resumed
4013c5a4 00000010 T tls_connection_shutdown
4013d074 00000010 T tlsv1_client_set_cred
4013d084 00000010 T tlsv1_client_set_flags
3f412b80 00000010 r totrot
3f4079b0 00000010 r _ZN16embassy_executor3raw5waker6VTABLE17h96b7a1bbf0dc13d6E
400f0bf8 00000010 t _ZN4core6option13unwrap_failed17h3e21f5807f17ebaaE
3ffb0e44 00000010 d _ZN8esp_wifi15preempt_builtin5timer5TIMER17h4b5ef630b0fdc039E
40151dbc 00000011 T bignum_cmp
40142640 00000011 T crypto_public_key_import
4013b980 00000011 T esp_eap_client_clear_ca_cert
4008254c 00000011 T GetAccess
400880b8 00000011 T i2c_bbpll_init
401323b8 00000011 T ic_get_addr
40132558 00000011 T ic_tx_pkt
40116154 00000011 T nan_action_frames_queued
401458f0 00000011 T os_get_random
3ffcb4e0 00000011 B phy_chan_pwr_index
3ffcb4fc 00000011 B phy_chan_target_power
40134e78 00000011 T pm_on_data_tx_done
4011ff14 00000011 T scan_set_act_duration
40155464 00000011 T tlsv1_client_established
4013ec20 00000011 T tlsv1_cred_alloc
40155254 00000011 T trc_calc_duration
4013b244 00000011 t wpa2_start_eapol
400efd4c 00000011 t _ZN14allocator_api27raw_vec17capacity_overflow17h304ed6eaa7933d68E
40136330 00000012 T dbg_lmac_ps_statis_reset
4012579c 00000012 T esp_wifi_get_hostap_private_internal
40145d1c 00000012 T hostapd_config_free_bss
401325d0 00000012 T ic_register_rx_cb
401103f4 00000012 T ieee80211_ampdu_enable
4011f8f0 00000012 T ieee80211_regdomain_update_in_scan
40133630 00000012 T lmacProcessTxseckiderr
40119fd8 00000012 T nan_sm_deinit
400860dc 00000012 T pm_is_waked
40134d2c 00000012 T pm_send_sleep_null_cb
40134d40 00000012 T pm_send_wake_null_cb
40084934 00000012 T trc_isTxAmpduOperational
401557dc 00000012 T wpa_auth_uses_mfp
40149e78 00000012 t wpabuf_put_u8
400f1dc0 00000012 t _ZN4core6option13expect_failed17h292beaa006b1ba74E
40151c9c 00000013 T bignum_deinit
40155b94 00000013 T eap_get_id
40155ba8 00000013 T eap_get_type
401256e8 00000013 T esp_wifi_register_wpa2_cb_internal
40125720 00000013 T esp_wifi_register_wpa_cb_internal
401329b4 00000013 T ic_deinit
401161a0 00000013 T nan_disc_enable_rx
40119f98 00000013 T nan_faw_end_process
40119f84 00000013 T nan_faw_start_process
40119fac 00000013 T nan_ndc_start_process
40119f70 00000013 T nan_send_action_process
40119f48 00000013 T nan_send_disc_bcn_process
40119f5c 00000013 T nan_send_sync_bcn_process
4011ab2c 00000013 T nan_services_init
40119ffc 00000013 T nan_sm_stop
40145990 00000013 t os_timer_disarm$constprop$0
40086598 00000013 T pm_beacon_monitor_tbtt_stop
40087a24 00000013 T pm_disable_dream_timer
40133a78 00000013 T pm_noise_check_disable
40133a8c 00000013 T pm_noise_check_enable
4011ff00 00000013 T scan_hidden_ssid
4008bab0 00000013 T wifi_gpio_debug
401275a4 00000013 T wl_clear_ap_no_lr
401402a4 00000013 T x509_name_string
400f2908 00000013 t _ZN4core3str16slice_error_fail17he57f45b08ec2a212E
401557f0 00000014 T ap_sta_hash_add
3ffcb2c8 00000014 B bt_wifi_chan_data
401426cc 00000014 T crypto_public_key_decrypt_pkcs1
4013b198 00000014 T eap_client_get_eap_state
40155bd8 00000014 t eap_peap_isKeyAvailable
40155bfc 00000014 t eap_ttls_isKeyAvailable
4013aba8 00000014 t esp_aes_unwrap
4013abbc 00000014 t esp_aes_wrap
4013ab54 00000014 t esp_supp_crc32
40132570 00000014 T ic_ebuf_alloc
401323cc 00000014 T ic_get_ptk_alg
400860b0 00000014 T ic_interface_enabled
40132608 00000014 T ic_register_config_cb
40132640 00000014 T ic_register_net80211_tx_cb
4013262c 00000014 T ic_register_pm_tx_null_cb
40132654 00000014 T ic_register_timer_cb
40132864 00000014 T ic_reset_rx_ba
4011f904 00000014 T ieee80211_regdomain_update_in_connect
40125788 00000014 T ieee80211_sta_is_connected
400828b8 00000014 T lmacDiscardAgedMSDU
401161c8 00000014 T nan_set_update_sdf_pending
4012e0f0 00000014 T read_hw_noisefloor
3ffcb2a0 00000014 B sta_con_timer
3ffc866c 00000014 B sta_csa_timer
4013c580 00000014 T tls_connection_deinit
4013c730 00000014 T tls_connection_handshake
4013c830 00000014 T tls_connection_set_session_ticket_cb
40155534 00000014 T tls_version_ok
4008459c 00000014 T wdev_mac_special_reg_load
400845b4 00000014 T wdev_mac_special_reg_store
401508cc 00000014 T wpa_snprintf_hex
3ffb0f70 00000014 d _ZN8esp_wifi4wifi16DATA_QUEUE_RX_AP17h2529c498cbf4649cE
3ffb0f84 00000014 d _ZN8esp_wifi4wifi17DATA_QUEUE_RX_STA17h1c4fa0a0b7ff5fe0E
4014b258 00000015 T eap_peer_tls_reset_input
401321f8 00000015 T esf_buf_setdown
401253ac 00000015 T esp_wifi_sta_is_ap_notify_completed_rsne_internal
401325b8 00000015 T ic_register_tx_cb
4011fee8 00000015 T scan_remove_bssid
401203b8 00000015 T scan_set_desChan
4013c79c 00000015 T tls_connection_decrypt
400f011c 00000015 t _ZN4core9panicking9panic_fmt17hb8555b65dccd58aaE
401506e0 00000016 T base64_decode
4013b034 00000016 T bin_clear_free
4012dcf8 00000016 T bt_index_to_bb
401252ec 00000016 T esp_wifi_sta_disable_sae_pk_internal
40125444 00000016 T esp_wifi_sta_set_reset_param_internal
40125dac 00000016 T esp_wifi_unset_appie_internal
4013ad64 00000016 t forced_memzero
40148ae4 00000016 t forced_memzero
40132b48 00000016 T ic_set_rx_policy
40132bac 00000016 T ic_stop_sw_txq
40135578 00000016 T pm_coex_reconnect_policy
40134740 00000016 T pm_dream_timeout_process
40082bd4 00000016 T pp_process_hmac_waiting_txq
4013c63c 00000016 T tls_connection_get_random
4013c7c4 00000016 T tls_connection_set_cipher_list
40138088 00000016 T wDev_isNANPktInValidSlot
401553b8 00000016 T wpa_ap_get_peer_spp_msg
4014e1b0 00000016 t wpabuf_put_data$part$0
40155e18 00000016 T wpa_supplicant_gtk_tx_bit_workaround
400efb88 00000016 t _ZN5alloc7raw_vec12handle_error17hf972b4dc453a4f7eE
4014b2fc 00000017 T eap_peer_tls_ssl_deinit
4014b750 00000017 t eap_ttls_free_key
4013c1ac 00000017 T esp_supplicant_unset_all_appie
40138990 00000017 T hal_crypto_is_key_valid
401328cc 00000017 T ic_set_ac_param
40119fc0 00000017 T nan_sm_init
4008b7b0 00000017 T ram_get_rf_gain_qdb
40136498 00000017 T RC_GetAckTime
40084948 00000017 T trc_tid_isTxAmpduOperational
401156c8 00000017 T wifi_register_mgmt_frame
4013b0fc 00000017 t wpa2_api_unlock
40155548 00000018 t asn1_is_sequence
40155560 00000018 t asn1_is_sequence
40156024 00000018 t asn1_is_sequence
40151dd0 00000018 T bignum_add
40151e00 00000018 T bignum_mul
40151de8 00000018 T bignum_sub
3ffb16a0 00000018 D ccmp
4014269c 00000018 T crypto_private_key_sign_pkcs1
40142684 00000018 T crypto_public_key_encrypt_pkcs1_v15
40149cfc 00000018 t eap_peap_free_key
4013b9d8 00000018 T esp_eap_client_clear_identity
4013badc 00000018 T esp_eap_client_clear_new_password
4013ba88 00000018 T esp_eap_client_clear_password
4013ba34 00000018 T esp_eap_client_clear_username
4010bba4 00000018 T esp_wifi_set_tx_done_cb
4012a3e8 00000018 T get_iav_key
40132b30 00000018 T ic_set_rx_policy_ubssid_check
40125528 00000018 T ieee80211_get_key
401255f0 00000018 T ieee80211_get_ptk
40154c94 00000018 T ieee80211_is_lr_only
4011f9a8 00000018 T ieee80211_regdomain_ap_max_chan
4011c988 00000018 T ieee80211_vnd_lora_ie_size
401336e4 00000018 T lmacRxDone
40142078 00000018 T omac1_aes_128
401552cc 00000018 T rcGetDefaultHigestRateIdx
3ffb1ee4 00000018 D rcLoRaSchedTbl
3ffb16b8 00000018 D sms4
400853cc 00000018 T sta_rx_cb
3ffb16d0 00000018 D tkip
3ffb16e8 00000018 D wep
4008b7c8 00000018 T wifi_11g_rate_chg
4011556c 00000018 T wifi_set_appie_process
40149e8c 00000018 t wpabuf_put_be16
4013c14c 00000018 T wpa_sm_alloc_eapol
400f1e0c 00000018 t _ZN4core9panicking18panic_nounwind_fmt7runtime17hb12796e67689c4a8E
3ffb0f50 00000018 d _ZN8esp_wifi4wifi10os_adapter11WIFI_EVENTS17h18090cc909532578E
40155b00 00000019 T eap_get_config_password2
40155bbc 00000019 t eap_mschapv2_isKeyAvailable
401320cc 00000019 T esf_buf_alloc_default_handler
401320ac 00000019 T esf_buf_alloc_dynamic_default_handler
4008c1f0 00000019 T esp_wifi_internal_tx
40138cd4 00000019 T hal_mac_is_txq_valid
4013c42c 00000019 T hostap_deinit
40132878 00000019 T ic_add_rx_ba
4011d9bc 00000019 T ieee80211_output
4011f080 00000019 T ieee80211_psq_init
4014205c 00000019 T omac1_aes_128_vector
40135688 00000019 T pp_default_event_handler
4013bf0c 00000019 T wpa_config_assoc_ie
40146f24 00000019 t wpa_rekey_ptk
40141778 0000001a T aes_decrypt_deinit
40141bac 0000001a T aes_encrypt_deinit
4008245c 0000001a T chm_is_at_home_channel
40127868 0000001a T cnx_get_authtype_strength
40142f18 0000001a T des_key_setup
4014b4f4 0000001a T eap_peer_tls_reauth_init
40149428 0000001a T eap_set_config_blob
40145920 0000001a t eloop_run_timer
401320ec 0000001a T esf_buf_recycle_default_handler
4013c1c4 0000001a T esp_supplicant_common_deinit
4013bfd0 0000001a T esp_supplicant_deinit
400895a8 0000001a T get_i2c_read_mask
400879dc 0000001a T hal_mac_rx_set_dscr_reload
4010c288 0000001a T ieee80211_find_ie
40125f8c 0000001a T ieee80211w_get_active_igtk_key_id
40155394 0000001a T inc_byte_array
40132c14 0000001a T lmacGetTxFrame
40150c28 0000001a t mp_clear
40136408 0000001a T pp_timer_process
4012fc38 0000001a T ram_index_to_txbbgain
40145f74 0000001a T resend_eapol_handle
4013c814 0000001a T tls_connection_client_hello_ext
4013c7f8 0000001a T tls_get_cipher
4013c7dc 0000001a T tls_get_version
40088000 0000001a T wdev_csi_len_align
4011b99c 0000001a T wifi_nvs_validate_ap_ssid
40113c98 0000001a T wifi_softap_max_support_num
40122690 0000001a T wifi_sta_reg_eapol_txdone_cb
4013b114 0000001a t wpa2_set_eap_state
40150714 0000001a T wpabuf_alloc
401507d4 0000001a T wpabuf_alloc_copy
40155518 0000001a t WPA_GET_BE24
401557b8 0000001a t WPA_PUT_BE32
4013c170 0000001a T wpa_sm_deauthenticate
40141178 0000001a T x509_certificate_self_signed
40135614 0000001a T xswap
4008a6a4 0000001b T bb_wdt_timeout_clear
4012c79c 0000001b T chip_v7_set_chan
40154f44 0000001b T cnx_rc_update_age
40142584 0000001b T crypto_cipher_deinit
40148ccc 0000001b T eap_peer_get_methods
40148dd8 0000001b T eap_peer_method_alloc
4014b7b8 0000001b t eap_ttls_deinit_for_reauth
40125984 0000001b T esp_wifi_get_macaddr_internal
40125284 0000001b T esp_wifi_sta_get_rsnxe
40138a9c 0000001b T hal_crypto_mgmt_rx_enabled
40139ea8 0000001b T hal_disable_nan_tsf
40139ec4 0000001b T hal_disable_softap_tsf
40139e70 0000001b T hal_disable_sta_tsf
40139e8c 0000001b T hal_enable_nan_tsf
40139e50 0000001b T hal_enable_sta_tsf
4008bea0 0000001b T hal_mac_interrupt_clr_watchdog
40145d00 0000001b T hostapd_config_clear_wpa_psk
40132aac 0000001b T ic_disable_rx
40132a90 0000001b T ic_enable_rx
40154e9c 0000001b T ieee80211_set_shortslottime
40132bf8 0000001b T lmacIsIdle
3f413158 0000001b r magic1$4
40117cf0 0000001b T nan_dp_parse_ndla
40086d6c 0000001b T pm_beacon_monitor_tbtt_timeout_process
40135724 0000001b T ppCheckTxQIdle
4008a070 0000001b T ram_disable_agc
4008a08c 0000001b T ram_enable_agc
40136580 0000001b T rx11NRate2AMPDULimit
4013c52c 0000001b T tls_deinit
40150828 0000001b T wpabuf_clear_free
401506f8 0000001b t wpabuf_put_data
4013ff98 0000001b T x509_certificate_chain_free
401403ac 0000001b T x509_sha256_oid
40114534 0000001c T chip_disable
40114514 0000001c T chip_enable
40126784 0000001c T chm_release_lock
4013b964 0000001c T esp_eap_client_set_ca_cert
40125390 0000001c T esp_wifi_ap_is_sta_sae_reauth_node
4012f078 0000001c T get_phy_version_str
400848bc 0000001c T hal_mac_tx_is_cbw40
4015284c 0000001c T hash_nt_password_hash
4011f9c0 0000001c T ieee80211_regdomain_min_chan
4011fa48 0000001c T ieee80211_rfid_locp_recv
40082bb4 0000001c T is_lmac_idle
4012a180 0000001c T offchan_recv_action
4013b0b4 0000001c T os_memdup
40145904 0000001c T os_sleep
40147c94 0000001c T pmksa_cache_auth_init
400855cc 0000001c T pm_on_data_rx
40084918 0000001c T ppSubFromAMPDU
40155218 0000001c T rcLoRaRate2SchedIdx
40155e40 0000001c t rotate_bits
40121434 0000001c T scan_enter_oper_channel_process
3ffb1f08 0000001c D trc_ctl
4011baf4 0000001c T wifi_nvs_validate_sta_listen_interval
401460b0 0000001c t wpa_auth_get_psk$isra$0
401507f0 0000001c T wpabuf_dup
4015080c 0000001c T wpabuf_free
40149f2c 0000001c t wpabuf_put_data
4014115c 0000001c T x509_certificate_get_subject
401403c8 0000001c T x509_sha384_oid
401403e4 0000001c T x509_sha512_oid
4014e2c0 0000001d T eap_fast_derive_eap_emsk
4014e2a0 0000001d T eap_fast_derive_eap_msk
40148cac 0000001d T eap_peer_get_eap_method
4013ab68 0000001d t esp_aes_gmac
40087998 0000001d T hal_mac_init
4014399c 0000001d T hmac_md5
40144e10 0000001d T hmac_sha1
4014525c 0000001d T hmac_sha256
401328e4 0000001d T ic_ampdu_op
40132c34 0000001d T lmacIsLongFrame
401160bc 0000001d T nan_update_tsf
401458d0 0000001d T os_get_time
40137808 0000001d T wDev_SetCurChannel
4011bad4 0000001d T wifi_nvs_validate_ap_num
4013be2c 0000001d T wpa_get_key
4014eb6c 0000001d T wpa_sm_set_state
4010d5d8 0000001e T ap_rx_cb
40151cb0 0000001e T bignum_get_unsigned_bin_len
40128afc 0000001e T cnx_update_bss
40155a88 0000001e T eap_deinit_prev_method
4014c7c0 0000001e t eap_fast_get_emsk
4014e1f0 0000001e T eap_fast_put_tlv_buf
401495e4 0000001e t eap_mschapv2_deinit
40149d70 0000001e t eap_peap_deinit_for_reauth
4014b150 0000001e T eap_peer_tls_build_ack
4014b7d4 0000001e t eap_ttls_has_reauth_data
40155b74 0000001e T eap_update_len
40125174 0000001e T esp_wifi_sta_get_ap_info_prof_pmk_internal
401254b8 0000001e T esp_wifi_sta_prof_is_wapi_internal
4011c7d0 0000001e T ieee80211_add_assoc_req_ies
4011c7b0 0000001e T ieee80211_add_assoc_resp_ies
4011c7f0 0000001e T ieee80211_add_probe_req_ies
400848d8 0000001e T ieee80211_is_tx_allowed
4010bf00 0000001e T ieee80211_rate_ref_init
4011f9e8 0000001e T ieee80211_regdomain_chan_in_range
40150bbc 0000001e t mp_zero
401160e4 0000001e T nan_is_in_dw
40089b3c 0000001e T phy_get_fetx_delay
4014e2e0 0000001e t pmksa_cache_free_entry
4014e6e0 0000001e T pmksa_cache_init
40086f8c 0000001e T ppEnqueueRxq
40135c88 0000001e T ppRecordBarRRC
3ffb2094 0000001e D pp_sig_cnt
401374a8 0000001e T rc_disable_trc_by_interface
4013c77c 0000001e T tls_connection_decrypt2
4013e714 0000001e T tls_server_key_exchange_allowed
40155488 0000001e T tlsv1_client_get_keyblock_size
40084980 0000001e T wdev_bank_load
40084960 0000001e T wdev_bank_store
40115ce4 0000001e T wifi_on_coex_start_process
40155860 0000001e T wpa_mic_len
40141018 0000001e T x509_certificate_check_signature
400f1e24 0000001e t _ZN4core9panicking13assert_failed17h40715ef93f659cd6E
4012c820 0000001f T chip_v7_set_chan_ana
401267d0 0000001f T chm_end_op_timeout_process
40126ca4 0000001f T cnx_sta_connect_led_timer_cb
40113768 0000001f T current_task_is_wifi_task
4014c804 0000001f t eap_fast_getKey
4011c790 0000001f T ieee80211_add_beacon_app_ies
4011c770 0000001f T ieee80211_add_probe_resp_app_ies
4013c18c 0000001f t ieee80211_handle_rx_frm
40115d40 0000001f T ieee80211_ioctl_init
4014373c 0000001f T MD5Init
401171f4 0000001f T nan_dp_node_available
40154dec 0000001f T nan_service_type_diff
4013477c 0000001f T pm_disconnected_sleep_delay_timeout_process
40147b20 0000001f t _pmksa_cache_free_entry
401356b8 0000001f T ppRegisterRxCallback
4014fe2c 0000001f T wpa_sta_clear_curr_pmksa
40151c7c 00000020 T bignum_init
3f412c28 00000020 r bytebit
4014c7a0 00000020 t eap_fast_copy_buf
4014ae4c 00000020 t eap_tls_check_blob
3ffc8b4c 00000020 b eloop
401328ac 00000020 T ic_del_key
4010b228 00000020 T net80211_funcs_deinit
40086e28 00000020 T pm_coex_schm_overall_period_get
400848f8 00000020 T ppEmptyDelimiterLength
40155114 00000020 T putle32
4013acb0 00000020 T sha256_prf
4013ed24 00000020 T tlsv1_set_cert
40136d38 00000020 T trc_set_per_pkt_rate
4008801c 00000020 T wDev_DiscardFrame
40154be8 00000021 T addba_timeout_process
40115f14 00000021 T config_get_wifi_task_stack_size
4014cb88 00000021 t eap_fast_encrypt_response
40148e94 00000021 T eap_peer_register_methods
40149404 00000021 T eap_sm_abort
401113f4 00000021 T ht_action_output
40148774 00000021 t inc32
4010ac88 00000021 T wifi_api_unlock
4013bc34 00000021 T wpa_attach
400f9c84 00000021 t _ZN15esp_hal_embassy11time_driver17not_enough_timers17h997aadaaa5c0829bE
400f0bd4 00000021 t _ZN4core9panicking11panic_const23panic_const_div_by_zero17hf4aac8935cbc0a91E
400f2f64 00000021 t _ZN4core9panicking11panic_const23panic_const_rem_by_zero17h7fc7a6cc9a838babE
400f2f88 00000021 t _ZN4core9panicking11panic_const28panic_const_async_fn_resumed17h89ddfd77833e9119E
400efbac 00000021 t _ZN5alloc7raw_vec17capacity_overflow17he3da05015262aacfE
4008a764 00000022 t bt_tx_gain_cal_set$part$4
40126938 00000022 T chm_get_chan_info
4013b49c 00000022 t eap_client_disable_fn
40148e4c 00000022 T eap_peer_unregister_methods
4014ae6c 00000022 t eap_tls_msg_alloc$constprop$0
400f9308 00000022 T EspDefaultHandler
40125e98 00000022 T esp_wifi_sta_get_mgmt_group_cipher
401256c4 00000022 T esp_wifi_unregister_wpa2_cb_internal
401256fc 00000022 T esp_wifi_unregister_wpa_cb_internal
40138c8c 00000022 T hal_mac_tx_set_ppdu
40152b48 00000022 T nt_password_hash_encrypted_with_block
401339e8 00000022 T pm_is_sleeping
40134758 00000022 T pm_sleep_delay_timeout_process
4012cd08 00000022 T ram_bb_bss_bw_40_en
400f9260 00000022 T __stack_chk_fail
4013840c 00000022 T wDev_Crypto_Disable
40114d34 00000022 T wifi_deinit
40155880 00000022 T wpa_cipher_valid_mgmt_group
4014fe08 00000022 T wpa_sta_cur_pmksa_matches_akm
4010b9bc 00000023 T esp_wifi_get_event_mask
401550f0 00000023 T getle32
40084854 00000023 T hal_mac_is_low_rate_enabled
40138d38 00000023 T hal_mac_tx_set_cca
4013ad7c 00000023 T hex2byte
4011f4e0 00000023 T ieee80211_proto_attach
400828cc 00000023 T lmacRecycleMPDU
40154ff0 00000023 T phy_byte_to_word
40082e28 00000023 T ppCalSubFrameLength
40082e00 00000023 T ppResumeTxAMPDU
40088520 00000023 T ram_bb_bss_cbw40_dig
40101008 00000023 T strrchr
4013c844 00000023 T tlsv1_client_free_dh
4010acac 00000023 T wifi_init_completed
40125114 00000023 T wifi_sta_connect_internal_process
4013be08 00000023 T wpa_install_key
400fdbac 00000023 t _ZN8esp_wifi4wifi10os_adapter10nvs_commit17h984701cba84e4f36E
400fdab0 00000023 t _ZN8esp_wifi4wifi10os_adapter10nvs_get_i817hc4e4206638afb66bE
400fdaf8 00000023 t _ZN8esp_wifi4wifi10os_adapter10nvs_get_u817hd968c03f85df56b7E
400fdad4 00000023 t _ZN8esp_wifi4wifi10os_adapter10nvs_set_u817he3a35c1e34618334E
400fdb40 00000023 t _ZN8esp_wifi4wifi10os_adapter11nvs_get_u1617h4d6e6359fbc22680E
400fdb1c 00000023 t _ZN8esp_wifi4wifi10os_adapter11nvs_set_u1617h304c8e4ae7f1b337E
400fb0f0 00000023 t _ZN8esp_wifi4wifi10os_adapter12mutex_create17hf75879e269a6547cE
400fdbf4 00000023 t _ZN8esp_wifi4wifi10os_adapter12nvs_get_blob17h6e4e8e1dfb834df4E
400fdbd0 00000023 t _ZN8esp_wifi4wifi10os_adapter12nvs_set_blob17h3eedc6e63da5d1aeE
400fddf4 00000023 t _ZN8esp_wifi4wifi10os_adapter12wifi_realloc17heceba631a5326a77E
400fdc18 00000023 t _ZN8esp_wifi4wifi10os_adapter13nvs_erase_key17h7f17d62bd1261bd3E
400fdd38 00000023 t _ZN8esp_wifi4wifi10os_adapter16realloc_internal17h89327195efd82a07E
400fb884 00000023 t _ZN8esp_wifi4wifi10os_adapter18event_group_create17hf116968fd46c0a7dE
400fb8a8 00000023 t _ZN8esp_wifi4wifi10os_adapter18event_group_delete17h2b5149c477e3b518E
400fb58c 00000023 t _ZN8esp_wifi4wifi10os_adapter18queue_send_to_back17h862880eaf74881baE
400fb5b0 00000023 t _ZN8esp_wifi4wifi10os_adapter19queue_send_to_front17hf6935084e72fd6ddE
400fd998 00000023 t _ZN8esp_wifi4wifi10os_adapter19wifi_rtc_enable_iso17h2af3478959257cdfE
400fb8cc 00000023 t _ZN8esp_wifi4wifi10os_adapter20event_group_set_bits17h8ea691a24ebd7f9fE
400fd9bc 00000023 t _ZN8esp_wifi4wifi10os_adapter20wifi_rtc_disable_iso17h58eeacda9aed3c8cE
400fb914 00000023 t _ZN8esp_wifi4wifi10os_adapter21event_group_wait_bits17hd1f5e0ad1385a07dE
400fb8f0 00000023 t _ZN8esp_wifi4wifi10os_adapter22event_group_clear_bits17h2567795fde6a3a8fE
400fdca8 00000023 t _ZN8esp_wifi4wifi10os_adapter8get_time17hdf359636ad867548E
400fdb64 00000023 t _ZN8esp_wifi4wifi10os_adapter8nvs_open17h33963953b1230e7bE
400fdb88 00000023 t _ZN8esp_wifi4wifi10os_adapter9nvs_close17h7d4108f959a41c40E
4008a654 00000024 T bb_wdt_rst_enable
401285c8 00000024 T cnx_assoc_timeout_process
4014c7e0 00000024 t eap_fast_get_session_id
40148e70 00000024 T eap_sm_allowMethod
401257dc 00000024 T esp_wifi_get_spp_attrubute_internal
40138cb0 00000024 T hal_mac_set_txq_invalid
4008d59c 00000024 T hal_mac_txq_disable
400847b4 00000024 T hal_mac_txq_enable
4011bfa0 00000024 T ieee80211_recycle_cache_eb
4011fce0 00000024 T ieee80211_scan_deattach
4011f75c 00000024 T ieee80211_update_phy_country
400eec98 00000024 T main
40133ae0 00000024 T pm_disable_disconnected_sleep_delay_timer
400863dc 00000024 T pm_disable_sleep_delay_timer
4012cbac 00000024 T ram_bb_tx_ht20_cen
40089f34 00000024 T ram_pbus_debugmode
40154eb8 00000024 T scan_check_hidden
40144aa8 00000024 T SHA1Init
4013c868 00000024 T tls_derive_pre_master_secret
40114c38 00000024 T wifi_hmac_init
401146d0 00000024 T wifi_txq_empty
401507b0 00000024 T wpabuf_alloc_ext_data
4013bc90 00000024 T wpa_deattach
400f9ca8 00000024 t _ZN4core9panicking13assert_failed17h047e1049ce6a9a02E
40148abc 00000025 T aes_gmac
40147cb0 00000025 T ap_get_sta
4012ddf0 00000025 T chip_sleep_prot_dis
40101184 00000025 T coexist_printf
4010a718 00000025 T default_post_init
4010a718 00000025 T DefaultPreInit
40112640 00000025 T ieee80211_better_rsn_pairwise_cipher
4011c27c 00000025 T ieee80211_output_init
40155eb0 00000025 t mp_exch
40101184 00000025 T net80211_printf
40101184 00000025 T phy_printf
4008649c 00000025 T pm_save_tbtt_info
40086fac 00000025 T ppDequeueRxq_Locked
4008ce0c 00000025 T ppDequeueTxDone_Locked
40101184 00000025 T pp_printf
4008943c 00000025 T ram_tx_pwctrl_bg_init
40101184 00000025 T rtc_printf
40122c38 00000025 T sta_is_wpa3_enabled
40115d10 00000025 T wifi_mesh_ps_duty_cycle_get_process
40145e5c 00000025 t wpa_replay_counter_mark_invalid
400f34fc 00000025 t _ZN16embassy_executor3raw5waker4drop17hf9dde0d07c0dc7dfE
40101d28 00000025 t _ZN43_$LT$log..NopLogger$u20$as$u20$log..Log$GT$3log17hbee0e18f6d7f899aE
40101d50 00000025 t _ZN43_$LT$log..NopLogger$u20$as$u20$log..Log$GT$5flush17h54ffac16d16162cfE
400e0c7c 00000025 t _ZN4core3ptr62drop_in_place$LT$heapless..string..String$LT$128_usize$GT$$GT$17h28b88b1cc9903cc9E
400f087c 00000025 t _ZN4core9panicking5panic17h333c3597a73b7176E
40155f30 00000026 T bignum_cmp_d
40151e60 00000026 T bignum_exptmod
4012675c 00000026 T chm_deinit
4013af28 00000026 T dup_binstr
40155a60 00000026 T eap_allowed_method
4014e1c8 00000026 T eap_fast_put_tlv_hdr
40149d90 00000026 t eap_peap_has_reauth_data
4013ada0 00000026 T hexstr2bin
4011c6f0 00000026 T ieee80211_add_dsparams
4010bf24 00000026 T ieee80211_freedom_init
40122a58 00000026 T ieee80211_parse_obss_scan_param
4011f980 00000026 T ieee80211_regdomain_max_chan
40112618 00000026 T ieee80211_rsn_cipher_priority
40116168 00000026 T nan_flush_action_q
401554f0 00000026 T tlsv1_client_set_cb
40155268 00000026 T trcAmpduSetState
40145e34 00000026 t wpa_replay_counter_valid
4014fde0 00000026 T wpa_sta_in_4way_handshake
40148798 00000027 t aes_gcm_init_hash_subkey
4010a788 00000027 T default_mem_hook
4014cbac 00000027 T eap_fast_free_pac
40112ff8 00000027 T ieee80211_is_ht_cipher
4014e700 00000027 t is_wpa2_enterprise_connection
3f41319c 00000027 r magic1$6
40155c10 00000027 T mschapv2_remove_domain
4011a48c 00000027 T nan_static_sdfs_present
40116a0c 00000027 T nan_tx_action_frame
400879f8 00000027 T pm_get_connectionless_status
4014f0a8 00000027 T set_assoc_ie
4012dd44 00000027 T set_chanfreq_nomac
4013e6ec 00000027 T tls_get_cipher_data
4014747c 00000027 T wpa_ap_remove
4015014c 00000027 T wpa_sm_deinit
4014ebb8 00000027 T wpa_supplicant_stop_countermeasures
40101d00 00000027 t _ZN43_$LT$log..NopLogger$u20$as$u20$log..Log$GT$7enabled17h0eb7796ed55b56dbE
400fe6b8 00000027 t _ZN8esp_wifi4wifi10os_adapter22coex_register_start_cb17hf314994620ef28eaE
400fdfc4 00000027 t _ZN8esp_wifi4wifi9coex_init17h83951cfd612bf8fcE
40142f34 00000028 T des_block_encrypt
4014e278 00000028 T eap_fast_derive_key
4010bb7c 00000028 T esp_wifi_internal_issue_disconnect
401323e0 00000028 T ic_disable_crypto
3ffcb5d0 00000028 B if_ctrl
3ffcb4b4 00000028 B phy_version_str
40087a38 00000028 T pm_enable_dream_timer
40147c10 00000028 T pmksa_cache_auth_deinit
3f413130 00000028 r shs_pad1$3
3f413060 00000028 r shs_pad2$0
4013c654 00000028 T tls_connection_export_key
40137690 00000028 T trc_deinit
401259f8 00000028 T wifi_init_key
401146f8 00000028 T wifi_stop_sw_txq
40153204 00000029 T chap_md5
401254dc 00000029 T esp_wifi_sta_prof_is_rsn_internal
4012548c 00000029 T esp_wifi_sta_prof_is_wpa2_internal
40125148 00000029 T esp_wifi_sta_update_ap_info_internal
4011c244 00000029 T ieee80211_amsdu_length_check
4012557c 00000029 T ieee80211_set_sta_gtk_index
3f413173 00000029 r magic2$5
40150b90 00000029 t mp_cmp
4008803c 00000029 T pp_hdrsize
4008a150 00000029 T ram_set_rxclk_en
4008a120 00000029 T ram_set_txclk_en
4008a628 00000029 W set_xpd_sar
40154f70 00000029 T wep_decap
4010b08c 00000029 T wifi_deinit_in_caller_task
40155f58 00000029 t xor_aes_block
40155a34 00000029 t xor_block
400f1dd4 00000029 t _ZN4core9panicking13panic_display17h7240913fc1d3c171E
40141794 0000002a T aes_encrypt_init
4008a678 0000002a T bb_wdt_int_enable
40081848 0000002a T esp_dport_access_reg_read
4010b468 0000002a T esp_wifi_get_mode
401261f0 0000002a W ieee80211_ap_sa_query_timeout
401261bc 0000002a W ieee80211_ap_try_sa_query
40154b50 0000002a T ieee80211_get_cipher_mic_len
4010cda4 0000002a T ieee80211_hostapd_ps_txcb
40155ed8 0000002a t mp_clamp
40155f04 0000002a t mp_count_bits
40150c44 0000002a t mp_init
401529d0 0000002a T nt_challenge_response
40135980 0000002a T ppClearRxFragment
4008cd80 0000002a T ppTxqUpdateBitmap
4008aca8 0000002a T ram_read_sar_dout
40122a2c 0000002a T reset_cs_thres
4013cb80 0000002a T tlsv1_client_encrypt
401383e0 0000002a T wDev_remove_KeyEntry_all_cnx
4013b0d0 0000002a t wpa2_api_lock
401558ec 0000002a T wpa_cipher_to_alg
40150174 0000002a T wpa_sm_notify_disassoc
4014eb8c 0000002a T wpa_supplicant_key_neg_complete
400dfb5c 0000002a t _ZN16embassy_executor3raw4util19UninitCell$LT$T$GT$14write_in_place17h1347a775b921759dE
400f34a0 0000002a t _ZN16embassy_executor3raw5waker5clone17h4973881ca73f6068E
40148ce8 0000002b T eap_peer_get_type
4014abd0 0000002b t eap_tls_getKey
4014b6b8 0000002b t eap_ttls_get_emsk
401257b0 0000002b T esp_wifi_deauthenticate_internal
4012545c 0000002b T esp_wifi_sta_prof_is_wpa_internal
40138ef0 0000002b T hal_enable_mac
40139e20 0000002b T hal_sniffer_rx_clr_statistics
4011a328 0000002b T nan_get_peer_svc_record
40119ecc 0000002b T nan_sm_handle_event_internal
40153230 0000002b t oid_is_rsadsi
4012dd18 0000002b T set_tx_gain_table_bt
401452dc 0000002b T sha384_done
40145fd4 0000002b t sm_WPA_PTK_DISCONNECT_Enter$constprop$0
4013e6c0 0000002b T tls_get_cipher_suite
401560e0 0000002b T wDev_GetNoiseFloor
40147388 0000002b T wpa_deinit
40142adc 0000002b t WPA_GET_BE32
401474a4 0000002b t WPA_GET_BE32
40147d98 0000002b t WPA_GET_BE32
40148748 0000002b t WPA_GET_BE32
401501a0 0000002b t WPA_GET_BE32
4013fc38 0000002b t x509_rsadsi_oid
400fd144 0000002b t _ZN8esp_wifi4wifi10os_adapter24os_adapter_chip_specific23phy_common_clock_enable17h5a3fc4eeb1435d6fE
400fd170 0000002b t _ZN8esp_wifi4wifi10os_adapter24os_adapter_chip_specific24phy_common_clock_disable17h7a26f971ac09a28aE
40127884 0000002c T cnx_check_bssid_in_blacklist
40149dec 0000002c t eap_peap_get_emsk
4014b170 0000002c T eap_peer_tls_status
4014ad9c 0000002c t eap_tls_deinit
401528f4 0000002c T generate_nt_response_pwhash
40089b60 0000002c T get_temp_cal
3ffb1824 0000002c D g_pm_cfg
40084720 0000002c T hal_mac_tx_config_timeout
40155368 0000002c t hex2num
40132a64 0000002c T ic_clear_interrupt_handler
4012a4f8 0000002c T ieee80211_action_vendor_spec_attach
40125608 0000002c T ieee80211_get_spp
40154d84 0000002c T nan_dp_parse_dev_caps
40117ef0 0000002c T nan_dp_parse_ndca
40152b1c 0000002c T new_password_encrypted_with_old_nt_password_hash
4015533c 0000002c T wDev_RxSecError
401152bc 0000002c T wifi_set_rxcb_process
40147e78 0000002c T wpa_parse_wpa_ie_rsnxe
40155658 0000002c t x509_valid_issuer
400dfb88 0000002c t _ZN16embassy_executor3raw4util19UninitCell$LT$T$GT$14write_in_place17h695fe88945785c5aE
400f16d0 0000002c t _ZN4core4cell22panic_already_borrowed17hf3b1af380bdeb115E
400f16fc 0000002c t _ZN4core4cell30panic_already_mutably_borrowed17h4a05a7215b94019aE
4014cc44 0000002d T eap_fast_get_pac
400ff9c8 0000002d T esp_wifi_free_internal_heap
40080ba8 0000002d T __level_4_interrupt
40080bd8 0000002d T __level_5_interrupt
40080c08 0000002d T __level_6_interrupt
40080c38 0000002d T __level_7_interrupt
40151514 0000002d t mp_mul
40116a34 0000002d T nan_tx_queued_action_frames
40134444 0000002d T pm_beacon_timestamp_statistic
40135548 0000002d T pm_enable_sta_disconnected_power_management
4015518c 0000002d T pp_gettid
401367b0 0000002d T rcClearCurSched
4011ffa0 0000002d T scan_remove_probe_ssid
4013bc60 0000002d T wpa_ap_get_wpa_ie
4013bdd8 0000002d T wpa_ap_rx_eapol
400f34cc 0000002d t _ZN16embassy_executor3raw5waker4wake17hef51478cf5effa49E
400fb198 0000002d t _ZN8esp_wifi4wifi10os_adapter12mutex_delete17h613a245412b1a500E
400fb3d0 0000002d t _ZN8esp_wifi4wifi10os_adapter12queue_delete17he871d112f3d1915fE
400fcbd4 0000002d t _ZN8esp_wifi4wifi10os_adapter4rand17hde0487f818877925E
40150ad4 0000002e T asn1_get_oid
40142654 0000002e T crypto_private_key_import
4014b87c 0000002e t eap_ttls_encrypt_response
401260b4 0000002e T esp_wifi_sta_connect_internal
401529a0 0000002e T generate_authenticator_response
4010c2b4 0000002e T ieee80211_setup_pmf
4014e5a8 0000002e T pmksa_cache_deinit
400855e8 0000002e T ppProcessRxPktHdr
4012fe70 0000002e T ram_txcal_work_mode
400efcc0 0000002e t _RNvCs6MjFWaQOJWH_7___rustc9___rdl_oom
40084670 0000002e T wdev_is_data_in_rxlist
401144e0 0000002e T wifi_get_macaddr
40155918 0000002e T wpa_cipher_valid_pairwise
4013ff68 0000002e T x509_certificate_free
400f301c 0000002e t _ZN6subtle9black_box17h38e2476b87a487eaE
4010a7b0 0000002e T _ZN83_$LT$$RF$mut$u20$I$u20$as$u20$core..iter..traits..exact_size..ExactSizeIterator$GT$3len17h748e6601cc771210E
400ffac4 0000002f T fclose
4012b180 0000002f T i2c_bias_init
4011fa08 0000002f T ieee80211_regdomain_is_active_scan
401171c4 0000002f T nan_dp_send_terminated_event
40118590 0000002f T nan_naf_txcb
40118410 0000002f T nan_parse_ndp_terminate
4011a3fc 0000002f T nan_send_replied_event
4015325c 0000002f t pkcs5_is_oid
40135ff8 0000002f T ppDisableQueue
401209e8 0000002f T scan_reset_cipher_and_akm
40114bf4 0000002f T wpa_crypto_funcs_init
40081468 0000002f t _ZN15esp_hal_embassy4init19software3_interrupt17h4f5e75f1f51c21a8E
400dfbb4 0000002f t _ZN16embassy_executor3raw4util19UninitCell$LT$T$GT$14write_in_place17hfe6a5b3b2732fa4cE
400fddc4 0000002f t _ZN8esp_wifi4wifi10os_adapter11wifi_malloc17h7929daae122a045fE
3ffc8c10 00000030 B assoc_ie_buf
401267a0 00000030 T chm_end_op
4011aafc 00000030 T cleanup_peer_list
3f410fd4 00000030 r CSWTCH$133
4014e210 00000030 T eap_fast_tlv_eap_payload
4014b07c 00000030 T eap_peer_tls_derive_key
4013b130 00000030 t esp_client_enable_fn
4013bb10 00000030 T esp_eap_client_set_ttls_phase2_method
40089e8c 00000030 T get_i2c_write_data
4010d1bc 00000030 T hostap_delete_ptk
4011c6c0 00000030 T ieee80211_add_rates
40126538 00000030 T ieee80211_register_hostap_timer
3ffb17f4 00000030 D lmacConfMib
40116f58 00000030 T nan_sched_avail_entries_len
4013fc64 00000030 t parse_uint2
3f412b50 00000030 r pc2
40147be0 00000030 t pmksa_cache_expire
40154acc 00000030 T snprintf
4013e91c 00000030 T tls_prf
40146468 00000030 T wpa_auth_sta_deinit
4015049c 00000030 T wpa_gen_rsnxe
4014ebe0 00000030 T wpa_sm_set_pmk_from_pmksa
3f40e32c 00000030 r _ZN3log15LOG_LEVEL_NAMES17h00fe2219faae7a2cE
3ffc84a4 00000030 b _ZN8esp_wifi4wifi9wifi_init10NVS_STRUCT17h9a4b03f9f017a7f4E
4012858c 00000031 T cnx_auth_timeout_process
40128e74 00000031 T cnx_sta_pm
4010aac4 00000031 W __divsf3
40149444 00000031 T eap_get_config_blob
4014b71c 00000031 t eap_ttls_getKey
4013c1e0 00000031 T esp_supplicant_common_init
400fd7fc 00000031 T ets_timer_arm_us
4011d7dc 00000031 T ieee80211_get_robustmgtframe
40110e74 00000031 T ieee80211_ht_updatehtcap
4014385c 00000031 T md5_vector
40116d00 00000031 T nan_sched_in_ndc_slot
40133c34 00000031 T pm_disconnected_wake
40154edc 00000031 T scan_fill_wps_scan_ie
40144bf0 00000031 T sha1_vector
4013d194 00000031 t tls_process_certificate_status_ocsp_response
4013785c 00000031 T wDev_Get_Next_TBTT
40137bf0 00000031 T wdev_set_promis_ctrl_pkt
40155a00 00000031 t WPA_PUT_BE64
400d7bb4 00000031 t _ZN13generic_array5impls89_$LT$impl$u20$core..clone..Clone$u20$for$u20$generic_array..GenericArray$LT$T$C$N$GT$$GT$5clone17h3bdf9c39864121a8E
400d7be8 00000031 t _ZN13generic_array5impls89_$LT$impl$u20$core..clone..Clone$u20$for$u20$generic_array..GenericArray$LT$T$C$N$GT$$GT$5clone17h59b0c0432ae1ef0cE
400f3628 00000031 t _ZN42_$LT$$RF$T$u20$as$u20$core..fmt..Debug$GT$3fmt17h6908601bbdf7a96bE
400f00e8 00000031 t _ZN4core3fmt3num3imp54_$LT$impl$u20$core..fmt..Display$u20$for$u20$usize$GT$3fmt17hd62904aa6d0f58d0E
400f2eb8 00000031 t _ZN4core3fmt3num53_$LT$impl$u20$core..fmt..LowerHex$u20$for$u20$u32$GT$3fmt17heb8cee4a017f9110E
400ff2a4 00000031 t _ZN4core3ptr48_$LT$impl$u20$core..fmt..Debug$u20$for$u20$F$GT$3fmt17hea8a33db4c93095aE
400ff2d8 00000031 t _ZN50_$LT$$BP$mut$u20$T$u20$as$u20$core..fmt..Debug$GT$3fmt17h2dbdca640c0a9507E
400fa68c 00000031 t _ZN57_$LT$esp_println..Printer$u20$as$u20$core..fmt..Write$GT$9write_str17hcd03b541db5b540eE
400f1d8c 00000031 t _ZN65_$LT$core..net..ip_addr..Ipv4Addr$u20$as$u20$core..fmt..Debug$GT$3fmt17h0301b8942b0a95a4E
400fdea4 00000031 t _ZN8esp_wifi4wifi10os_adapter11wifi_zalloc17h6c3d5d1c8eb35e2eE
400fdd5c 00000031 t _ZN8esp_wifi4wifi10os_adapter15calloc_internal17h3479269565f58033E
400fdd90 00000031 t _ZN8esp_wifi4wifi10os_adapter15zalloc_internal17hc1225940071df4b2E
4014caac 00000032 t eap_fast_get_status
40149db8 00000032 t eap_peap_get_status
4011c9a0 00000032 T ieee80211_vnd_lora_ie_set
40089404 00000032 T phy_set_bbfreq_init
40154a98 00000032 T sprintf
401226c0 00000032 T sta_michael_mic_failure
4013ec34 00000032 T tlsv1_cred_free
4014824c 00000032 T wpa_compare_rsn_ie
4014766c 00000032 T wpa_write_rsnxe
40155684 00000032 T x509_sha1_oid
400f09c0 00000032 t _ZN42_$LT$$RF$T$u20$as$u20$core..fmt..Debug$GT$3fmt17h13220d94613237b6E
4010fed0 00000033 T ampdu_free_rx_ba_index
4010bb44 00000033 T esp_wifi_internal_on_coex_schm_phase
4010bb0c 00000033 T esp_wifi_internal_on_coex_start
40084884 00000033 T hal_mac_deinit
4011f0dc 00000033 T ieee80211_psq_find_max_bss
4011bf68 00000033 T ieee80211_set_hmac_stop
40135594 00000033 T pm_coex_set_reconnect_policy
401367e0 00000033 T rcClearCurAMPDUSched
400fe80c 00000033 t _ZN42_$LT$$RF$T$u20$as$u20$core..fmt..Debug$GT$3fmt17h531ef410974a16a1E
400f35f4 00000033 t _ZN42_$LT$$RF$T$u20$as$u20$core..fmt..Debug$GT$3fmt17h5e1f303b5c36df0dE
400f365c 00000033 t _ZN42_$LT$$RF$T$u20$as$u20$core..fmt..Debug$GT$3fmt17hd70230a257615ef9E
400fa4fc 00000033 t _ZN44_$LT$$RF$T$u20$as$u20$core..fmt..Display$GT$3fmt17h0f7f683bc2cae7c7E
400f0958 00000033 t _ZN44_$LT$$RF$T$u20$as$u20$core..fmt..Display$GT$3fmt17h7418769cd01a995aE
400f0c08 00000033 t _ZN4core3fmt3num3imp52_$LT$impl$u20$core..fmt..Display$u20$for$u20$u32$GT$3fmt17h89fbb007eba0bf65E
400f098c 00000033 t _ZN59_$LT$core..fmt..Arguments$u20$as$u20$core..fmt..Display$GT$3fmt17h97663e3ee43f4e51E
400fa6fc 00000033 t _ZN62_$LT$esp_println..logger..EspEnvLogger$u20$as$u20$log..Log$GT$7enabled17h97e8740dc0e2595eE
4014c824 00000034 t eap_fast_parse_hex
4010b498 00000034 T esp_wifi_start
4011c89c 00000034 T ieee80211_add_csa
401111dc 00000034 T ieee80211_add_htcap_vendor
401117c0 00000034 T ieee80211_add_ie_vendor_esp_head
4010bce0 00000034 T ieee80211_freedom_inside_cb
40125fb0 00000034 T ieee80211w_get_igtk_from_keyidx
40154db8 00000034 T nan_all_wildcard_filter
40116d34 00000034 T nan_sched_is_peer_available
40152818 00000034 T nt_password_hash
4013043c 00000034 T ram_iq_est_disable
4008a90c 00000034 T ram_txbbgain_to_index
4013eb78 00000034 t search_tag
4013d040 00000034 T tlsv1_client_get_random
400f2fe8 00000034 t _ZN42_$LT$$RF$T$u20$as$u20$core..fmt..Debug$GT$3fmt17h3df0566beee5c9ebE
400e0b00 00000034 t _ZN4core3fmt5Write9write_fmt17h2ec715ad96075f03E
400fded8 00000034 t _ZN8esp_wifi4wifi10os_adapter17wifi_create_queue17h0e7ffe8c7ad40bfbE
40126830 00000035 T chm_acquire_lock
40149cc4 00000035 t eap_peap_get_session_id
4014b6e4 00000035 t eap_ttls_get_session_id
4013b92c 00000035 T esp_eap_client_clear_certificate_and_key
400fd378 00000035 T ets_timer_arm
40138a64 00000035 T hal_crypto_init
4011085c 00000035 T ieee80211_ht_node_cleanup
4011f284 00000035 T ieee80211_psq_is_buff_pkt
40089c78 00000035 T phy_bt_ifs_set
4008660c 00000035 T pm_disable_beacon_monitor_timer
40133d30 00000035 T pm_send_probe_start
401359ac 00000035 T ppDequeueTxQ
40154a60 00000035 T printf
40144f80 00000035 T sha256_init
4013be98 00000035 T wpa_config_bss
401501cc 00000035 T wpa_parse_wpa_ie
400f8254 00000035 t _ZN13esp_backtrace4arch9backtrace17h7388f6d98dc38d4aE
401011ac 00000035 t _ZN42_$LT$$RF$T$u20$as$u20$core..fmt..Debug$GT$3fmt17hc3cf2ec91dec3298E
400e0638 00000035 t _ZN44_$LT$$RF$T$u20$as$u20$core..fmt..Display$GT$3fmt17h9d9249d60e13ff24E
400f1c60 00000035 t _ZN53_$LT$core..fmt..Error$u20$as$u20$core..fmt..Debug$GT$3fmt17h8cbe5748aa844b8cE.114
400f8890 00000035 t _ZN60_$LT$esp_hal..fmt..NoneError$u20$as$u20$core..fmt..Debug$GT$3fmt17h91da178a7e487913E
400e1588 00000035 t _ZN67_$LT$hkdf..errors..InvalidPrkLength$u20$as$u20$core..fmt..Debug$GT$3fmt17h361bab85141a0e8cE
40101c34 00000035 t _ZN69_$LT$core..alloc..layout..LayoutError$u20$as$u20$core..fmt..Debug$GT$3fmt17h576e930d07757998E.593
400e1bec 00000035 t _ZN70_$LT$cipher..errors..StreamCipherError$u20$as$u20$core..fmt..Debug$GT$3fmt17h6ccd709bc2c18d5eE
400e1ec4 00000035 t _ZN74_$LT$embassy_executor..spawner..SpawnError$u20$as$u20$core..fmt..Debug$GT$3fmt17h7ea0b9e024a4852aE
400f403c 00000035 t _ZN74_$LT$smoltcp..iface..route..RouteTableFull$u20$as$u20$core..fmt..Debug$GT$3fmt17h2485d82083d65046E
40089e54 00000036 T chan_to_freq
4013b160 00000036 T esp_wifi_sta_enterprise_disable
4012b4f8 00000036 T get_rfrx_dcap_bt
4012739c 00000036 T ieee80211_cnx_attach
40154e64 00000036 T ieee80211_gettid
4011f724 00000036 T ieee80211_regdomain_get_country
4011c04c 00000036 T is_wapi_alloc_tx_buf
4011a954 00000036 T nan_get_service_by_id
4010b1b4 00000036 W net80211_softap_funcs_init
4014e300 00000036 t pmksa_cache_set_expiration
40133cf8 00000036 T pm_wake_up
40135e34 00000036 T pp_deattach
40146078 00000036 t wpa_group_gtk_init
40146ad0 00000036 T wpa_remove_ptk
401481c0 00000036 T wpa_use_aes_key_wrap
40148188 00000036 T wpa_use_akm_defined
400f8570 00000036 t _ZN13esp_backtrace4halt17ha3d3cc65b1863f7eE
400f9d2c 00000036 t _ZN15esp_hal_embassy11time_driver6DRIVER7handler17h786ad4576fcd0e16E
400fa654 00000036 t _ZN4core3fmt5Write9write_fmt17h01237ae104d06377E
400f102c 00000036 t _ZN4core3fmt5Write9write_fmt17h71b55992f747fd6bE
400f1be8 00000036 t _ZN4core3fmt5Write9write_fmt17h8965df54d2b5582aE
4014e240 00000037 T eap_fast_derive_master_secret
40125308 00000037 T esp_wifi_enable_sae_pk_only_mode_internal
40145cc8 00000037 T hostapd_get_psk
40132a2c 00000037 T ic_set_interrupt_handler
4011ed84 00000037 T ieee80211_pm_tx_null_process
4011f45c 00000037 T ieee80211_pwrsave_node_cleanup
4010bf50 00000037 T ieee80211_user_ie_init
4010b1f0 00000037 T net80211_funcs_init
4012a19c 00000037 T offchan_send_action_tx_status
40133aa4 00000037 T pm_enable_sleep_delay_timer
4014e338 00000037 t pmksa_cache_expire
4013c744 00000037 T tls_connection_encrypt
4013c548 00000037 T tls_connection_init
401383a8 00000037 T wDev_remove_KeyEntry
4010b848 00000037 T wifi_event_post
4010b888 00000037 T wifi_mesh_event_post
400f5bf8 00000037 t _ZN42_$LT$$RF$T$u20$as$u20$core..fmt..Debug$GT$3fmt17hf14ea89091296bacE
400f15a0 00000037 t _ZN4core5slice5index22slice_index_order_fail8do_panic7runtime17hf074385fa63bd5d9E
400f0590 00000037 t _ZN4core5slice5index24slice_end_index_len_fail8do_panic7runtime17h2c8b61c540a0674dE
400f0548 00000037 t _ZN4core5slice5index26slice_start_index_len_fail8do_panic7runtime17h247eefc07a9e0f57E
400f00b0 00000037 t _ZN4core9panicking18panic_bounds_check17h25102d32941375b7E
40089da8 00000038 T bt_track_tx_power
40128168 00000038 T cnx_connect_next_ap
40152320 00000038 T crypto_rsa_free
4010b720 00000038 T esp_wifi_get_config
4012524c 00000038 T esp_wifi_get_config_sae_pwe_h2e_internal
400ffa48 00000038 T fopen
3f410334 00000038 R gNanSm
40147350 00000038 T hostap_eapol_resend_process
4011c950 00000038 T ieee80211_vnd_ie_set
40138c54 00000038 T mac_tx_set_duration
3f412b90 00000038 r pc1
40147b40 00000038 t pmksa_cache_set_expiration
40136730 00000038 T rcGet11BHighestRateIdx
400ff804 00000038 T strnlen
3ffb1f28 00000038 D wDevCtrl
4011b5ac 00000038 T wifi_nvs_commit
4011b9b8 00000038 T wifi_nvs_validate_ap_password
401527dc 00000039 T challenge_hash
40127c38 00000039 T cnx_rc_search
401428b4 00000039 T crypto_hash_update
40155764 00000039 t gf_mulx
4008a798 00000039 T phy_wifi_enable_set
400f9d64 00000039 t _ZN15esp_hal_embassy11time_driver6DRIVER7handler17h2e5ac2f6b5c6fc86E
400f0d94 00000039 t _ZN4core5slice29_$LT$impl$u20$$u5b$T$u5d$$GT$15copy_from_slice17len_mismatch_fail8do_panic7runtime17hd933baf9034e737bE
40142fbc 0000003a T des3_encrypt
401493c8 0000003a T eap_peer_blob_deinit
4013baa0 0000003a T esp_eap_client_set_new_password
4013ba4c 0000003a T esp_eap_client_set_password
4013b8a8 0000003a T esp_wifi_sta_enterprise_enable
40138eb4 0000003a T hal_disable_mac
40111ee0 0000003a T ieee80211_alloc_challenge
4011f0a0 0000003a T ieee80211_gpsq_init
4011f508 0000003a T ieee80211_wme_updateparams
4008694c 0000003a T pm_check_state
4014e5d8 0000003a T pmksa_cache_get
40155428 0000003a T tls_client_highest_ver
401554a8 0000003a T tlsv1_client_set_cipher_list
40150844 0000003a T wpabuf_concat
4014e788 0000003a t wpa_sm_set_seq$constprop$0
4013bed0 0000003a T wpa_sta_connect
401555d8 0000003a t x509_id_kp_oid
400ff078 0000003a t _ZN105_$LT$esp_wifi..wifi..state..WifiState$u20$as$u20$core..convert..From$LT$esp_wifi..wifi..WifiEvent$GT$$GT$4from17heab068f2565e89b8E
400f9da0 0000003a t _ZN15esp_hal_embassy11time_driver6DRIVER7handler17h00a986b86ea18bf7E
400f9e18 0000003a t _ZN15esp_hal_embassy11time_driver6DRIVER7handler17h1366b775bcbef78eE
400f9e90 0000003a t _ZN15esp_hal_embassy11time_driver6DRIVER7handler17h36f154c8c6925235E
400f9e54 0000003a t _ZN15esp_hal_embassy11time_driver6DRIVER7handler17h745574f150c4a8daE
400f9ddc 0000003a t _ZN15esp_hal_embassy11time_driver6DRIVER7handler17hdce989249f53e0dfE
40149210 0000003b T eap_peer_config_deinit
40149c88 0000003b T eap_peer_mschapv2_register
4014b510 0000003b T eap_peer_tls_decrypt
4014b54c 0000003b T eap_peer_tls_encrypt
4014ae10 0000003b T eap_peer_tls_register
40152b6c 0000003b T old_nt_password_hash_encrypted_with_new_nt_password_hash
4008ac68 0000003b T phy_pwdet_onetime_en
40134ee8 0000003b T pm_disconnected_stop
40134dcc 0000003b T pm_on_coex_start
40155290 0000003b T rcSetTxAmpduLimit
40101cc4 0000003b t _ZN49_$LT$log..Level$u20$as$u20$core..fmt..Display$GT$3fmt17h06e3069ee1bcf4fdE
4010b42c 0000003c T esp_wifi_set_mode
40138b60 0000003c T hal_crypto_disable
401111a0 0000003c T ieee80211_add_htcap
4011135c 0000003c T ieee80211_add_htinfo
40125540 0000003c T ieee80211_set_key
40133884 0000003c T lmac_stop_hw_txq
4011534c 0000003c T wifi_wpa2_ent_disable_process
4011530c 0000003c T wifi_wpa2_ent_enable_process
400f2fac 0000003c t _ZN4core3fmt3num3imp52_$LT$impl$u20$core..fmt..Display$u20$for$u20$i32$GT$3fmt17h32273e60b10b9867E
400f4e60 0000003c t _ZN56_$LT$der..length..Length$u20$as$u20$core..fmt..Debug$GT$3fmt17ha3e28a1d9aec5200E.288
400fa6c0 0000003c t _ZN56_$LT$log..SetLoggerError$u20$as$u20$core..fmt..Debug$GT$3fmt17h8e6a462754071676E
40139a60 0000003d T hal_mac_get_txq_state
40145c88 0000003d T hostapd_setup_wpa_psk
401255b0 0000003d T ieee80211_set_gtk
40132ca4 0000003d T lmacInitAc
40149ea4 0000003d t peap_phase2_sufficient
4012f6f4 0000003d T phy_set_most_tpw
4013be58 0000003d T wpa_config_profile
400e0c3c 0000003d t _ZN4core3ptr143drop_in_place$LT$$LT$embassy_net..dns..DnsSocket$u20$as$u20$embedded_nal_async..dns..Dns$GT$..get_host_by_name..$u7b$$u7b$closure$u7d$$u7d$$GT$17hdac0b19160e3ca9aE
40101d78 0000003d t _ZN4core3str21_$LT$impl$u20$str$GT$12strip_prefix17h47ea871e0063ba9eE
40154c0c 0000003e T ampdu_dispatch_movement
40126c18 0000003e T chm_start_op
40081a68 0000003e T __default_double_exception
40081a28 0000003e T __default_interrupt
400819e8 0000003e T __default_user_exception
40148d14 0000003e T eap_get_phase2_type
40120fb8 0000003e T free_bss_info
4013864c 0000003e T hal_ba_session_store
4013376c 0000003e T lmacProcessTxTimeout
4012cbd8 0000003e T ram_phy_get_noisefloor
4010ab4c 0000003e W strlen
4013d094 0000003e T tlsv1_client_get_version
4013bcb4 0000003e T wpa_parse_wpa_ie_wrapper
400f30a4 0000003e t _ZN42_$LT$$RF$T$u20$as$u20$core..fmt..Debug$GT$3fmt17h9f3d11075e5e9f7cE
400f1c20 0000003e t _ZN4core6result13unwrap_failed17h5c23218e4cd4625dE
401495a4 0000003f t eap_mschapv2_getKey
401529fc 0000003f T get_master_key
4012ac68 0000003f T ieee80211_getmgtframe
4013e734 0000003f T tls_parse_cert
400fee8c 0000003f t _ZN4core3ptr111drop_in_place$LT$core..option..Option$LT$alloc..boxed..Box$LT$esp_wifi..compat..timer_compat..Timer$GT$$GT$$GT$17h0738e7ccf075dea7E
400fba20 0000003f t _ZN8esp_wifi4wifi10os_adapter11task_create17hd524e11243b7dc86E
400896b8 00000040 T bb_rst_en_set
401267f0 00000040 T chm_cancel_op
401521b8 00000040 t crypto_rsa_parse_integer
40142ff8 00000040 T des3_decrypt
4010b75c 00000040 T esp_wifi_set_ps
401528b4 00000040 T generate_nt_response
3ffc850c 00000040 B g_hmac_cnt
3f4131c3 00000040 r PADDING
40136278 00000040 T ppClearTxq
4012af20 00000040 T ram_wait_rfpll_cal_end
40145120 00000040 T sha256_vector
40145890 00000040 T sha512_vector
3ffc8b74 00000040 b s_sm_table
401253e4 00000040 T wifi_ap_pmf_enabled
4011b95c 00000040 T wifi_set_default_ssid
3f412fea 00000041 r base64_table
4013c448 00000041 T esp_wifi_build_rsnxe
401391b4 00000041 T hal_mac_set_rxq_policy
4011f190 00000041 T ieee80211_psq_take_head
40151280 00000041 t mp_add
401172e0 00000041 T nan_dp_remove_node
40145308 00000041 T sha384_vector
4011b9f0 00000041 T wifi_nvs_validate_sta_password
40150b4c 00000042 T asn1_bit_string_to_long
4014d0ec 00000042 T eap_fast_pac_list_truncate
4013b994 00000042 T esp_eap_client_set_identity
4013b9f0 00000042 T esp_eap_client_set_username
401252a8 00000042 T esp_wifi_sta_disable_wpa2_authmode_internal
40136768 00000042 T rcGetHighestRateIdx
4011fd08 00000042 T scan_reset_default_app_params
4013c4e8 00000042 T tls_init
40115004 00000042 T wifi_connect_process
40145f90 00000042 t wpa_auth_set_key$part$0
40155614 00000042 t x509_sha2_oid
400ff0b4 00000042 t _ZN62_$LT$esp_wifi..wifi..WifiEvent$u20$as$u20$core..fmt..Debug$GT$3fmt17h3e217e210512b0d5E
40138cf0 00000043 T hal_now
4008985c 00000043 T phy_en_hw_set_freq
4013e67c 00000043 T tlsv1_client_send_alert
400e12f8 00000043 t _ZN52_$LT$httparse..Error$u20$as$u20$core..fmt..Debug$GT$3fmt17h7aedfae811db80a9E
400ff7c0 00000043 t _ZN58_$LT$esp_hal..timer..Error$u20$as$u20$core..fmt..Debug$GT$3fmt17h453e12047d71897aE.517
400f8d24 00000043 t _ZN64_$LT$esp_hal..system..Peripheral$u20$as$u20$core..fmt..Debug$GT$3fmt17he1d72fcc20e93717E
4014e16c 00000044 T eap_peer_fast_register
4010b668 00000044 T esp_wifi_connect
400ffa80 00000044 T fgets
4013346c 00000044 T lmacProcessCollisions_task
4014c75c 00000044 T mschapv2_verify_auth_response
40117b84 00000044 T nan_send_ndp_confirm
40147e34 00000044 t wpa_selector_to_bitfield
4013fbf4 00000044 t x509_id_wfa_tod_oid
40108868 00000044 t _ZN7smoltcp4wire3dns15Packet$LT$T$GT$5rcode17h51408ce95e663393E
40126c5c 00000045 T chm_return_home_channel
4010b970 00000045 T esp_wifi_vnd_lora_disable
40134474 00000045 T pm_is_in_wifi_slice_threshold
4010a740 00000045 T Reset
4010b14c 00000045 T wifi_osi_funcs_register
401558a4 00000045 T wpa_cipher_key_len
40145dec 00000045 t wpa_gmk_to_gtk
4014fe9c 00000045 T wpa_sm_set_assoc_rsnxe
400e0140 00000045 t _ZN42_$LT$$RF$T$u20$as$u20$core..fmt..Debug$GT$3fmt17h07dde93ed689ccaaE
400e0188 00000045 t _ZN42_$LT$$RF$T$u20$as$u20$core..fmt..Debug$GT$3fmt17h1a37bebc6039f02dE
400e05f0 00000045 t _ZN42_$LT$$RF$T$u20$as$u20$core..fmt..Debug$GT$3fmt17hf5d6f460caa5b0f7E
40148994 00000046 t aes_gcm_ghash
40151e18 00000046 T bignum_mulmod
401285f4 00000046 T cnx_handshake_timeout_process
40155b2c 00000046 T eap_hdr_len_valid
4013b4c0 00000046 T eap_sm_send_eapol
4014b988 00000046 t eap_ttls_deinit
4013b8e4 00000046 T esp_eap_client_set_certificate_and_key
40125348 00000046 T esp_wifi_sta_disable_owe_trans_internal
4008a8c4 00000046 T get_target_power_offset
401117f4 00000046 T ieee80211_add_ie_vendor_esp_manufacturer
4011f494 00000046 T ieee80211_pwrsave_txcb
40086a0c 00000046 T pm_beacon_monitor_timeout_process
40137400 00000046 T rcAttach
401364fc 00000046 T RC_GetBlockAckTime
4010ac40 00000046 T wifi_api_lock
40146324 00000046 t wpa_rekey_gtk
40150b04 00000047 T asn1_oid_to_str
4014b670 00000047 T eap_peer_tls_phase2_nak
4008ae14 00000047 T get_rate_target_power
4008bee0 00000047 T hal_mac_rx_get_end_info
401226fc 00000047 T ieee80211_wme_standard_ac_to_esp_ac
4011a4b4 00000047 T nan_send_static_sdfs
40133b04 00000047 T pm_enable_disconnected_sleep_delay_timer
4011be5c 00000047 T wifi_nvs_deinit
40149ee4 00000048 t eap_peap_deinit
4014adc8 00000048 t eap_tls_init
401459a4 00000048 T eloop_init
40125d0c 00000048 T esp_wifi_get_sta_key_internal
40125ff8 00000048 T esp_wifi_register_mgmt_frame_internal
3ffc88a0 00000048 B g_pm_cnt
4008806c 00000048 t i2c_bbpll_init$part$0
4011dfbc 00000048 T ieee80211_alloc_deauth
40154c4c 00000048 T ieee80211_is_support_rate
40150c70 00000048 t mp_init_size
4015176c 00000048 t mp_mod
401512c4 00000048 t mp_sub
40117dec 00000048 T nan_dp_chan_from_bitmap
4011a3b4 00000048 T nan_send_discovery_result
3ffb1c80 00000048 D rc11BSchedTbl
401477c8 00000048 T wpa_add_kde
4008a244 00000048 T wr_bt_tx_atten
400f15d8 00000048 t _ZN60_$LT$core..cell..BorrowError$u20$as$u20$core..fmt..Debug$GT$3fmt17ha849070c621d1f8dE
400f1688 00000048 t _ZN63_$LT$core..cell..BorrowMutError$u20$as$u20$core..fmt..Debug$GT$3fmt17h071948f8633d5119E
401098f0 00000048 t _ZN7smoltcp4wire6dhcpv415Packet$LT$T$GT$6opcode17hbcaa41aaa161bbddE
4010bc94 00000049 T esp_mesh_get_running_active_duty_cycle
40110650 00000049 T ieee80211_ampdu_start_age_timer
4010cdd8 00000049 W ieee80211_free_beacon_eb
40150bdc 00000049 t mp_rshd
4013f208 00000049 t ocsp_responder_id_match
4008d33c 00000049 T ppDirectRecycleAmpdu
401356d8 00000049 T ppRegisterTxCallback
401364b0 00000049 T RC_GetCtsTime
4013ccdc 00000049 T tlsv1_client_init
40150880 00000049 t _wpa_snprintf_hex$constprop$0
4010a3e8 00000049 t _ZN84_$LT$smoltcp..wire..tcp..SeqNumber$u20$as$u20$core..ops..arith..Add$LT$usize$GT$$GT$3add17he61ac78b85574569E
401001b8 00000049 t _ZN8esp_wifi4wifi5state15AtomicWifiState10from_usize17h5a2646611a7707a0E
40147d4c 0000004a T ap_sta_add
40152868 0000004a T challenge_response
40148e00 0000004a T eap_peer_method_register
40132114 0000004a T esf_buf_setup_static
4010b7a0 0000004a T esp_wifi_set_country
4010bbc0 0000004a T esp_wifi_set_inactive_time
4013c3e0 0000004a T hostapd_cleanup
40154afc 0000004a T ieee80211_is_robust_mgmt_frm
400825f4 0000004a T lmacAdjustTimestamp
40155e64 0000004a t mp_cmp_mag
40148280 0000004a T rsn_pmkid
40146b08 0000004a t sm_WPA_PTK_INITIALIZE_Enter$constprop$0
40154fa4 0000004a t spur_cal$part$8
40085f24 0000004a T sta_reset_beacon_timeout
4013cd28 0000004a T tlsv1_client_deinit
4013c050 0000004a T wpa_ether_send
400f5dec 0000004a t _ZN12embedded_tls6buffer12CryptoBuffer3set17h597415aa2d82262eE
400e00f4 0000004a t _ZN41_$LT$bool$u20$as$u20$core..fmt..Debug$GT$3fmt17h4f51b4241f1e55a6E
400f242c 0000004a t _ZN43_$LT$bool$u20$as$u20$core..fmt..Display$GT$3fmt17h0d9837d66ceb8b3aE
4010a434 0000004a t _ZN71_$LT$smoltcp..wire..tcp..SeqNumber$u20$as$u20$core..ops..arith..Sub$GT$3sub17h59b1c0c1672061d8E
40100fbc 0000004b T gettimeofday
4008b890 0000004b T lmacProcessRxSucData
40117120 0000004b T nan_dp_send_indication_event
4013eb2c 0000004b t tlsv1_add_cert_der
4013eefc 0000004b T tlsv1_record_change_read_cipher
4013eeb0 0000004b T tlsv1_record_change_write_cipher
4011ba88 0000004b T wifi_nvs_validate_ap_chan
400f1464 0000004b t _ZN62_$LT$core..char..EscapeDebug$u20$as$u20$core..fmt..Display$GT$3fmt17h2b16ee35feebfc57E
400e15c0 0000004b t _ZN68_$LT$embedded_tls..alert..AlertLevel$u20$as$u20$core..fmt..Debug$GT$3fmt17h22c93a5774d43ac4E
400e1cd0 0000004b t _ZN70_$LT$esp_hal..interrupt..xtensa..Error$u20$as$u20$core..fmt..Debug$GT$3fmt17hcff0f43b17d25dbcE
4010a6cc 0000004b t _ZN76_$LT$xtensa_lx_rt..exception..ExceptionCause$u20$as$u20$core..fmt..Debug$GT$3fmt17hd67898e547a75487E
400efc74 0000004b t _ZN77_$LT$alloc..raw_vec..RawVec$LT$T$C$A$GT$$u20$as$u20$core..ops..drop..Drop$GT$4drop17h9b697b32291a8463E
40103024 0000004b t _ZN80_$LT$p256..arithmetic..field..FieldElement$u20$as$u20$subtle..ConstantTimeEq$GT$5ct_eq17h1f39bbf3369c9396E
40121774 0000004c T check_bss_queue
4011f6d8 0000004c T ieee80211_is_40mhz_valid_bw
401515d8 0000004c t mp_clear_multi
4011ab40 0000004c T nan_services_deinit
400896fc 0000004c T phy_dis_hw_set_freq
40087f10 0000004c T pm_connectionless_wake_window_timeout_process
40133e28 0000004c T pm_wake_done
4013e94c 0000004c T tlsv12_key_x_server_params_hash
4013dd78 0000004c t tls_write_client_change_cipher_spec
400f4b0c 0000004c t _ZN4sec15point24EncodedPoint$LT$Size$GT$3tag17h98b4afe6b094c71cE
400824f8 0000004d T cnx_node_is_existing
40127524 0000004d T cnx_obss_scan_timeout
40132c54 0000004d T lmacSetAcParam
40118614 0000004d T nan_dp_init
40133bc0 0000004d T pm_send_nullfunc
4008ccd4 0000004d T ppRecycleRxPkt
40136f34 0000004d T TRC_PER_IS_GOOD
4014ee7c 0000004d T wpa_sm_init
400f7e6c 0000004d t _ZN42_$LT$$RF$T$u20$as$u20$core..fmt..Debug$GT$3fmt17h8bd88195964c5f06E
4010f66c 0000004e W add_mic_ie_bip
40142f6c 0000004e T des3_key_setup
40125734 0000004e T esp_wifi_get_assoc_bssid_internal
4010b7f0 0000004e T esp_wifi_internal_reg_rxcb
40119670 0000004e T nan_schedule_disc_bcn
40085ac8 0000004e T rc_get_trc
40146210 0000004e t wpa_group_config_group_keys
401500fc 0000004e T wpa_sm_drop_sa
4014fe4c 0000004e T wpa_sm_set_ap_rsnxe
401006a0 0000004e t _ZN10num_traits4cast13FromPrimitive8from_i3217hf257bb1ee62b0b83E
400f5d28 0000004e t _ZN12embedded_tls6buffer12CryptoBuffer4push17h3eb4ed91a2761c98E
400f828c 0000004e t _ZN13esp_backtrace4arch2sp17h8ef23edcf812cb05E
400ff9f8 0000004f T fwrite
400847e4 0000004f T hal_mac_tx_get_blockack
4011f1d4 0000004f T ieee80211_psq_drop_one_pkt
401185c4 0000004f T nan_sched_init_availability
4012b12c 0000004f T phy_freq_correct_opt
40135ed0 0000004f T ppEnableQueue
401552e4 0000004f T rcUpdateAckSnr
40140018 0000004f T x509_parse_algorithm_identifier
400f33a0 0000004f t _ZN66_$LT$der..tag..number..TagNumber$u20$as$u20$core..fmt..Display$GT$3fmt17h027e298160e349b1E
4012670c 00000050 T chm_mhz2num
4014b768 00000050 t eap_ttls_init_for_reauth
40139b04 00000050 T hal_mac_get_txq_pmd
40132498 00000050 T ic_get_key
4010c238 00000050 T ieee80211_find_elem_match
4011c088 00000050 T ieee80211_wapi_alloc_tx_buf
3f413208 00000050 r pow10$0
40155134 00000050 T ppCheckIsConnTraffic
400892f0 00000050 T reg_init_begin
40146260 00000050 t sm_WPA_PTK_AUTHENTICATION2_Enter$constprop$0
40114560 00000050 T wifi_reset_mac
400f9678 00000050 t _ZN69_$LT$esp_hal..timer..timg..Timer$u20$as$u20$esp_hal..timer..Timer$GT$4stop17h91ed20c65c4db9cdE
400f891c 00000050 t _ZN7esp_hal6system22PeripheralClockControl13enable_forced17h9482a59d6a30856bE
40108818 00000050 t _ZN7smoltcp4wire3dns15Packet$LT$T$GT$6opcode17h651e8f39921e5b9eE
40108554 00000050 t _ZN7smoltcp7storage11ring_buffer19RingBuffer$LT$T$GT$17dequeue_allocated17h061ef322ec9f599bE
4014cb34 00000051 t eap_fast_session_ticket_cb
40149604 00000051 t eap_mschapv2_init
4014593c 00000051 t eloop_remove_timeout
401175f8 00000051 T nan_dp_confirm_peer
400f0444 00000051 t _ZN4core3fmt9Formatter12pad_integral12write_prefix17h21333576657d0522E
40108500 00000051 t _ZN7smoltcp6socket3tcp6Socket9set_state17h616c1e8e18b77730E
40108f30 00000051 t _ZN7smoltcp7storage11ring_buffer19RingBuffer$LT$T$GT$16enqueue_one_with17h213173667f4bc8c3E
401281a8 00000052 T cnx_start_handoff_cb
40125d58 00000052 T esp_wifi_set_appie_internal
40125e20 00000052 T esp_wifi_sta_wpa2_ent_disable_internal
40125dc8 00000052 T esp_wifi_sta_wpa2_ent_enable_internal
401113a0 00000052 T ieee80211_add_htinfo_vendor
4010aaf8 00000052 W __multi3
4011a5f8 00000052 T nan_sd_parse_availability
4013cf68 00000052 T tlsv1_client_shutdown
40145d30 00000052 t wpa_free_sta_sm
400fe7b8 00000052 t _ZN66_$LT$core..option..Option$LT$T$GT$$u20$as$u20$core..fmt..Debug$GT$3fmt17h1307b1378a4f0265E
400f9ecc 00000052 t _ZN7esp_hal4sync24GenericRawMutex$LT$L$GT$4lock17h768959c1c1674bfdE
40152504 00000053 t aes_ccm_auth
4014cae0 00000053 t eap_fast_tlv_result
40139aac 00000053 T hal_mac_clr_txq_state
40150da8 00000053 t mp_grow
40087ba8 00000053 T pm_handle_tbtt_interval
4013bfec 00000053 T wpa_alloc_eapol
401467ac 00000053 t wpa_send_eapol
4013bd78 00000053 t wpa_sta_disconnected_cb
400e1c7c 00000053 t _ZN70_$LT$core..result..Result$LT$T$C$E$GT$$u20$as$u20$core..fmt..Debug$GT$3fmt17hd50bd683044872adE
400f88c8 00000053 t _ZN7esp_hal4sync18LockGuard$LT$L$GT$3new17hfccd1b557b000259E
400f95c8 00000053 t _ZN7esp_hal5timer4timg5Timer13reset_counter17he181f737d975dbc3E
401259a0 00000054 T esp_wifi_ap_deauth_internal
40138dd0 00000054 T hal_mac_enable_low_rate
3f413088 00000054 r magic2$1
3f4130dc 00000054 r magic3$2
400860f4 00000054 T pm_sleep_for
4013c67c 00000054 T tls_connection_get_eap_fast_key
4011ba34 00000054 T wifi_nvs_validate_country
401481f8 00000054 T wpa_eapol_key_mic
400f84c0 00000054 t _ZN13esp_backtrace5abort17h71aef945d8be3933E
400f35a0 00000054 t _ZN42_$LT$$RF$T$u20$as$u20$core..fmt..Debug$GT$3fmt17h68ee227969021d24E
400e0860 00000054 t _ZN4core3fmt3num49_$LT$impl$u20$core..fmt..Debug$u20$for$u20$u8$GT$3fmt17hed50e978b0869095E
400e1e18 00000054 t _ZN70_$LT$heapless..string..String$LT$_$GT$$u20$as$u20$core..fmt..Write$GT$9write_str17h6966f5a126166470E
3ffc83dc 00000054 b _ZN8esp_wifi14common_adapter13chip_specific20SOC_PHY_DIG_REGS_MEM17h39c1f7d71fbf38a0E
400ff0f8 00000054 t _ZN92_$LT$esp_wifi..preempt_builtin..BuiltinScheduler$u20$as$u20$esp_wifi..preempt..Scheduler$GT$22schedule_task_deletion17h7d8ddc2fc60ddfbfE
40155dc0 00000055 T cipher_type_map_public_to_supp
40134a94 00000055 T pm_send_probe_stop
4008d10c 00000055 T ppProcessWaitingQueue
401314ec 00000055 T ram_meas_tone_pwr_db
40115050 00000055 T wifi_disconnect_process
400f4074 00000055 t _ZN12embassy_sync9waitqueue18waker_registration17WakerRegistration8register17h40be9f48a641f733E
400f33f0 00000055 t _ZN42_$LT$$RF$T$u20$as$u20$core..fmt..Debug$GT$3fmt17h3e5fcdb7304dbfb0E
400f1e44 00000055 t _ZN42_$LT$$RF$T$u20$as$u20$core..fmt..Debug$GT$3fmt17he658fd37c7bcfe24E
400e0aa8 00000055 t _ZN4core3fmt3num52_$LT$impl$u20$core..fmt..Debug$u20$for$u20$usize$GT$3fmt17h8c624e28a34d62acE
400fa940 00000055 t _ZN64_$LT$core..str..error..Utf8Error$u20$as$u20$core..fmt..Debug$GT$3fmt17h119531337d94ca06E.495
400f4e08 00000055 t _ZN66_$LT$core..option..Option$LT$T$GT$$u20$as$u20$core..fmt..Debug$GT$3fmt17h1ec66e20ae26b021E
400f3fe4 00000055 t _ZN66_$LT$core..option..Option$LT$T$GT$$u20$as$u20$core..fmt..Debug$GT$3fmt17h7380ac7287535c9eE
400f932c 00000055 t _ZN7esp_hal9interrupt15InterruptStatus3set17h338d4a36b76e7855E
40100424 00000055 t _ZN8esp_wifi4wifi7embassy83_$LT$impl$u20$embassy_net_driver..Driver$u20$for$u20$esp_wifi..wifi..WifiDevice$GT$8transmit17h10d5b1aeaa6be21eE
40151d64 00000056 T bignum_set_unsigned_bin
40127444 00000056 T cnx_can_do_obss_scan
4008a180 00000056 T disable_wifi_agc
401251f0 00000056 T esp_wifi_get_pmf_config_internal
4011c718 00000056 T ieee80211_add_xrates
40154ccc 00000056 T nan_dp_alloc_ndp
4012f88c 00000056 T phy_disable_low_rate
4012f834 00000056 T phy_enable_low_rate
40135f24 00000056 T ppTxqEmpty
40137450 00000056 T rc_disable_trc
4013adc8 00000056 T wpa_get_ntp_timestamp
4014efa8 00000056 T wpa_set_pmk
400f6614 00000056 t _ZN12embedded_tls12parse_buffer11ParseBuffer4fill17hd735e12c4de94256E
40101bdc 00000056 t _ZN21linked_list_allocator4hole8HoleList12align_layout17h02aae243ac275949E
40101c6c 00000056 t _ZN21linked_list_allocator8align_up17h80f9af126a09bca1E
400f304c 00000056 t _ZN42_$LT$$RF$T$u20$as$u20$core..fmt..Debug$GT$3fmt17h0e2e54d776967423E
40105d80 00000056 t _ZN44_$LT$$RF$T$u20$as$u20$core..fmt..Display$GT$3fmt17h390d8bd4ea83de2cE
400e1c24 00000056 t _ZN70_$LT$core..result..Result$LT$T$C$E$GT$$u20$as$u20$core..fmt..Debug$GT$3fmt17h3ad731b1f8f48c6fE
4010a198 00000056 t _ZN7smoltcp6socket5waker17WakerRegistration8register17hf8d889debedb48c9E
40138d74 00000057 T hal_mac_disable_low_rate
40084754 00000057 T hal_mac_tx_config_edca
40089284 00000057 T i2c_master_reset
401329d0 00000057 T ic_init
4011716c 00000057 T nan_dp_send_confirm_event
4008cdb4 00000057 T ppEnqueueTxDone
4013d0d4 00000057 t tls_process_server_hello_done
400844dc 00000057 T wdev_mac_reg_load
40084534 00000057 T wdev_mac_reg_store
4010c110 00000057 T wifi_destroy_nan
400fa5fc 00000057 t _ZN11esp_println7Printer11write_bytes17h8d30d795bf35e575E
400f5f10 00000057 t _ZN12embedded_tls6buffer12CryptoBuffer12as_mut_slice17hebad40734019f667E
400f5f68 00000057 t _ZN12embedded_tls6buffer12CryptoBuffer8as_slice17h3e0c01a41776b0f5E
400fa7e8 00000057 t _ZN42_$LT$$RF$T$u20$as$u20$core..fmt..Debug$GT$3fmt17h8cdabf98869f3ff2E
400f4be0 00000057 t _ZN42_$LT$$RF$T$u20$as$u20$core..fmt..Debug$GT$3fmt17he8e18a13f0908fdeE
400e14b4 00000057 t _ZN62_$LT$smoltcp..wire..ipv4..Cidr$u20$as$u20$core..fmt..Debug$GT$3fmt17h7aff6e49d0014c86E
400e1e6c 00000057 t _ZN70_$LT$heapless..vec..Vec$LT$T$C$_$GT$$u20$as$u20$core..clone..Clone$GT$5clone17h315f9376b1543211E
40145ae4 00000058 T eloop_cancel_timeout
4013c09c 00000058 T hostapd_send_eapol
4011d874 00000058 T ieee80211_disassoc_construct
40154e0c 00000058 W ieee80211_is_bufferable_mmpdu
401331bc 00000058 T lmacProcessCtsTimeout
4013c0f4 00000058 T wpa_supplicant_transition_disable
400f3448 00000058 t _ZN42_$LT$$RF$T$u20$as$u20$core..fmt..Debug$GT$3fmt17haea9f9fb91645487E
400f8838 00000058 t _ZN7esp_hal5clock6Clocks3get17h0c3b44d762e9e708E
3ffc7c9c 00000058 b _ZN7esp_hal6system20PERIPHERAL_REF_COUNT17h6a4899ca59dd8b96E
4013927c 00000059 T hal_deinit
40139bf4 00000059 T hal_mac_rate_autoack_init
40139658 00000059 T hal_mac_tsf_set_time
4011d814 00000059 T ieee80211_deauth_construct
40150fdc 00000059 t mp_lshd
40134cd0 00000059 T pm_active_timeout_process
4014e614 00000059 T pmksa_cache_get_opportunistic
4008a0c0 00000059 T ram_write_gain_mem
401370d8 00000059 T TRC_AMPDU_PER_UP_THRESHOLD
4008aee0 00000059 T write_wifi_dig_gain
400f236c 00000059 t _ZN4core3fmt9Formatter25debug_tuple_field1_finish17had0ac37a95bc2ff7E
400efcf0 00000059 t _ZN5alloc5slice64_$LT$impl$u20$alloc..borrow..ToOwned$u20$for$u20$$u5b$T$u5d$$GT$8to_owned17hd807efbbfaeb5839E
400f7cbc 00000059 t _ZN9esp_alloc10HeapRegion3new17h7f0e62d0eced2989E
40145c2c 0000005a T eloop_destroy
4013bb40 0000005a T esp_eap_client_set_pac_file
401488bc 0000005a t gf_mult
40118738 0000005a T nan_dp_indicate_faw_start
40087eb4 0000005a T pm_connectionless_wake_interval_timeout_process
40134e8c 0000005a T pm_disconnected_start
401374c8 0000005a T rc_get_trc_by_index
401559a4 0000005a T wpa_cipher_put_suites
40155804 0000005a T wpa_res_to_status_code
400f8464 0000005a t _ZN13esp_backtrace13pre_backtrace17he3df0b9f23f2fbe9E
400f8514 0000005a t _ZN13esp_backtrace14set_color_code17hf4d6d62272c818a0E
400f1a68 0000005a t _ZN86_$LT$core..net..display_buffer..DisplayBuffer$LT$_$GT$$u20$as$u20$core..fmt..Write$GT$9write_str17h8e34c6230aeb4f89E
40121000 0000005b T clear_bss_queue
4013c48c 0000005b T esp_send_assoc_resp
4011edc8 0000005b T ieee80211_phy_type_get
40083338 0000005b T ppCalFrameTimes
4008cd24 0000005b T pp_coex_tx_release
40155948 0000005b T rsn_cipher_put_suites
4012fe14 0000005b T txcal_debuge_mode
4011538c 0000005b T wifi_ipc_process
400f5e38 0000005b t _ZN12embedded_tls6buffer12CryptoBuffer7set_u1617h5e6b0e4997ffc8adE
400f2218 0000005b t _ZN4core3fmt9Formatter26debug_struct_field1_finish17h983e9a3cd17ab06aE
400f9798 0000005b t _ZN69_$LT$esp_hal..timer..timg..Timer$u20$as$u20$esp_hal..timer..Timer$GT$16enable_interrupt17h8e4378c5a45d5a85E
400f961c 0000005b t _ZN7esp_hal5timer4timg5Timer16set_alarm_active17hc47a00134aa8062aE
400849ac 0000005c T ampdu_dispatch
401273d8 0000005c T _cnx_start_connect_without_scan
40149d14 0000005c t eap_peap_init_for_reauth
4014aac8 0000005c T eap_peer_peap_register
4014c640 0000005c T eap_peer_ttls_register
4014ba88 0000005c t eap_ttls_avp_add$constprop$0
4012b024 0000005c T get_lna_vga_dcap_val
4011a42c 0000005c T nan_send_receive_event
40147c38 0000005c T pmksa_cache_auth_get
401366d0 0000005c T rcGet11GHighestRateIdx
400e0a4c 0000005c t _ZN4core3fmt3num50_$LT$impl$u20$core..fmt..Debug$u20$for$u20$u32$GT$3fmt17hdfa468271695a229E
4008a1d8 0000005d T enable_wifi_agc
4011ee44 0000005d T ieee80211_phy_mode_show
4011f224 0000005d T ieee80211_psq_send_one_pkt
40139210 0000005d T mac_last_rxbuf_init
40088550 0000005d T ram_cbw2040_cfg
40089f60 0000005d T ram_pbus_force_test
4012bd3c 0000005d T tsens_read_init
401380a4 0000005d T wDev_Rxbuf_Deinit
401150a8 0000005d T wifi_set_chan_range
3ffcb368 0000005e B chip7_phy_init_ctrl
4008bf2c 0000005e T ieee80211_alloc_tx_buf
40138e44 0000005e T mac_rxbuf_init
40154d24 0000005e T nan_dp_construct_device_caps
400865ac 0000005e T pm_enable_beacon_monitor_timer
40133b4c 0000005e T pm_noise_check
4012aebc 0000005e T ram_restart_cal
4008a7e4 0000005e T ram_set_noise_floor
4013c6d0 0000005e T tls_connection_handshake2
4013ee50 0000005e T tlsv1_record_set_cipher_suite
40155578 0000005e t x509_str_strip_whitespace
400f72e0 0000005e t _ZN12embedded_tls6record12RecordHeader12content_type17h4a393eb972563cf6E
400efd60 0000005e t _ZN42_$LT$$RF$T$u20$as$u20$core..fmt..Debug$GT$3fmt17h5ef3da6585ff4641E
400f9ccc 0000005e t _ZN42_$LT$$RF$T$u20$as$u20$core..fmt..Debug$GT$3fmt17hc1149f8a675c4838E
40106b1c 0000005e t _ZN7smoltcp4wire4ipv415Packet$LT$T$GT$11new_checked17hd07a9309b5340860E
40089de8 0000005f T bt_track_pll_cap
401279fc 0000005f T cnx_clear_blacklist
40149e18 0000005f t eap_peap_getKey
40148eb8 0000005f T eap_sm_build_identity_resp
4012a1e4 0000005f T ieee80211_send_action_register
40118870 0000005f T nan_dp_schedule_ndc_start
4011a354 0000005f T nan_insert_peer_svc_record
40086e4c 0000005f T pm_coex_pwr_update
400f5fc0 0000005f t _ZN12embedded_tls6common21decrypted_buffer_info19DecryptedBufferInfo18create_read_buffer17hfa0a2abe3440d00dE
400ff760 0000005f t _ZN5alloc11collections9vec_deque21VecDeque$LT$T$C$A$GT$9push_back17h43d4f3e32ee012caE
400f0fcc 0000005f t _ZN68_$LT$core..fmt..builders..PadAdapter$u20$as$u20$core..fmt..Write$GT$10write_char17h809de401989c1e46E
3f412bc8 00000060 r bigbyte
40125cac 00000060 T esp_wifi_set_sta_key_internal
3ffb1c20 00000060 D g_pp_timer_info
4011daf4 00000060 T ieee80211_amsdu_encap_check
4011f670 00000060 T ieee80211_get_chan_info
40100e7c 00000060 T misc_nvs_deinit
40081bd4 00000060 T nan_dp_search_node
40133a18 00000060 T pm_allow_tx
40134130 00000060 T pm_go_to_sleep
3ffb1cc8 00000060 D rcP2P11GSchedTbl
4011fe08 00000060 T scan_flush_all_tx_buf
4014527c 00000060 T sha384_init
40145688 00000060 T sha512_init
4014e728 00000060 t wpa_sm_pmksa_free_cb
400f3a00 00000060 t _ZN11embassy_net27to_smoltcp_hardware_address17hf1ff0abc98f8a3c9E
400fdfec 00000060 t _ZN8esp_wifi4wifi10os_adapter11coex_deinit17hf23a65f75401fb8bE
400fe0b0 00000060 t _ZN8esp_wifi4wifi10os_adapter12coex_disable17hce7032e57fb47199E
400fcd24 00000060 t _ZN8esp_wifi4wifi10os_adapter19wifi_apb80m_release17h53212eb90d93a943E
400fccc4 00000060 t _ZN8esp_wifi4wifi10os_adapter19wifi_apb80m_request17h52f5412dfd49e9bcE
400fe3e4 00000060 t _ZN8esp_wifi4wifi10os_adapter24coex_schm_status_bit_set17hfcb9beaa9c9dd344E
400fe384 00000060 t _ZN8esp_wifi4wifi10os_adapter26coex_schm_status_bit_clear17h99863e4208662ac1E
400fcc64 00000060 t _ZN8esp_wifi4wifi10os_adapter37dport_access_stall_other_cpu_end_wrap17h0636320a9a6d0098E
400fcc04 00000060 t _ZN8esp_wifi4wifi10os_adapter39dport_access_stall_other_cpu_start_wrap17h97fcdfde56c6fa32E
4011f91c 00000061 T ieee80211_add_countryie
40146404 00000061 T wpa_auth_sta_init
40155d5c 00000062 T cipher_type_map_supp_to_public
4008bf8c 00000062 T ieee80211_align_eb
4011f3f8 00000062 T ieee80211_node_pwrsave
40100edc 00000062 T misc_nvs_init
401343dc 00000062 T pm_mesh_set_next_tbtt
40135e6c 00000062 T ppInitTxq
40089cc8 00000062 T tsens_code_read
401156ec 00000062 T wifi_nan_set_config_local
40113a6c 00000062 T wifi_station_save_ap_channel
4014f0d0 00000062 T wpa_sm_set_key
400fda4c 00000062 t _ZN8esp_wifi4wifi10os_adapter10nvs_set_i817he7fa597ad89a2351E
400fe04c 00000062 t _ZN8esp_wifi4wifi10os_adapter11coex_enable17hf66f7e715655e50bE
400fe110 00000062 t _ZN8esp_wifi4wifi10os_adapter15coex_status_get17h063a0887ceb78f42E
400fe1d8 00000062 t _ZN8esp_wifi4wifi10os_adapter17coex_wifi_release17h67b264b40542b720E
400fe174 00000062 t _ZN8esp_wifi4wifi10os_adapter17coex_wifi_request17hdefc22bf164e34fdE
400fe23c 00000062 t _ZN8esp_wifi4wifi10os_adapter21coex_wifi_channel_set17h6e18d6fc58560f76E
400fe4a8 00000062 t _ZN8esp_wifi4wifi10os_adapter22coex_schm_interval_get17h76d74beae1fc9f2eE
400fe444 00000062 t _ZN8esp_wifi4wifi10os_adapter22coex_schm_interval_set17h35b55b0801b7daefE
400fe2a0 00000062 t _ZN8esp_wifi4wifi10os_adapter23coex_event_duration_get17h3c1ee98245654df6E
400fe570 00000062 t _ZN8esp_wifi4wifi10os_adapter24coex_schm_curr_phase_get17h9dacbda6b4f8186fE
400fe50c 00000062 t _ZN8esp_wifi4wifi10os_adapter25coex_schm_curr_period_get17h025b681f5f13928eE
400fe754 00000062 t _ZN8esp_wifi4wifi10os_adapter29coex_schm_flexible_period_get17h25737ff880210cd0E
400fe5d4 00000062 t _ZN8esp_wifi4wifi10os_adapter33coex_schm_process_restart_wrapper17hdf4a8239074c7c8fE
40089540 00000063 T ram_en_pwdet
400fbcb8 00000063 t _ZN8esp_wifi4wifi10os_adapter21task_get_max_priority17h6347d2c4a867b302E
4011b768 00000064 T ieee80211_adjust_2nd_chan
401186d4 00000064 T nan_dp_indicate_ndc_start
4014e370 00000064 T pmksa_cache_flush
40085568 00000064 T pm_rx_data_process
401307e8 00000064 T rxdc_est_min
4010c168 00000064 T wifi_destroy_softap
4014ef44 00000064 T wpa_set_profile
4013ffb4 00000064 T x509_name_compare
400f23c8 00000064 t _ZN4core3fmt9Formatter25debug_tuple_field2_finish17h14f94c239f9401f6E
40106d30 00000064 t _ZN7smoltcp5iface9interface4ipv459_$LT$impl$u20$smoltcp..iface..interface..InterfaceInner$GT$13is_unicast_v417hed56234e2de273baE
4010047c 00000064 t _ZN8esp_wifi4wifi7embassy83_$LT$impl$u20$embassy_net_driver..Driver$u20$for$u20$esp_wifi..wifi..WifiDevice$GT$16hardware_address17hb53d9cf87c85327aE
3ffc8430 00000064 b _ZN9esp_alloc4HEAP17hd7d24eb5f15f4ab9E
401043f0 00000064 t _ZN9rand_core5impls19fill_via_u32_chunks17h87a5c0298230d7c1E
40152a3c 00000065 T get_asymetric_start_key
4008ab78 00000065 T get_phy_target_power
4013b04c 00000065 T os_mktime
40147b78 00000065 T pmksa_cache_free_entry
40122c90 00000065 T sta_update_power_off_reset_flag
4008bb54 00000065 T wdev_push_promis_misc_buf
4012ac00 00000065 T wep_encap
4013fdd4 00000065 t x509_str_compare
4010641c 00000065 t _ZN7smoltcp6socket3tcp6Socket15ack_to_transmit17h48de4835f4d0bacfE
4012c7b8 00000066 T chip_v7_set_chan_offset
40082488 00000066 T cnx_node_search
401274ac 00000066 T cnx_obss_scan
401392dc 00000066 T hal_mac_set_addr
4012acb0 00000066 T ieee80211_getbcnframe
401108a0 00000066 T ieee80211_ht_node_init
40116d6c 00000066 T nan_sched_get_chan_bitmap
40116ef0 00000066 T nan_sched_reset_avail_flags_sdf
40117bcc 00000066 T nan_send_ndp_resp
40134d5c 00000066 T pm_on_coex_schm_status_config
4011ff38 00000066 T scan_add_probe_ssid
40137c2c 00000066 T wdev_set_promis
40145d84 00000066 t wpa_group_init_gmk_and_counter
400f60cc 00000066 t _ZN12embedded_tls12parse_buffer11ParseBuffer8read_u1617h5a9fae4b839b2004E
400f1e9c 00000066 t _ZN4core3fmt17pointer_fmt_inner17h39593a7fd53fbebcE
400f97f4 00000066 t _ZN69_$LT$esp_hal..timer..timg..Timer$u20$as$u20$esp_hal..timer..Timer$GT$15clear_interrupt17hf8c9759a252a5522E
400faefc 00000066 t _ZN8esp_wifi4wifi10os_adapter19task_yield_from_isr17h4d4ed28773f3d187E
4013868c 00000067 T hal_ba_session_restore
4008d5d4 00000067 T hal_get_tsf_time
401169a4 00000067 T nan_transmit_action
40134e10 00000067 T pm_on_probe_resp_rx
4008401c 00000067 T rcUpdateTxDone
4013d12c 00000067 t tls_process_certificate_request
40146f40 00000067 T wpa_auth_sta_associated
400ff45c 00000067 t _ZN42_$LT$$RF$T$u20$as$u20$core..fmt..Debug$GT$3fmt17had6084d509729dd8E
400f1620 00000067 t _ZN4core3fmt8builders11DebugStruct6finish17ha87404231ebf1410E
400f85a8 00000067 t _ZN87_$LT$esp_hal..sync..RawMutex$u20$as$u20$embassy_sync..blocking_mutex..raw..RawMutex$GT$4lock17h8685f361850e4d4fE
3ffc9290 00000068 B g_wifi_menuconfig
40150dfc 00000068 t mp_copy
40118664 00000068 T nan_dp_deinit
40081874 00000068 T phy_enter_critical
40082c80 00000068 T ppProcTxCallback
4008d388 00000068 T ppRecycleAmpdu
401362bc 00000068 T pp_stop_sw_txq
4008174c 00000068 T random
40136664 00000068 T rcGet11NHighestRateIdx
40121458 00000068 T scan_inter_channel_timeout_process
4014fc3c 00000068 T wpa_michael_mic_failure
400f7f68 00000068 t _ZN74_$LT$esp_backtrace..arch..ExceptionCause$u20$as$u20$core..fmt..Display$GT$3fmt17h1f457a926fc89dafE
400ff3f4 00000068 t _ZN86_$LT$esp_wifi..wifi..private..EspWifiPacketBuffer$u20$as$u20$core..ops..drop..Drop$GT$4drop17h5b2167a33ee8b260E
400ff30c 00000068 t _ZN8esp_wifi6compat6common10sem_delete17hec03aa3d46a8d547E
40137b80 00000069 T wdev_set_promis_misc_buf
4011beb0 00000069 T wifi_nvs_init
400f2274 00000069 t _ZN4core3fmt9Formatter26debug_struct_field2_finish17h8c48a5ca627768fdE
400fa3c0 0000006a T _embassy_time_now
400fd9e0 0000006a T esp_timer_get_time
40126044 0000006a T esp_wifi_send_mgmt_frm_internal
4010b6b4 0000006a T esp_wifi_set_config
4014e7c4 0000006a t ieee80211w_set_keys$constprop$0
40088dd8 0000006a T mac_enable_bb
401398b4 0000006a T mac_tx_set_plcp2
4011732c 0000006a T nan_dp_get_peer_ndp
4012444c 0000006a T sta_sa_query_process_timeout
4013e7f4 0000006a T tls_verify_hash_free
400ff8ac 0000006a T usleep
40137894 0000006a T wdev_csi_hw_bug_check
4010c1cc 0000006a T wifi_destroy_sta
400f3a60 0000006a t _ZN72_$LT$embassy_net_driver..HardwareAddress$u20$as$u20$core..fmt..Debug$GT$3fmt17h9e77f584f6a6bc20E
400fecc0 0000006a t _ZN8esp_wifi4time14systimer_count17h587c7d69d0f1f10fE
40141194 0000006b T aes_128_cbc_encrypt
40111648 0000006b T ieee80211_decap1
4013fefc 0000006b T x509_free_name
401385e0 0000006c T hal_agreement_del_rx_ba
4011d9dc 0000006c T ieee80211_output_pending_eb
4014eb00 0000006c T wpa_supplicant_pairwise_gtk
400d43b0 0000006c t _ZN12embedded_tls12key_schedule35KeyScheduleState$LT$CipherSuite$GT$17increment_counter17h05bddf7e6cf0aaa5E
400fdc3c 0000006c t _ZN8esp_wifi4wifi10os_adapter10get_random17he545182d6e2e71c4E
400fdccc 0000006c t _ZN8esp_wifi4wifi10os_adapter13log_timestamp17hcd671eb2224f9b1fE
40127dac 0000006d T cnx_remove_all_rc
4011c9d4 0000006d T ieee80211_setup_robust_mgmtframe
401336fc 0000006d T lmacDisableTransmit
40147dc4 0000006d t rsn_selector_to_bitfield
401217c8 0000006d T scan_parse_ht2040_coex
401087a8 0000006d t _ZN7smoltcp6socket3tcp6Socket25immediate_ack_to_transmit17h82fcb43876a93215E
40148a4c 0000006e T aes_gcm_ae
401487c0 0000006e t aes_gctr$part$0
40089d38 0000006e T btpwr_tsens_track
4011f2bc 0000006e W ieee80211_pwrsave
4012a248 0000006e T ieee80211_send_action
400854f0 0000006e T pm_enable_active_timer
40136b6c 0000006e T rcUpSched
400ff83c 0000006e T sleep
40136f88 0000006e T TRC_AMPDU_PER_DOWN_THRESHOLD
40137a84 0000006e T wdev_pop_promis_misc_buf
401489dc 0000006f t aes_gcm_prepare_j0
4010ab94 0000006f T esp_wifi_set_inactive_time_local
40089ebc 0000006f T i2c_write_master
401324e8 0000006f T ic_obtain_key
4012a2cc 0000006f T ieee80211_recv_action_register
401107ec 0000006f T ieee80211_recv_bar
40145f04 0000006f t ieee80211w_kde_add
40132d8c 0000006f T lmacEndRetryAMPDUFail
40082844 0000006f T lmacTxDone
40117398 0000006f T nan_dp_get_peer_ndl
4014e670 0000006f T pmksa_cache_set_current
4012b1b4 0000006f T rfpll_1p2_opt
4012b3ec 0000006f T wr_rf_freq_mem
40113790 00000070 T _do_wifi_stop
4014cbd4 00000070 t eap_fast_deinit
4012a63c 00000070 T ieee80211_decrypt_espnow_pkt
40111e6c 00000070 T ieee80211_setup_lr_rates
40113ba0 00000070 T ieee80211_sta_disconnect
3ffc8a00 00000070 B wDevMacSleep
40137a10 00000070 T wdev_set_promis_misc_pkt
400f41e8 00000070 t _ZN75_$LT$embassy_time..timer..Timer$u20$as$u20$core..future..future..Future$GT$4poll17h665c0fdca16178cdE
40106e80 00000070 t _ZN7smoltcp4wire3udp19Packet$LT$$RF$T$GT$7payload17h0654df28801300bdE
401289bc 00000071 T cnx_rc_update_rssi
4010c620 00000071 T ieee80211_crypto_encap
4008bff8 00000071 T ieee80211_post_hmac_tx
40081964 00000071 T rtc_get_xtal
40144acc 00000071 T SHA1Update
400d3ed4 00000071 t _ZN12embedded_tls12key_schedule30KeySchedule$LT$CipherSuite$GT$25calculate_traffic_secrets17h228ed4772cf13f14E
400f0dd0 00000071 t _ZN4core3fmt3num12GenericRadix7fmt_int17h5db32912ad78f381E
400f0e44 00000071 t _ZN4core3fmt3num12GenericRadix7fmt_int17hb88b1bddb70916d9E
400fb518 00000071 t _ZN8esp_wifi4wifi10os_adapter19queue_send_from_isr17ha2d02fca953aaeccE
4012dd78 00000072 T chip_sleep_prot_en
40128a30 00000072 T cnx_rc_update_state_metric
4008a84c 00000072 T phy_close_rf
40136be0 00000072 T rcTxUpdatePer
40122bc4 00000072 T sta_bip_check
40137c94 00000072 T wDev_SnifferRxAmpdu
4010b014 00000072 T wifi_check_chan_param
4011bde8 00000072 T wifi_nvs_reset_current_ap_info
40109938 00000072 t _ZN65_$LT$smoltcp..wire..ip..Address$u20$as$u20$core..fmt..Display$GT$3fmt17h802951b400dfcc2fE
400fe6e0 00000072 t _ZN8esp_wifi4wifi10os_adapter29coex_schm_flexible_period_set17hc8ff7078ffaf6701E
40147cd8 00000073 T ap_free_sta
400ffc80 00000073 T strcasecmp
40114e7c 00000073 T wifi_start_process
401462b0 00000073 t wpa_group_sm_step$part$0
40109080 00000073 t _ZN7smoltcp6socket3tcp6Socket5reply17h29808e729910a732E
400fd8b0 00000073 t _ZN8esp_wifi4wifi10os_adapter17wifi_clock_enable17h5acbf4e5cc490754E
400fd924 00000073 t _ZN8esp_wifi4wifi10os_adapter18wifi_clock_disable17h61630388ed941f07E
3f411720 00000074 R g_wifi_default_wpa_crypto_funcs
401347a4 00000074 T pm_tx_data_done_process
4013ebac 00000074 t tlsv1_add_cert
3ffc9218 00000074 B wpa_crypto_funcs
400f5d78 00000074 t _ZN12embedded_tls6buffer12CryptoBuffer15extend_internal17hcd8643a5ab0a740aE
4010470c 00000074 t _ZN4core5slice29_$LT$impl$u20$$u5b$T$u5d$$GT$11copy_within17h359ce40e71090140E
401376c0 00000075 T rc_set_per_conn_fix_rate
400813f0 00000075 t _ZN15esp_hal_embassy8executor6thread8Executor9wait_impl17hb787786e7689ff63E
400f2c70 00000075 t _ZN4core3fmt3num52_$LT$impl$u20$core..fmt..UpperHex$u20$for$u20$u8$GT$3fmt17hc1fe4bdb72df6206E
40110068 00000076 T ampdu_alloc_rx_ba_index
40149350 00000076 T eap_sm_buildIdentity
40152aa4 00000076 T encrypt_pw_block_with_password_hash
4008ae60 00000076 T get_chan_pwr_index
4011037c 00000076 T ieee80211_ht_deattach
401437e4 00000076 T MD5Final
401161dc 00000076 T nan_set_trc
40116b28 00000076 W nan_stop
40130470 00000076 T ram_dc_iq_est
4012cb30 00000076 T ram_start_tx_tone
4012f3b4 00000076 T reset_rf_dig
4008be00 00000076 T wdev_dump_rx_linked_list
4014eecc 00000076 T wpa_sm_notify_assoc
400fb358 00000076 t _ZN8esp_wifi4wifi10os_adapter12queue_create17h6581f2abc6727104E
4011c8d8 00000077 T ieee80211_add_extcap
40135f80 00000077 T pp_delete_task
40148448 00000077 T wpa_cipher_to_suite
40146000 00000077 t wpa_gtk_update$isra$0
400fbbb0 00000077 t _ZN8esp_wifi4wifi10os_adapter15task_ms_to_tick17hd9a73fdcf35008f6E
400fae84 00000077 t _ZN8esp_wifi4wifi10os_adapter16wifi_int_restore17hd23852a79337a087E
401197e8 00000078 T nan_fill_dynamic_attr
4011a500 00000078 T nan_send_solicited_publish
4008d3f0 00000078 T ppRegressAmpdu
3ffb1dc4 00000078 D rcP2P11NSchedTbl
400878f4 00000078 T wDevCheckBlockError
400846a4 00000078 T wdev_mac_sleep
40085eac 00000078 T wifi_rf_phy_disable
400f2eec 00000078 t _ZN4core3fmt3num52_$LT$impl$u20$core..fmt..LowerHex$u20$for$u20$u8$GT$3fmt17h3ca0abd28fe21e85E
40152558 00000079 t aes_ccm_encr$constprop$0
40150a58 00000079 T asn1_parse_oid
40100f40 00000079 T puts
4010b0c0 00000079 T wifi_init_in_caller_task
4010a36c 00000079 t _ZN7smoltcp7storage11ring_buffer19RingBuffer$LT$T$GT$13get_allocated17h53f2d808cf17ab0cE
400fafec 00000079 t _ZN8esp_wifi14common_adapter13semphr_delete17h69a7add57b2aefb6E
400fad44 00000079 t _ZN8esp_wifi4wifi10os_adapter16spin_lock_delete17hbc5f69b5f4cab817E
4010bc14 0000007a T esp_mesh_map_deauth
40117578 0000007a T nan_dp_setup_peer
40116018 0000007a T nan_mgmt_txcb
40088fa4 0000007a T opt_11b_resart
40136af0 0000007a T rcLowerSched
4011fe6c 0000007a T scan_cancel
400f5e94 0000007a t _ZN12embedded_tls6buffer12CryptoBuffer7set_u2417h69d8beb59c3b1d91E
400e150c 0000007a t _ZN66_$LT$esp_wifi..InitializationError$u20$as$u20$core..fmt..Debug$GT$3fmt17h334fd039bd1f72e9E
4012e280 0000007b T chip_v7_set_chan_misc
4008bbc0 0000007b T wdev_process_panic_watchdog
400f1fe0 0000007b t _ZN4core3fmt8builders10DebugTuple6finish17hb2ce1000b331cbe6E
40108f84 0000007b t _ZN7smoltcp7storage11ring_buffer19RingBuffer$LT$T$GT$17enqueue_many_with17h5a64a3dad164e3e5E
400faa3c 0000007b t _ZN8esp_wifi4wifi10os_adapter10clear_intr17h90e2123c2fc7db6dE
400facc8 0000007b t _ZN8esp_wifi4wifi10os_adapter16spin_lock_create17hada9ca0f52b510d7E
400fd19c 0000007b t _ZN8esp_wifi4wifi10os_adapter23phy_update_country_info17hf42488db31272c06E
40128508 0000007c T cnx_connect_timeout_process
4014b270 0000007c t eap_peer_tls_data_reassemble
40148918 0000007c t ghash
40139b58 0000007c T hal_attenna_init
4011ab98 0000007c T wifi_nvs_cfg_item_init
3ffb0dbc 0000007c d _ZN15esp_hal_embassy11time_driver6DRIVER17h582e5c811b42577dE
400f3524 0000007c t _ZN16embassy_executor3raw9wake_task17h2c1d74427ede7b33E
40141200 0000007d T aes_128_cbc_decrypt
40152920 0000007d T generate_authenticator_response_pwhash
4011a578 0000007d T nan_match_filters
400ff64c 0000007d t _ZN5alloc11collections9vec_deque21VecDeque$LT$T$C$A$GT$4grow17hdfb5ec9924baaaf5E
4013855c 0000007e T hal_agreement_clr_rx_ba
40082574 0000007e T lmacMSDUAged
40133c70 0000007e T pm_disconnected_sleep
4012c378 0000007e T rf_init
4013e774 0000007e T tls_verify_hash_add
40150730 0000007e T wpabuf_resize
400f9384 0000007e t _ZN102_$LT$esp_hal..interrupt..InterruptStatusIterator$u20$as$u20$core..iter..traits..iterator..Iterator$GT$4next17h0a87599dfdd08b38E
40109000 0000007e t _ZN7smoltcp7storage11ring_buffer19RingBuffer$LT$T$GT$15get_unallocated17h0c3643aa693c88afE
40108728 0000007e t _ZN7smoltcp7storage11ring_buffer19RingBuffer$LT$T$GT$17write_unallocated17h41f3e1fd9e8e3852E
4014ca2c 0000007f t eap_fast_write_pac
40125638 0000007f T esp_wifi_wpa_ptk_init_done_internal
4011f110 0000007f W ieee80211_set_tim
40153000 0000007f t MD4Update
40118390 0000007f T nan_parse_ndp_confirm
40151f34 0000007f T pkcs1_decrypt_public_key
40135adc 0000007f T ppCheckTxAMPDUlength
4008b7e0 0000007f T ram_set_txcap_reg
40085e24 0000007f T wifi_rf_phy_enable
400fd830 0000007f t _ZN8esp_wifi4wifi10os_adapter14wifi_reset_mac17hd32a3f5027a2eb6aE
3ffb1f80 00000080 D eb_txdesc_space
40136d74 00000080 T rcGetAmpduSched
40085a44 00000080 T rcUpdateRxDone
401218c8 00000080 T scan_validate_owe_scenarios
40132028 00000080 T txpwr_offset
40145e84 00000080 t wpa_verify_key_mic
400d3e54 00000080 t _ZN12embedded_tls12key_schedule30ContextType$LT$CipherSuite$GT$10empty_hash17hb0277978ba318fbaE
400f9404 00000080 t _ZN7esp_hal4sync11single_core12PriorityLock20change_current_level17hbb6d270ed4ea4638E
40109b50 00000080 t _ZN7smoltcp5iface10socket_set9SocketSet6remove17hdc94e81ef49240feE
3f40d5b8 00000080 r _ZN8esp_wifi14common_adapter13phy_init_data21PHY_INIT_DATA_DEFAULT17h809c01f1df1c1c37E
400fe304 00000080 t _ZN8esp_wifi4wifi10os_adapter12coex_pti_get17hbd86e6a89d73866eE
400fe638 00000080 t _ZN8esp_wifi4wifi10os_adapter29coex_schm_register_cb_wrapper17hd7d495fb81bebc4fE
400fabc0 00000080 t _ZN8esp_wifi4wifi10os_adapter7ints_on17h8cc902b8690596a5E
400ff374 00000080 t _ZN8esp_wifi6compat6common10sem_create17h218f549dac9364fcE
40148d54 00000081 T eap_get_phase2_types
401386f4 00000081 T hal_ba_session_restore_by_hw_index
4013bcf4 00000081 t hostap_sta_join
4011bfc8 00000081 T ieee80211_empty_txq
40156054 00000081 t _out_rev
40086988 00000081 T pm_keep_alive
4008a948 00000081 T ram_set_chan_cal_interp
40121838 00000081 T scan_get_owe_channel_info
400f9284 00000081 t _ZN7esp_hal9interrupt6xtensa8vectored6enable17h4a88f0ea42d613c4E
4011655c 00000082 T nan_transmit_bcn
40087f78 00000082 T pp_timer_do_process
4013cfbc 00000082 T tlsv1_client_hello_ext
40138324 00000082 T wDev_Insert_KeyEntry
40122b40 00000082 T wifi_station_stop
4014f27c 00000082 t wpa_supplicant_install_ptk$constprop$0
400f871c 00000082 t _ZN12embassy_sync9waitqueue12atomic_waker27GenericAtomicWaker$LT$M$GT$8register17h02363a5bd64cec11E
4012a524 00000083 T ccmp_encap
40089a2c 00000083 T phy_unforce_wifi_chan
40148c28 00000083 T tls_prf_sha256
400f8610 00000083 t _ZN7esp_hal4sync18LockGuard$LT$L$GT$13new_reentrant17hc6551932e95cd1fbE
40106508 00000083 t _ZN7smoltcp5iface9interface14InterfaceInner5route17h356e69221587b042E
400fb114 00000083 t _ZN8esp_wifi4wifi10os_adapter22recursive_mutex_create17h835b746799d78d1fE
4008abe0 00000084 T force_txrx_off
4011c818 00000084 T ieee80211_add_wme_param
40117408 00000084 T nan_dp_alloc_ndl
3ffb20b8 00000084 D s_record_list
40106484 00000084 t _ZN7smoltcp5iface9interface14InterfaceInner12has_neighbor17h392b9a41343007f5E
40139c54 00000085 T hal_sniffer_enable
4013541c 00000085 T pm_deattach
40134b78 00000085 T pm_update_params
4013c5b4 00000085 T tls_connection_set_params
400f4b58 00000085 t _ZN55_$LT$sec1..error..Error$u20$as$u20$core..fmt..Debug$GT$3fmt17hcec30c5bbd85b3ceE
400f8d68 00000085 t _ZN7esp_hal6system22PeripheralClockControl5reset17h32fe1f2fa56ebf5cE
400fac40 00000085 t _ZN8esp_wifi4wifi10os_adapter8ints_off17h9a9bd75b7717a01cE
400fe840 00000085 t _ZN8esp_wifi6compat6common12delete_queue17hd3ab973b2bbd4e33E
4010dd58 00000086 T ap_sa_query_timeout_process
4014b7f4 00000086 t eap_ttls_get_status
4014375c 00000086 T MD5Update
40123cf8 00000086 T sta_retry_assoc
400fb068 00000086 t _ZN8esp_wifi4wifi10os_adapter22wifi_thread_semphr_get17h9012e94db34d55e7E
400f8694 00000086 t _ZN91_$LT$esp_hal..sync..critical_section..CriticalSection$u20$as$u20$critical_section..Impl$GT$7acquire17h63530a824c837b1fE
401485e0 00000087 T ccmp_decrypt
40139cdc 00000087 T hal_sniffer_disable
4008cf88 00000087 T ppGetTxframe
4008d478 00000087 T rcGetRate
40089ab4 00000087 T wifi_track_pll_cap
400faf64 00000087 t _ZN8esp_wifi14common_adapter13semphr_create17hf7762163e0c013c0E
40128934 00000088 T cnx_remove_rc_except
40152358 00000088 T crypto_rsa_import_public_key
40113024 00000088 T ieee80211_parse_wapi
40139818 00000088 T mac_tx_set_plcp1
400818dc 00000088 T phy_exit_critical
3ffcb2dc 00000088 B phy_rxrf_dc
401357f0 00000088 T ppAssembleMicHdr
40137af4 00000088 T wdev_process_misc_pkt
3f407784 00000088 r _ZN4core7unicode12unicode_data15grapheme_extend17SHORT_OFFSET_RUNS17h93de17da2ffa8dacE
4010000c 00000088 t _ZN8esp_wifi15preempt_builtin5timer18timer_tick_handler17h47276874d6e7fd90E
40084aa0 00000089 T ampdu_dispatch_all
40084a10 00000089 T ampdu_dispatch_as_many_as_possible
401278b4 00000089 T cnx_remove_from_blacklist
4011c0dc 00000089 T ieee80211_copy_eb_header
400845e0 00000089 T wdev_mac_wakeup
40127d1c 0000008a T cnx_add_rc
40126570 0000008a T ieee80211_timer_do_process
4011a990 0000008a T nan_sdf_txcb
400fa334 0000008a T __pender
40134aec 0000008a T pm_on_channel
400887b4 0000008a T set_chan_rxcomp
4008a6d4 0000008b T bt_tx_gain_cal
4011cc68 0000008b T ieee80211_getcapinfo
4008d204 0000008b T ppAssembleAMPDU
400f22e0 0000008b t _ZN4core3fmt9Formatter26debug_struct_fields_finish17h361914f88d33e930E
400fde18 0000008b t _ZN8esp_wifi4wifi10os_adapter11wifi_calloc17h59f01c94ed4e33bdE
4014c050 0000008c t eap_ttls_implicit_identity_request
401387a4 0000008c T hal_crypto_clr_key_entry
4011110c 0000008c T ieee80211_setup_basic_htrates
40148830 0000008c t shift_right_block
400f82dc 0000008c t _ZN13esp_backtrace4arch18backtrace_internal17h48d0e1347b85f493E
40153ad0 0000008d t _ntoa_long
40082bf0 0000008d T ppTxProtoProc
40132408 0000008e T ic_set_key
400f7ddc 0000008e t _ZN9esp_alloc7EspHeap9free_caps17h28881d3e4577db2fE
4012ef10 0000008f T i2cmst_reg_init
40100128 0000008f T WIFI_MAC
3ffb2004 00000090 D bars
40129234 00000090 T cnx_beacon_timeout_process
40149514 00000090 T eap_msg_alloc
3ffc8ab0 00000090 B g_wpa_supp
40137600 00000090 T trc_update_ifx_phy_mode
400fbc28 00000090 t _ZN8esp_wifi4wifi10os_adapter21task_get_current_task17hab8970983dc00b94E
40120324 00000091 T scan_build_chan_list
4008d508 00000091 T trc_onPPTxDone
4008d168 00000092 T ppSelectNextQueue
4013acd0 00000092 T sha1_prf
400ff6cc 00000092 t _ZN5alloc7raw_vec19RawVec$LT$T$C$A$GT$8grow_one17he8e6370cddcc59fcE
40151cd0 00000093 T bignum_get_unsigned_bin
40139354 00000093 T hal_mac_set_bssid
40144fb8 00000093 T sha256_process
400d2fb8 00000093 t _ZN107_$LT$embedded_tls..extensions..extension_data..supported_groups..NamedGroup$u20$as$u20$core..fmt..Debug$GT$3fmt17h127e198e5ac950eeE
401093f0 00000093 t _ZN77_$LT$smoltcp..wire..ip..Protocol$u20$as$u20$core..convert..From$LT$u8$GT$$GT$4from17h11b5c8235a00dcb5E
4012a5a8 00000094 T ccmp_decap
4013364c 00000094 T lmacProcessTxError
40151544 00000094 t mp_init_multi
4008b8dc 00000094 T pm_get_null_max_tx_time
400ffaf4 00000094 T strdup
400816b8 00000094 t _ZN8esp_wifi14common_adapter11semphr_give17hd7f997f817ccb9adE
400817b4 00000094 t _ZN8esp_wifi4wifi19esp_wifi_tx_done_cb17hcf03d0a985eb5e64E
40100094 00000094 t _ZN92_$LT$esp_wifi..preempt_builtin..BuiltinScheduler$u20$as$u20$esp_wifi..preempt..Scheduler$GT$6enable17ha8cda937ed7fd87aE
4013bb9c 00000095 T esp_eap_client_set_fast_params
40138ac8 00000095 T hal_crypto_enable
40086404 00000095 T pm_get_tbtt_count
40104454 00000095 t _ZN3log13__private_api3log17h18df3cd246a582fdE
400f87a0 00000095 t _ZN3log13__private_api8log_impl17h84eb3bab3e6eb305E
400efbdc 00000095 t _ZN5alloc7raw_vec11finish_grow17h422ca50b89d9417eE
4012b084 00000096 T chip_v7_rxmax_ext_ana
40132160 00000096 T esf_buf_free_static
400881d8 00000096 T i2c_bt_filter_set
4012af84 00000096 T ram_rfpll_set_freq
40128b1c 00000096 T send_ap_probe
4012b460 00000096 T write_freq_mem_all
400f9530 00000096 t _ZN69_$LT$esp_hal..timer..timg..Timer$u20$as$u20$esp_hal..timer..Timer$GT$5start17h6b70a13eb828613cE
400fec28 00000097 T esp_fill_random
40117750 00000097 T nan_ndp_resp_timeout_process
40083f7c 00000097 T ppProcessLifeTime
401303a4 00000097 T ram_iq_est_enable
4013e998 00000097 T tls_key_x_server_params_hash
4013b1ac 00000097 T wpa2_post
400f1128 00000097 t _ZN71_$LT$core..ops..range..Range$LT$Idx$GT$$u20$as$u20$core..fmt..Debug$GT$3fmt17hc1b0626d351141a1E
401389b4 00000098 T hal_crypto_get_key_entry
40132cec 00000098 T lmacInit
40086bd4 00000098 T pm_rx_beacon_process
40088a00 00000098 T tx_paon_set
40131c0c 00000098 T tx_pwctrl_init
4014636c 00000098 T wpa_init
400f0b3c 00000098 t _ZN4core3fmt3num3imp51_$LT$impl$u20$core..fmt..Display$u20$for$u20$u8$GT$3fmt17h7cffdc3b24fec957E
40101f8c 00000098 t _ZN4core3str21_$LT$impl$u20$str$GT$4find17hc263be0a6ba2bb0fE
401090f4 00000098 t _ZN7smoltcp4wire3tcp4Repr10header_len17he065c169226d2b3cE
40149478 00000099 T eap_hdr_validate
4010c698 00000099 T ieee80211_crypto_decap
400fff70 00000099 T Software1
4012ab64 00000099 T tkip_encap
4010a1f0 00000099 t _ZN7smoltcp6socket3tcp5Timer18set_for_retransmit17hc6ca420f30ab8a93E
40150e64 0000009a t mp_mod_2d
4012a348 0000009b T ieee80211_recv_action
40086d8c 0000009b T pm_on_beacon_rx
401456e8 0000009b T sha512_process
40127c7c 0000009c T cnx_do_handoff_internal
40142e7c 0000009c T des_encrypt
40122744 0000009c T ieee80211_parse_wmeparams
40116ba8 0000009c T nan_set_config_local
401354ac 0000009c T pm_set_sleep_type
3ffb1d28 0000009c D rc11GSchedTbl
4012c2cc 0000009c T set_chan_freq_hw_init
400fb7e8 0000009c t _ZN8esp_wifi4wifi10os_adapter17queue_msg_waiting17he92d11fe66202d17E
401425a0 0000009d T crypto_mod_exp
4013f254 0000009d t ocsp_hash_data
4012fea4 0000009d T ram_get_fm_sar_dout
40155f84 0000009d t utf8_to_ucs2$constprop$0
4013b258 0000009d t wpa2_ent_rx_eapol
400f0498 0000009d t _ZN4core3fmt9Formatter7padding17hb9423a1c6b15ff39E
400fba60 0000009d t _ZN8esp_wifi4wifi10os_adapter11task_delete17h31ec771bdaf34afcE
4010d3b4 0000009e T hostap_deliver_data
40089358 0000009e T phy_wakeup_init
400e1414 0000009e t _ZN62_$LT$esp_wifi..wifi..WifiError$u20$as$u20$core..fmt..Debug$GT$3fmt17h7f177970f3d53009E
400f9be4 0000009e t _ZN7esp_hal4sync24GenericRawMutex$LT$L$GT$7acquire17h0f00bd09226e2dd7E
401525d4 0000009f t aes_ccm_auth_start$constprop$0
400f900c 0000009f T ESP32Reset
4013bf30 0000009f T esp_supplicant_init
40152118 0000009f T pkcs8_enc_key_import
4012aac0 0000009f T tkip_decap
400e0054 0000009f t _ZN3hex15decode_to_slice17h0bc854975708eff4E
4011069c 000000a0 T ieee80211_ampdu_age_all
4011efe0 000000a0 T ieee80211_phy_init
4012660c 000000a0 T ieee80211_timer_process
40138bb0 000000a0 T mac_tx_set_plcp0
4012ae1c 000000a0 T ram_pbus_xpd_tx_on
4008b054 000000a0 T tx_gain_table_set
400ff5ac 000000a0 t _ZN42_$LT$$RF$T$u20$as$u20$core..fmt..Debug$GT$3fmt17he2744d5078fd2922E
400f3960 000000a0 t _ZN4core3ptr44drop_in_place$LT$smoltcp..socket..Socket$GT$17h23e77be323fb8890E
40101790 000000a0 t _ZN8httparse10parse_code17h13ebd7ae2dfe49b9E
401092a8 000000a1 t _ZN7smoltcp4wire2ip8checksum13pseudo_header17hae87765c86f9e767E
4012cdec 000000a2 t bt_txiq_cal$part$6
4012ece4 000000a2 T rf_cal_data_recovery
40122a98 000000a2 T wifi_station_start
400d430c 000000a2 t _ZN12embedded_tls12key_schedule30SharedState$LT$CipherSuite$GT$7derived17he54ac4b8e49947baE
400f6134 000000a2 t _ZN12embedded_tls12parse_buffer11ParseBuffer8read_u2417hbe00d7767860f232E
4014b0ac 000000a3 T eap_peer_tls_derive_session_id
4012b228 000000a3 T get_rf_freq_cap
4011da50 000000a3 T ieee80211_amsdu_send_check
4011fd5c 000000a3 T ieee80211_scan_attach
40089988 000000a3 T ram_chip_i2c_writeReg
40146800 000000a3 t sm_WPA_PTK_PTKSTART_Enter$constprop$0
4014e830 000000a3 T wpa_eapol_key_send
4010934c 000000a4 t _ZN7smoltcp4wire2ip8checksum4data17h4026b93cbcbcab51E
400fa998 000000a4 t _ZN8esp_wifi4wifi10os_adapter8set_intr17h024507ec2895fda2E
40126890 000000a5 T chm_set_home_channel
4014c858 000000a5 t eap_fast_read_line
40089fc8 000000a5 T force_txrxoff
400feb80 000000a6 T calloc
4011380c 000000a6 T _do_wifi_start
4008c7f4 000000a6 T lmacDiscardFrameExchangeSequence
40088854 000000a6 T tx_delay_cfg
40109bd0 000000a6 t _ZN7smoltcp4wire6dhcpv44Repr10buffer_len17h5dac4b1eefc595adE
400fb2b0 000000a6 t _ZN8esp_wifi4wifi10os_adapter12mutex_unlock17h67da0f943d6ac614E
4008d294 000000a7 T ppAMPDU2Normal
4013290c 000000a8 T ic_set_trc
40110a38 000000a8 T ieee80211_has_ht40_bss
3ffb1e3c 000000a8 D rc11NSchedTbl
4010c068 000000a8 T wifi_create_nan
4010cb74 000000a8 T wifi_log
4014f000 000000a8 T wpa_set_passphrase
40152674 000000a9 T aes_ccm_ae
4012cd3c 000000a9 t bt_txdc_cal$part$5
40133584 000000a9 T lmacProcessTxRtsError
4014ab24 000000a9 T peap_prfplus
40151e88 000000a9 T pkcs1_encrypt
401556b8 000000a9 T rc4_skip
400f7ebc 000000a9 t _ZN44_$LT$$RF$T$u20$as$u20$core..fmt..Display$GT$3fmt17hac2076ccc5106b2fE
4011073c 000000aa T ampdu_process_multicast_address_qos_frame
40153158 000000aa T sha1_t_prf
40089048 000000ab T phy_reg_init
4012794c 000000ac T cnx_add_to_blacklist
40142240 000000ac T crypto_cipher_init
40132ee8 000000ac T lmacRetryTxFrame
40116f88 000000ac T nan_sched_add_entry
400f6020 000000ac t _ZN12embedded_tls10extensions14extension_data16supported_groups10NamedGroup5parse17h8df3b74d423d24f3E
400f9484 000000ac t _ZN96_$LT$esp_hal..sync..single_core..PriorityLock$u20$as$u20$esp_hal..sync..single_core..RawLock$GT$4exit17hc7a79c9267b4915cE
4013a000 000000ad T temprature_sens_read
4010b8c0 000000ae T esp_wifi_vnd_lora_enable
40086150 000000ae T pm_scale_listen_interval
40137350 000000ae T rcReachRetryLimit
40123858 000000ae T sta_auth_ft
400fbb00 000000ae t _ZN8esp_wifi4wifi10os_adapter10task_delay17h973d4bc01c28b0e6E
4012efb4 000000af T fe_reg_init
40089480 000000af T pwdet_sar2_init
400ff918 000000af T realloc
401225ac 000000af T sta_eapol_txdone_cb
3ffc8594 000000b0 B esp_mesh_quick_funcs
40135740 000000b0 T ppCheckTxConnTrafficIdle
40136028 000000b0 T ppCheckTxIdle
40144b40 000000b0 T SHA1Final
4013cd74 000000b0 T tlsv1_client_prf
400f3744 000000b0 t _ZN7smoltcp5iface10socket_set9SocketSet7get_mut17h9a06b31738597943E
4014d3fc 000000b1 T eap_fast_save_pac_bin
401511cc 000000b1 t s_mp_sub
401277b0 000000b2 T cnx_bss_init
401130ac 000000b2 T ieee80211_parse_action
40117e3c 000000b2 T nan_dp_parse_time_bitmap
401365ac 000000b2 T rcUpdateAMPDUParam
400f3690 000000b2 t _ZN7smoltcp5iface10socket_set9SocketSet7get_mut17h4ae0e9bb5c7e80efE
400f37f4 000000b2 t _ZN7smoltcp5iface10socket_set9SocketSet7get_mut17he5dc7bae321f9d58E
40139d68 000000b3 T hal_sniffer_rx_set_promis
40105dd8 000000b3 t _ZN44_$LT$$RF$T$u20$as$u20$core..fmt..Display$GT$3fmt17hc0b8f6239d4f6778E
400f08a4 000000b3 t _ZN4core9panicking19assert_failed_inner17ha26dfd2aba65107cE
3ffc88e8 000000b4 B g_lmac_cnt
401334c0 000000b4 T lmacProcessAckTimeout
401333b4 000000b4 T lmacProcessCollision
40116a6c 000000b4 W nan_start
4014b9d0 000000b5 t eap_ttls_init
40117c38 000000b5 T nan_dp_parse_ndpa
400fa730 000000b5 t _ZN62_$LT$esp_println..logger..EspEnvLogger$u20$as$u20$log..Log$GT$3log17h54673e11c5b8ffe5E
400f99d4 000000b5 t _ZN7esp_hal8rtc_cntl8RtcClock9calibrate17h367f65ae805647c4E
40112674 000000b6 T ieee80211_amsdu_negotiate
4010cca8 000000b6 T ieee80211_hostapd_beacon_txcb
40114c7c 000000b6 T wifi_lmac_init
400f38a8 000000b6 t _ZN7smoltcp5iface9interface9Interface15update_ip_addrs17hc89d25eac60274b8E
400fe8c8 000000b7 T free
4012e6e4 000000b8 T bb_init
400f11c0 000000b8 t _ZN4core7unicode12unicode_data15grapheme_extend11lookup_slow17h95035a2c1bd91fefE
400fdf0c 000000b8 t _ZN8esp_wifi4wifi10os_adapter17wifi_delete_queue17h8123c5386ac33af2E
40111044 000000b9 T ieee80211_setup_htrates
4011a898 000000b9 T nan_rx_sdf
40133d68 000000b9 T pm_off_channel
40084408 000000b9 T rcGetSched
401394bc 000000ba T hal_init
4013ec68 000000ba T tlsv1_set_ca_cert
4013e860 000000ba T tls_verify_hash_init
400fefbc 000000ba t _ZN8esp_wifi14common_adapter16phy_enable_clock17h1ac948d77b2483efE
40152720 000000bb T aes_ccm_ad
4014b19c 000000bb T eap_peer_tls_process_init
40125ed0 000000bc T esp_wifi_set_igtk_internal
40113ae4 000000bc T ieee80211_sta_connect
401360e8 000000bc T ppPrepareBarFrame
4013b2f8 000000bd t eap_peer_sm_deinit
401177e8 000000bd T nan_construct_ndp_confirm
401393f0 000000be T hal_mac_rx_set_policy
40139588 000000be T hal_mac_tsf_get_time
40134680 000000be T pm_coex_slice_timeout_process
4012e60c 000000bf T analog_gain_init
40128db4 000000bf W cnx_node_remove
40128204 000000bf T cnx_remove_rc
40080ae8 000000bf T __user_exception
401006f0 000000bf t _ZN8esp_wifi4wifi14WifiController16set_power_saving17h7de1e87be7df1492E
3ffcb510 000000c0 B eb_space
4014c69c 000000c0 T mschapv2_derive_response
4013fe3c 000000c0 t x509_name_string$part$0
400f6554 000000c0 t _ZN12embedded_tls12parse_buffer11ParseBuffer8read_u3217h64c4f88b79ef88b9E
400f13a4 000000c0 t _ZN4core6escape14escape_unicode17hce00d1d211866893E
400f636c 000000c1 t _ZN12embedded_tls12parse_buffer11ParseBuffer9read_list17h2e943eeaeb44d0e9E
400f1064 000000c1 t _ZN4core5slice6memchr14memchr_aligned17hc29e85b5fe12d5c2E
400fadc0 000000c1 t _ZN8esp_wifi4wifi10os_adapter16wifi_int_disable17h9753f03b75a5f610E
4014217c 000000c3 T aes_wrap
400effec 000000c3 t _ZN60_$LT$const_oid..error..Error$u20$as$u20$core..fmt..Debug$GT$3fmt17hdc3465e8a60350aeE
3ffcb3f0 000000c4 B chip7_sleep_params
400ffeac 000000c4 T _putchar
40109a8c 000000c4 t _ZN7smoltcp5iface10socket_set9SocketSet3add3put17hade4ada8bf7de5b0E
40107940 000000c4 t _ZN7smoltcp5iface9interface4ipv459_$LT$impl$u20$smoltcp..iface..interface..InterfaceInner$GT$12icmpv4_reply17hc7c6fe116dc2f1a4E
400f7d18 000000c4 t _ZN9esp_alloc7EspHeap10add_region17hdd8a0f7bd356254aE
40089ba0 000000c5 T btpwr_pll_track
40151038 000000c5 t mp_mul_2d
4012c5dc 000000c5 T set_channel_rfpll_freq
401473b4 000000c5 T wpa_ap_join
401292c4 000000c6 T ic_set_sta
401337b4 000000c6 T lmacStopTransmit
4008a398 000000c6 T set_tx_gain_table
40132e08 000000c7 T lmacDiscardMSDU
40129cac 000000c8 T cnx_start_obss_scan
3ffb172c 000000c8 D g_eb_list_desc
40115f44 000000c8 T is_esp_mesh_assoc
40117218 000000c8 T nan_dp_alloc_node
40137740 000000c8 T rc_enable_trc
4010c2e8 000000c8 T wifi_create_softap
400f62a4 000000c8 t _ZN12embedded_tls9handshake11certificate14CertificateRef6encode17h28bcd217300550f6E
40108d5c 000000c8 t _ZN7smoltcp6socket3dns9copy_name17h41e5b55ebe426357E
401361ac 000000c9 T pp_attach
4011f32c 000000c9 T pwrsave_flushq
400fa530 000000c9 t _ZN4core3fmt5Write10write_char17h73192af7b0c8ed17E
40088904 000000ca T bb_bss_cbw40
40128ce8 000000ca T cnx_node_alloc
40155014 000000ca T phy_rfcal_data_check
4012ad48 000000ca T ram_pbus_force_mode
400f61d8 000000ca t _ZN12embedded_tls10extensions13ExtensionType5parse17hb613473cf043836fE
4010bf88 000000cb T ieee80211_ifattach
40151100 000000cb t s_mp_add
4010b35c 000000cc T esp_wifi_deinit_internal
400efdc0 000000cc t _ZN44_$LT$$RF$T$u20$as$u20$core..fmt..Display$GT$3fmt17h8164b052d543b40bE
400f96c8 000000cd t _ZN69_$LT$esp_hal..timer..timg..Timer$u20$as$u20$esp_hal..timer..Timer$GT$10load_value17h4878504cb8983cb2E
400fa42c 000000ce T _embassy_time_schedule_wake
4011aa2c 000000ce T nan_update_static_sdfs
40151444 000000ce t s_mp_mul_digs
40101830 000000ce t _ZN8httparse12parse_reason17h24db7deeb3bd8acdE
400864c8 000000cf T pm_beacon_monitor_tbtt_start
40103590 000000cf t _ZN4p25610arithmetic5field12FieldElement10from_bytes17h2c11797aa4d0295dE
40153b60 000000d0 t _ntoa_long_long
40134c00 000000d0 T pm_coex_tbtt_process
4012ff58 000000d0 T ram_txiq_get_mis_pwr
4010c3b8 000000d0 T wifi_create_sta
40109f38 000000d0 t _ZN7smoltcp4wire3udp15Packet$LT$T$GT$13fill_checksum17hffdfdd54a88eaebfE
400feaac 000000d1 T malloc
4011d8e4 000000d2 T ieee80211_search_node
40084b30 000000d3 T ampdu_dispatch_upto
401319b0 000000d3 T cal_rf_ana_gain
4014e4d4 000000d3 T pmksa_cache_add
40126a60 000000d4 T chm_init
401275c8 000000d4 T cnx_csa_fn_process
4014504c 000000d4 T sha256_done
40137528 000000d4 T trc_init
4012c1f0 000000d4 T write_wifi_chan_data
40153080 000000d5 T md4_vector
40118794 000000d5 T nan_dp_schedule_next_faw
400d2d20 000000d6 t _ZN101_$LT$embassy_net..tcp..client..TcpConnection$LT$_$C$_$C$_$GT$$u20$as$u20$embedded_io_async..Write$GT$5flush28_$u7b$$u7b$closure$u7d$$u7d$17h5938c06c7480356cE
400e1b14 000000d6 t _ZN6digest11FixedOutput14finalize_fixed17h2059107da544b4c9E
4011c16c 000000d7 T ieee80211_amsdu_adjust_head
40144c24 000000d7 T pbkdf2_sha1
400898b0 000000d8 T ram_chip_i2c_readReg
4012e530 000000d8 T txiq_cal_init
400e133c 000000d8 t _ZN52_$LT$reqwless..Error$u20$as$u20$core..fmt..Debug$GT$3fmt17h3ae02fb7dcbc835bE
40106268 000000d8 t _ZN7smoltcp6socket3tcp6Socket15seq_to_transmit17h0bcf0120bcef962bE
40086eb0 000000d9 T ppRxProtoProc
400f1f04 000000d9 t _ZN4core3fmt8builders10DebugTuple10field_with17h0683926d532b3613E
400e0ca4 000000d9 t _ZN4core3ptr79drop_in_place$LT$embassy_net..Stack..dns_query..$u7b$$u7b$closure$u7d$$u7d$$GT$17h933bd53ea327ba9dE
40111d90 000000da T ieee80211_setup_phy_mode
40150f00 000000da t mp_div_2d
40106340 000000da t _ZN7smoltcp6socket3tcp6Socket16window_to_update17hf9dba39142b9ec9aE
4014b8ac 000000db t eap_ttls_phase2_request_eap_method
40136ff8 000000db T rcAmpduLowerRate
40111b60 000000dc T ieee80211_setup_rates
401349b8 000000dc T pm_go_to_wake
4012c6bc 000000dd T chip_v7_set_chan_nomac
40117d0c 000000dd T nan_dp_parse_elem_container
400f14b0 000000dd t _ZN4core7unicode9printable5check17h8fcc69843977a651E
40113190 000000de T ieee80211_ioctl_process
4013abd0 000000de T sha256_prf_bits
4010a28c 000000de t _ZN7smoltcp6socket3tcp6Socket5reset17hee5aa19f0c673a1cE
40141280 000000df T aes_decrypt_init
40148668 000000df T ccmp_encrypt
40117040 000000df T nan_sched_construct_availability
400f2b90 000000df t _ZN4core3str7pattern14TwoWaySearcher22reverse_maximal_suffix17h10fe4a90b14060a3E
401099ac 000000df t _ZN7smoltcp5iface5route6Routes25remove_default_ipv4_route17ha2151deab5bbc88eE
401005c0 000000df t _ZN8esp_wifi4wifi10recv_cb_ap17h32aa8808842dbc95E
401004e0 000000df t _ZN8esp_wifi4wifi11recv_cb_sta17h6f2346e22d3cf542E
3ffb0e68 000000e0 d _ZN8esp_wifi4wifi8internal8G_CONFIG17hc7c21a96f9a064c5E
40136c54 000000e1 T trc_onAmpduOp
4012bc50 000000e2 T bt_i2c_set_wifi_data
4013b3b8 000000e2 t eap_peer_sm_init
400895d4 000000e2 T pll_correct_dcap
4013af50 000000e2 T wpa_config_parse_string
40086c88 000000e3 T pm_tbtt_process
40145b3c 000000e4 T eloop_run
4011e79c 000000e4 T ieee80211_send_mgmt
4008b6c8 000000e4 T tx_pwctrl_background
4014b588 000000e5 T eap_peer_select_phase2_methods
4014b314 000000e5 t eap_tls_process_output
4012f740 000000e6 T chan14_mic_cfg
3ffb13cc 000000e6 D country_info_24ghz
4012a884 000000e6 T ieee80211_ccmp_encrypt
400dff6c 000000e6 t _ZN17embedded_io_async5Write9write_all28_$u7b$$u7b$closure$u7d$$u7d$17h0f0c929cd3714cbaE
400fb1c8 000000e6 t _ZN8esp_wifi4wifi10os_adapter10mutex_lock17h1dba485cc60f0fd1E
400fb938 000000e6 t _ZN8esp_wifi4wifi10os_adapter26task_create_pinned_to_core17h4a2269be48dfaeccE
40126970 000000e7 T chm_set_current_channel
4014cc74 000000e7 T eap_fast_add_pac
4011f554 000000e7 T ieee80211_mlme_connect_bss
40117490 000000e7 T nan_dp_delete_peer
401469e8 000000e7 t sm_WPA_PTK_GROUP_REKEYNEGOTIATING_Enter$constprop$0
400877f8 000000e7 T wdevProcessRxSucDataAll
400ff4c4 000000e7 t _ZN42_$LT$$RF$T$u20$as$u20$core..fmt..Debug$GT$3fmt17hb9254c7ae7c522eeE
4011e888 000000e8 T ieee80211_send_proberesp
40142090 000000e9 T aes_unwrap
40106d94 000000e9 t _ZN7smoltcp4wire3udp4Repr5parse17h65c40e8ab6f2e503E
40106684 000000e9 t _ZN7smoltcp5iface9interface14InterfaceInner15in_same_network17h3e8d35dc841efffaE
4010b25c 000000ea T esp_wifi_init_internal
4012a408 000000ea T ieee80211_recv_action_vendor_spec
4008c8a4 000000ea T lmacProcessTxSuccess
4012cc1c 000000ea T ram_check_noise_floor
401505f4 000000eb t base64_gen_decode
40109804 000000ec t _ZN4core3cmp9PartialEq2ne17hd76008ad16071ad9E
40107854 000000ec t _ZN7smoltcp5iface9interface4ipv459_$LT$impl$u20$smoltcp..iface..interface..InterfaceInner$GT$15is_broadcast_v417h2cf837d57f342829E
4008c214 000000ed T ieee80211_set_tx_desc
40082e54 000000ee T ppSearchTxQueue
400853f0 000000ef T esf_buf_recycle
40150cb8 000000ef t mp_sqr
40117654 000000ef T nan_dp_post_tx
400feecc 000000ef t _ZN8esp_wifi14common_adapter17phy_disable_clock17he7154673817b20f0E
40119560 000000f0 T nan_nmns_event_hdlr
40118298 000000f0 T nan_parse_ndp_resp
3f4117f4 000000f0 r tls_ciphers
400e1208 000000f0 t _ZN4hkdf17Hkdf$LT$H$C$I$GT$8from_prk17h0d46949eed1152caE
40100204 000000f1 t _ZN8esp_wifi4wifi8WifiMode7current17h478d581c6bd2e19eE
401359e8 000000f2 T ppFillAMPDUBar
4008d010 000000f2 T ppMapWaitTxq
400f7340 000000f2 t _ZN12embedded_tls12write_buffer11WriteBuffer12start_record17h0121f0ebd33455afE
400f1c98 000000f2 t _ZN4core3fmt5Write10write_char17hbf333d0481601b81E
401402b8 000000f3 T x509_parse_time
4010a9d0 000000f3 T _ZN17compiler_builtins3int3mul3Mul3mul17h03f7bd69535e5bf8E
400e01d0 000000f3 t _ZN42_$LT$$RF$T$u20$as$u20$core..fmt..Debug$GT$3fmt17h613b77cb593c0adfE
4011e978 000000f4 T ieee80211_send_deauth_no_bss
40114734 000000f4 T wifi_hw_stop
400ffb88 000000f5 T atoi
401459ec 000000f5 T eloop_register_timeout
40138460 000000f5 T hal_agreement_add_rx_ba
400fcd84 000000f5 t _ZN8esp_wifi4wifi10os_adapter11phy_disable17h2f226e76c72b36a0E
40117f20 000000f6 T nan_sched_parse_avail_entries
40115bec 000000f6 T wifi_ap_remove_sta_node_process
4008a298 000000f6 T wr_bt_tx_gain_mem
400f5c30 000000f6 t _ZN12embedded_tls5alert5Alert5parse17h0ba245a850aa96c9E
4014b3fc 000000f7 T eap_peer_tls_process_helper
4010658c 000000f8 t _ZN7smoltcp5iface8neighbor5Cache6lookup17hc010824908ee306fE
40155c48 000000f9 T eap_fast_parse_tlv
40145160 000000f9 T hmac_sha256_vector
4013ea30 000000f9 T tls_verify_signature
401539d4 000000fa t _ntoa_format
400e1d1c 000000fa t _ZN70_$LT$heapless..string..String$LT$_$GT$$u20$as$u20$core..fmt..Write$GT$10write_char17h925821d11d5d310eE
40139ef8 000000fb T coex_bt_high_prio
4013790c 000000fb T wdev_csi_rx_process
400f8368 000000fc t _RNvCs6MjFWaQOJWH_7___rustc17rust_begin_unwind
400e160c 000000fc t _ZN68_$LT$esp_wifi..config..EspWifiConfig$u20$as$u20$core..fmt..Debug$GT$3fmt17h019b7f0d1e7f1bd3E
4014e3d4 000000fd T pmksa_cache_add_entry
4010c73c 000000fe T ieee80211_crypto_aes_128_cmac_encrypt
4008117c 000000ff T __level_2_interrupt
400fa840 00000100 T __assert_func
3f400020 00000100 R esp_app_desc
3ffb14d8 00000100 D g_timer_info
3f412c58 00000100 r K
40089758 00000100 T phy_force_wifi_chan
4013587c 00000100 T ppCalTkipMic
3f412a50 00000100 r SP1
3f412950 00000100 r SP2
3f412850 00000100 r SP3
3f412750 00000100 r SP4
3f412650 00000100 r SP5
3f412550 00000100 r SP6
3f412450 00000100 r SP7
3f412350 00000100 r SP8
3f411a4e 00000100 R Td4s
40137f74 00000100 T wDev_IndicateCtrlFrame
3f40e5e4 00000100 r _ZN4core7unicode12unicode_data11white_space14WHITESPACE_MAP17hb9ff1ba156332c85E
3ffc7d04 00000100 b _ZN8esp_wifi6compat8_putchar6BUFFER17h07cec23a6ab28a21E
3f40df34 00000100 r _ZN8httparse16HEADER_VALUE_MAP17hc50d8ae54efe1e2cE
3f40de34 00000100 r _ZN8httparse9TOKEN_MAP17hccba070364904813E
4014924c 00000102 T eap_peer_blob_init
400dfd38 00000102 t _ZN17embedded_io_async4Read10read_exact28_$u7b$$u7b$closure$u7d$$u7d$17h9ac294797dee8c9dE
400e3294 00000102 t _ZN82_$LT$reqwless..client..HttpConnection$LT$C$GT$$u20$as$u20$reqwless..TryBufRead$GT$12try_fill_buf28_$u7b$$u7b$closure$u7d$$u7d$17h75b1b7dc6734a467E
4014e9fc 00000103 T wpa_supplicant_send_2_of_4
401116b8 00000104 T ieee80211_decap_amsdu
40112510 00000104 T ieee80211_parse_wpa
40147a1c 00000104 T wpa_parse_kde_ies
40114d68 00000105 T wifi_init_process
400f3acc 00000105 t _ZN11embassy_net5Stack4with17h0aa04e7a9d9b972aE
400e0b34 00000105 t _ZN4core3ptr101drop_in_place$LT$embassy_net..tcp..client..TcpConnection$LT$1_usize$C$1024_usize$C$1024_usize$GT$$GT$17he6c478276d08e7c2E
400880d0 00000106 T bb_bss_cbw40_ana
40114ef4 00000106 T wifi_stop_process
40088cd0 00000107 T bb_reg_init
4008af44 00000107 T correct_rf_ana_gain_new
4012b2e4 00000107 T correct_rfpll_offset
4011ec7c 00000107 T ieee80211_encap_null_data
401145c8 00000107 T wifi_hw_start
40105b44 00000107 t _ZN4sha26sha2564soft22sha256_digest_round_x217hbd3b93a72633ab21E
4012769c 00000108 T cnx_validate_owe_bss
40082f44 00000108 T ppSearchTxframe
4013ae20 00000108 T printf_decode
400faab8 00000108 t _ZN8esp_wifi4wifi10os_adapter24os_adapter_chip_specific7set_isr17h9472bb9f889b99c3E
4013ed44 00000109 T tlsv1_set_private_key
4014d2f0 0000010a t eap_fast_init
40145784 0000010a T sha512_done
40143890 0000010b T hmac_md5_vector
400f30e4 0000010b t _ZN42_$LT$$RF$T$u20$as$u20$core..fmt..Debug$GT$3fmt17h235a6544060acd6eE
40108e24 0000010b t _ZN7smoltcp7storage13packet_buffer21PacketBuffer$LT$H$GT$7enqueue17h7c5394566c2d7968E
40106a10 0000010b t _ZN8heapless10linear_map26LinearMap$LT$K$C$V$C$_$GT$6insert17hbd824dca426e47e2E
40116ddc 00000110 T nan_sched_allocate_crbs
400d4598 00000110 t _ZN12embedded_tls12key_schedule35KeyScheduleState$LT$CipherSuite$GT$7get_key17hc8413cfc1d0b32edE
40108268 00000110 t _ZN7smoltcp6socket3tcp6Socket9rst_reply17hcbdb1fa1bafb7a81E
40100d68 00000112 t _ZN85_$LT$esp_wifi..wifi..MultiWifiEventFuture$u20$as$u20$core..future..future..Future$GT$4poll17ha98eab4b2a172a44E
40144cfc 00000113 T hmac_sha1_vector
40082cec 00000114 T pp_coex_tx_request
40081aa8 00000114 t _ZN5esp3212__INTERRUPTS17h84d9b725d44260f3E
400f0eb8 00000114 t _ZN68_$LT$core..fmt..builders..PadAdapter$u20$as$u20$core..fmt..Write$GT$9write_str17h1ab1446e69ff4804E
4011eec4 00000115 T ieee80211_setup_ratetable
40135304 00000115 T pm_attach
4014e8d4 00000115 t wpa_sm_key_request
400fb400 00000116 t _ZN8esp_wifi4wifi10os_adapter10queue_send17hd10d8bb4390c57e0E
40087128 00000117 T wDev_AppendRxBlocks
40119444 00000119 T nan_nms_event_hdlr
4013cbac 00000119 T tlsv1_client_decrypt
400f40cc 00000119 t _ZN42_$LT$$RF$T$u20$as$u20$core..fmt..Debug$GT$3fmt17hfbd67b8848bac903E
401088ac 00000119 t _ZN7smoltcp4wire3dns8Question5parse17h2a1921b673aa00c9E
40118174 0000011a T nan_parse_ndp_req
4010918c 0000011a t _ZN4core4iter6traits8iterator8Iterator8for_each17hb81c54e6d721e8adE
40104780 0000011a t _ZN90_$LT$core..str..iter..Split$LT$P$GT$$u20$as$u20$core..iter..traits..iterator..Iterator$GT$4next17hf4917140c8520bf7E
40152204 0000011b T crypto_rsa_exptmod
40123918 0000011b T sta_auth_open
4013ddc4 0000011b t tls_write_client_finished
3ffca050 0000011c B gScanStruct
4011091c 0000011c T ieee80211_parse_htcap
40128bcc 0000011c T mgd_probe_send_timeout_process
40129d88 0000011d T cnx_obss_scan_done_cb
4010b9e8 0000011e T esp_wifi_ipc_internal
401484c0 0000011f t ccmp_aad_nonce
4010d770 0000011f T hostap_recv_ctl
400f1ac4 00000121 t _ZN67_$LT$core..net..ip_addr..Ipv4Addr$u20$as$u20$core..fmt..Display$GT$3fmt17he367c92cfc6ed021E
400f6430 00000122 t _ZN12embedded_tls10extensions14extension_data20signature_algorithms15SignatureScheme5parse17h63234e43204d7902E
401523e0 00000123 T crypto_rsa_import_private_key
40141038 00000123 T x509_certificate_chain_validate
400d5ca0 00000123 t _ZN12embedded_tls13record_reader31RecordReader$LT$CipherSuite$GT$7advance28_$u7b$$u7b$closure$u7d$$u7d$17hdda4aceba86efce8E
4014cfc8 00000124 T eap_fast_save_pac
40083204 00000124 T ppProcTxSecFrame
40088e70 00000124 T rx_11b_opt
401476a0 00000125 T wpa_auth_gen_wpa_ie
40116600 00000126 T nan_alloc_beacon
401196c0 00000126 T nan_master_event_hdlr
40087a78 00000126 T pm_update_by_connectionless_status
40135b60 00000126 T ppReSendBar
401504cc 00000126 T wpa_supplicant_parse_ies
40116868 00000127 T nan_alloc_action
40116734 00000127 T nan_alloc_sdf
4012164c 00000127 T scan_start
4014c900 00000129 t eap_fast_write
40086fdc 00000129 T ppRxPkt
400f1278 00000129 t _ZN4core7unicode9printable12is_printable17h547708ce1f92ed52E
40125b80 0000012a T ppInstallKey
40148afc 0000012a T tls_prf_sha1_md5
400f193c 0000012a t _ZN4core3fmt8builders11DebugStruct10field_with17h481d2e09a2973289E
401002f8 0000012a t _ZN8esp_wifi4wifi18esp_wifi_send_data17hbcc2f986dd76c94aE
4012b534 0000012b t get_rf_freq_init$part$2
400fe980 0000012c t _ZN8esp_wifi6compat6common12create_queue17hc019b78e8a7158d8E
40139928 0000012d T mac_tx_set_htsig
40083854 0000012d T ppProcessTxQ
4013ef48 0000012d T tlsv1_record_send
400dfe3c 0000012d t _ZN17embedded_io_async4Read10read_exact28_$u7b$$u7b$closure$u7d$$u7d$17hfd91f730f67d11bbE
40115598 0000012e T wifi_send_mgmt_frame
40105c4c 00000131 t _ZN4sha26sha2564soft8schedule17hc1ba6d6b07a66884E
4008acdc 00000132 T get_rate_fcc_index
400e36fc 00000134 t _ZN8reqwless7request12write_header28_$u7b$$u7b$closure$u7d$$u7d$17h9aa47c0ad3b365feE
4011121c 00000135 T ieee80211_add_htinfo_body
4011c2b0 00000135 T ieee80211_send_setup
40086650 00000136 T pm_dream
4008b974 00000136 T pp_post
4015130c 00000137 t fast_s_mp_mul_digs
40085f78 00000138 T esf_buf_alloc
40118454 00000138 T nan_rx_naf
400e02c4 00000138 t _ZN42_$LT$$RF$T$u20$as$u20$core..fmt..Debug$GT$3fmt17hb4e940d729dcda39E
4014fca4 0000013a T eapol_txcb
400fd3b0 0000013a T ets_timer_disarm
40123a3c 0000013a T sta_auth_shared
401422ec 0000013b T crypto_cipher_encrypt
4013c88c 0000013b T tls_derive_keys
4011e418 0000013c T ieee80211_send_nulldata
40111c48 0000013c T ieee80211_set_max_rate
40136df8 0000013c T rssi_margin
401396d0 0000013d T hal_mac_tsf_reset
40118028 0000013d T nan_dp_parse_availability
4013fc94 00000140 t x509_parse_ext_alt_name
4010c850 00000141 T ieee80211_crypto_aes_128_cmac_decrypt
400d3b88 00000141 t _ZN12embedded_tls10connection7respond28_$u7b$$u7b$closure$u7d$$u7d$17h98ea96649d638965E
4008ce44 00000142 T ppProcTxDone
401460cc 00000142 t sm_WPA_PTK_PTKCALCNEGOTIATING_Enter$constprop$0
401468a4 00000142 t sm_WPA_PTK_PTKINITNEGOTIATING_Enter$constprop$0
4013ce24 00000142 T tlsv1_client_get_cipher
40148044 00000143 T wpa_parse_wpa_ie_wpa
40149f48 00000145 t eap_peap_init
40151624 00000145 t mp_div
40138848 00000146 T hal_crypto_set_key_entry
400f0c3c 00000147 t _ZN4core3fmt3num3imp21_$LT$impl$u20$u32$GT$4_fmt17hc62120785855578aE
4014f134 00000148 t wpa_supplicant_install_gtk$constprop$0
400f09f4 00000148 t _ZN4core3fmt5write17h6c72d92f235dad40E
400f0134 0000014a t _ZN4core3fmt3num3imp23_$LT$impl$u20$usize$GT$4_fmt17hafcfffdcbf513db2E
40129650 0000014e T cnx_sta_associated
40144e30 0000014f t sha256_compress
40125a2c 00000150 T esp_wifi_set_ap_key_internal
400fd6ac 00000150 T ets_timer_setfn
40110420 00000150 T ieee80211_ampdu_request
4008c9c4 00000150 T lmacProcessTxComplete
400dfbe4 00000151 t _ZN17embedded_io_async4Read10read_exact28_$u7b$$u7b$closure$u7d$$u7d$17h28e3b7fdc9e1e8c7E
4011c3f0 00000152 T ieee80211_tx_mgt_cb
4010d474 00000153 T hostap_handle_timer_process
40148f18 00000155 T eap_sm_build_nak
4010d60c 00000155 T hostap_auth_open
4011a1d0 00000155 T nan_construct_subscribe_sdf
400ff14c 00000156 t _ZN92_$LT$esp_wifi..preempt_builtin..BuiltinScheduler$u20$as$u20$esp_wifi..preempt..Scheduler$GT$11task_create17h482641a7631b47c3E
3ffc92f8 00000158 B s_ni
40102024 00000158 t _ZN4core3str7pattern14TwoWaySearcher4next17hdbb14f897bd1752bE
400f9a8c 00000158 t _ZN7esp_hal8rtc_cntl8RtcClock18calibrate_internal17h0f92ace768cef414E
4010102c 00000158 t _ZN8esp_wifi5tasks10timer_task17h44ff3e971530580cE
4008c690 0000015a T lmacSetTxFrame
4012e110 0000015a T noise_check_loop
4008aa14 0000015a T write_txrate_power_offset
40142428 0000015b T crypto_cipher_decrypt
4012cea0 0000015b T ram_gen_rx_gain_table
40135cd4 0000015d T pp_create_task
400e2370 0000015d t _ZN7smoltcp4wire3arp4Repr4emit17h86661d75f5f5fb7bE
400efe8c 0000015d t _ZN80_$LT$const_oid..arcs..Arcs$u20$as$u20$core..iter..traits..iterator..Iterator$GT$4next17h98deb23fda98bcd4E
400fd218 0000015e t _ZN8esp_wifi14common_adapter8read_mac17h247900df954a0badE
400fed2c 0000015f t _ZN8esp_wifi6compat12timer_compat19compat_timer_arm_us17h5c97698b1fd6107bE
4011f790 00000160 T ieee80211_regdomain_update
3f4118e4 00000160 r tls_cipher_suites
4010dbf0 00000160 T wifi_softap_stop
40151fb4 00000162 T pkcs8_key_import
4011c558 00000166 T ieee80211_classify
40141ef4 00000166 T omac1_aes_vector
4011b600 00000166 T wifi_nvs_set
40110ed0 00000167 T ieee80211_ht_updateparams
4010ddf4 00000169 T ap_try_sa_query_process
401244c8 00000169 T sta_try_sa_query_process
40089104 0000016b T set_chan_reg
40086a64 0000016d T pm_process_tim
4010b4f4 0000016f T esp_wifi_stop
40131eb0 00000170 T ram_phy_get_vdd33
401201ac 00000170 T scan_update_scan_history
4008127c 00000173 T __level_1_interrupt
400e3588 00000173 t _ZN87_$LT$digest..core_api..wrapper..CoreWrapper$LT$T$GT$$u20$as$u20$digest..FixedOutput$GT$13finalize_into17he381a0b6aaa8b0c5E
40125804 00000174 T wifi_set_rx_policy
40131a90 00000175 T tx_pwctrl_init_cal
401508e0 00000176 T asn1_get_next
4012ed94 00000176 T rf_cal_data_backup
400f985c 00000176 t _ZN7esp_hal5timer4timg5Timer21set_interrupt_handler17h2d54e343779908f5E
4008c078 00000178 T ieee80211_output_do
40131374 00000178 T tx_cap_init
4010c4a0 00000178 T wifi_mode_set
400d441c 00000179 t _ZN12embedded_tls12key_schedule35KeyScheduleState$LT$CipherSuite$GT$24calculate_traffic_secret17hb08e4c30c2162e42E
400d6570 00000179 t _ZN12embedded_tls6asynch41TlsConnection$LT$Socket$C$CipherSuite$GT$5write28_$u7b$$u7b$closure$u7d$$u7d$17h8826c33451d91765E
40088b04 0000017b T agc_reg_init
401153f0 0000017b T ieee80211_set_appie
40123b7c 0000017b T sta_auth_sae
401482cc 0000017b T wpa_pmk_to_ptk
40083054 0000017d T ppMapTxQueue
40115d80 0000017e T ieee80211_ioctl
40132234 0000017f T esf_buf_setup
40133224 0000017f T lmacProcessLongRetryFail
40151af8 00000181 t mp_reduce
4015328c 00000182 t pkcs12_key_gen
4008bc70 00000182 T wDev_ProcessFiq
401085a4 00000182 t _ZN7smoltcp7storage9assembler9Assembler21add_then_remove_front17h28a829a385f47df3E
400d63e8 00000185 t _ZN12embedded_tls6asynch41TlsConnection$LT$Socket$C$CipherSuite$GT$5flush28_$u7b$$u7b$closure$u7d$$u7d$17h36a436adb1c6810eE
4011b7d0 00000186 T wifi_nvs_compare_cfg_diff
40130028 00000187 T ram_txiq_cover
400d3ccc 00000187 t _ZN12embedded_tls12key_schedule25Secret$LT$CipherSuite$GT$24make_expanded_hkdf_label17hee3c59021c64a02fE
4011e010 00000188 T ieee80211_output_raw_process
4008c32c 00000188 T sta_rx_eapol
40108378 00000188 t _ZN7smoltcp6socket3tcp6Socket9ack_reply17h34591d1ae48b6629E
4010a008 0000018d t _ZN7smoltcp4wire4ipv44Repr4emit17h8ced25004991c1f0E
4013f078 0000018f T tlsv1_record_receive
40100bd8 0000018f t _ZN8esp_wifi4wifi15apply_ap_config17h5c01ba96c709bb98E
4011512c 00000190 T wifi_set_country
40142ce8 00000193 t deskey
400d46a8 00000196 t _ZN12embedded_tls12key_schedule35KeyScheduleState$LT$CipherSuite$GT$9get_nonce17h007ed9465a186eb1E
400e08b4 00000197 t _ZN4core3fmt3num50_$LT$impl$u20$core..fmt..Debug$u20$for$u20$u16$GT$3fmt17h4a4e152631317e7fE
400f7928 00000199 t _ZN9esp_alloc7EspHeap10alloc_caps17he48c5d670eb9bac4E
4010d20c 0000019a T ieee80211_hostap_attach
4010ae78 0000019a T wifi_softap_get_config
401474d0 0000019a T wpa_write_rsn_ie
401326b0 0000019b T ic_set_vif
4013481c 0000019c T pm_tx_null_data_done_process
40147ea4 0000019d T wpa_parse_wpa_ie_rsn
40149070 0000019f T eap_peer_config_init
4014abfc 0000019f t eap_tls_process
40080fdc 000001a0 T __level_3_interrupt
401344c4 000001a5 T pm_coex_schm_process
40114a44 000001a6 T wifi_menuconfig_init
4008cb18 000001a8 T pm_tx_data_process
4011fff0 000001a9 T scan_prefer_chan
4008622c 000001aa T pm_parse_beacon
400f31f0 000001ae t _ZN44_$LT$$RF$T$u20$as$u20$core..fmt..Display$GT$3fmt17h27d04bf2285f22e5E
4012fc64 000001af T ram_txdc_cal_v70
4008a470 000001b0 T set_most_pwr_reg
4011db54 000001b1 T ieee80211_encap_amsdu
4013c22c 000001b2 T hostap_init
400f90ac 000001b2 t _ZN7esp_hal9interrupt6xtensa16setup_interrupts17h30e8a7a38b390c1eE
4012c41c 000001b3 T set_chan_freq_sw_start
40108ba8 000001b3 t _ZN7smoltcp4wire3dns6Record5parse17hd55313476eefc38aE
40106b7c 000001b4 t _ZN7smoltcp5iface8neighbor5Cache4fill17hf0710be4ebd5d54aE
400ffcf4 000001b6 T mktime
4010c9a4 000001b7 T ieee80211_crypto_gmac_decrypt
401138b4 000001b7 T ieee80211_set_phy_bw
4013c9c8 000001b8 T tlsv1_client_handshake
400f205c 000001b9 t _ZN41_$LT$char$u20$as$u20$core..fmt..Debug$GT$3fmt17h3f517456281c6f7aE
40086790 000001ba T pm_sleep
4013b508 000001bb T eap_sm_process_request
4014d130 000001be T eap_fast_load_pac_bin
4011a010 000001be T nan_construct_publish_sdf
401119a0 000001bf T ieee80211_decap
400fd4ec 000001c0 T ets_timer_done
400d2df8 000001c0 t _ZN101_$LT$embassy_net..tcp..client..TcpConnection$LT$_$C$_$C$_$GT$$u20$as$u20$embedded_io_async..Write$GT$5write28_$u7b$$u7b$closure$u7d$$u7d$17haecd5f2ac5f13dfeE
4010fd08 000001c2 T ieee80211_ht_attach
40082670 000001c2 T lmacTxFrame
40134f30 000001c2 T pm_start
400f0280 000001c2 t _ZN4core3fmt9Formatter12pad_integral17h64c6bc1ab36baf49E
4012d364 000001c3 T rx_chan_dc_sort
4012a6b8 000001c5 T ieee80211_ccmp_decrypt
4013510c 000001c6 T pm_stop
4014a8fc 000001ca t eap_peap_process
4008c4bc 000001ca T esf_buf_alloc_dynamic
400885d4 000001ce T ram_spur_coef_cfg
400f2ce8 000001ce t _ZN4core3fmt3num3imp52_$LT$impl$u20$core..fmt..Display$u20$for$u20$u64$GT$3fmt17h64ef4ec31dac3e6aE
3ffcb5f8 000001d0 B g_pm
400f4c38 000001d0 t _ZN58_$LT$der..error..ErrorKind$u20$as$u20$core..fmt..Debug$GT$3fmt17hf70460463003bffeE.287
40101db8 000001d1 t _ZN90_$LT$core..str..iter..Split$LT$P$GT$$u20$as$u20$core..iter..traits..iterator..Iterator$GT$4next17hd389742add78e892E
400e3bb0 000001d2 t _ZN8reqwless8response7chunked26ChunkedBodyReader$LT$C$GT$22read_next_chunk_length28_$u7b$$u7b$closure$u7d$$u7d$17h4f7c3ee31a746532E
400e3d84 000001d2 t _ZN8reqwless8response7chunked26ChunkedBodyReader$LT$C$GT$22read_next_chunk_length28_$u7b$$u7b$closure$u7d$$u7d$17h6d02f178fbb8254aE
400e3f58 000001d2 t _ZN8reqwless8response7chunked26ChunkedBodyReader$LT$C$GT$22read_next_chunk_length28_$u7b$$u7b$closure$u7d$$u7d$17hcbb4709d6d9b1c25E
40083d9c 000001d3 T ppTask
401426e0 000001d4 T crypto_hash_init
40138128 000001d5 T wDev_Rxbuf_Init
4013dee0 000001d7 T tls_send_client_hello
4012d8e4 000001d7 T wr_rx_gain_mem
40131cb4 000001da T bt_tx_pwctrl_init
400833a8 000001db T ppTxPkt
401301b0 000001dd T rfcal_txiq
401089c8 000001dd t _ZN7smoltcp6socket3dns8eq_names17h80f1a32e647ebbfeE
40142b08 000001de t desfunc
401297b0 000001e0 W cnx_node_leave
3f40b0d0 000001e0 R g_wifi_osi_funcs
4011482c 000001e2 T wifi_set_mode_process
4013b6c4 000001e4 T wpa2_task
400d7c2c 000001e5 t _ZN15esp_hal_embassy8executor6thread8Executor9run_inner17hfdf931c7ae3de8b2E
401428f0 000001eb T crypto_hash_finish
4014ae90 000001ec T eap_peer_tls_ssl_init
40131180 000001ec T ram_rfcal_txcap
4011ea84 000001ee T ieee80211_beacon_alloc
400e3398 000001ef t _ZN85_$LT$reqwless..client..HttpConnection$LT$T$GT$$u20$as$u20$embedded_io_async..Read$GT$4read28_$u7b$$u7b$closure$u7d$$u7d$17h2871b55969e32723E
4010a7e0 000001f0 T _ZN17compiler_builtins5float3div3div17heda295e2dcc7b110E
400e0670 000001f0 t _ZN4aead11AeadInPlace16decrypt_in_place17h870dec3f1fd96f2dE
4014c44c 000001f1 t eap_ttls_process
400e03fc 000001f1 t _ZN42_$LT$$RF$T$u20$as$u20$core..fmt..Debug$GT$3fmt17hd6386d2f2ea9f97cE
40137140 000001f2 T rcUpdateRate
401009e4 000001f2 t _ZN8esp_wifi4wifi16apply_sta_config17h7f4dae62b0ad125bE
400f7ac4 000001f5 t _ZN71_$LT$esp_alloc..EspHeap$u20$as$u20$core..alloc..global..GlobalAlloc$GT$7dealloc17h9ce9f5bdbca4e94eE
400d2b28 000001f7 t _ZN100_$LT$embassy_net..tcp..client..TcpConnection$LT$_$C$_$C$_$GT$$u20$as$u20$embedded_io_async..Read$GT$4read28_$u7b$$u7b$closure$u7d$$u7d$17h5ab01c0af673f93cE
40132fb8 000001fb T lmacProcessShortRetryFail
400d66ec 000001ff t _ZN12embedded_tls6buffer12CryptoBuffer15with_u16_length17h9f50aaaae7d60db5E
400e216c 00000204 t _ZN7aes_gcm39AesGcm$LT$Aes$C$NonceSize$C$TagSize$GT$8init_ctr17had753000257a94beE
40147810 0000020c T wpa_validate_wpa_ie
40131794 0000020d T ram_tx_pwr_backoff
4012e318 00000211 T set_rx_gain_table
400fb5d4 00000211 t _ZN8esp_wifi4wifi10os_adapter10queue_recv17h64cb92885407d4e7E
400f1728 00000212 t _ZN4core3str8converts9from_utf817hd25209136f8134aeE
400eeee4 00000214 t _ZN3aes4soft8fixslice9sub_bytes17h0bba0f00187eb6e0E
4012e7ac 00000215 T register_chipv7_phy_init_param
4014fee4 00000215 T wpa_set_bss
4011ca48 00000217 T ieee80211_mgmt_output
40084c28 0000021a T ieee80211_ampdu_reorder
400eecc8 0000021a t _ZN3aes4soft8fixslice8bitslice17hc0fd0e75eee75163E
400f8df0 0000021a t _ZN7esp_hal6system17assert_peri_reset17h9b228d1eaee2896aE
4012280c 0000021c T sta_rx_csa
40103374 0000021c t _ZN4p25610arithmetic5field10field_impl6fe_sub17hdb658b6efda78140E
40081498 0000021e t _ZN8esp_wifi14common_adapter11semphr_take17h5354b97a7cf501f8E
401282e0 00000220 T cnx_sta_connect_cmd
401044ec 00000220 t _ZN4core3str21_$LT$impl$u20$str$GT$12trim_matches17hba968df2b33419cfE
3ffc9458 00000224 B s_dp
3ffca180 00000228 B gChmCxt
4012dad0 00000228 T set_rx_gain_testchip_70
401007b0 00000234 t _ZN72_$LT$esp_wifi..wifi..WifiController$u20$as$u20$core..ops..drop..Drop$GT$4drop17h51b5ec0641407593E
4011e55c 00000235 T ieee80211_send_probereq
40138f78 00000236 T mac_txrx_init
401341a4 00000238 T pm_set_next_tbtt
40140068 0000023c T x509_parse_name
40131548 0000024a T ram_rfcal_pwrctrl
4011a64c 0000024c T nan_sd_receive_ctrl
4010a480 0000024c t _ZN42_$LT$$RF$T$u20$as$u20$core..fmt..Debug$GT$3fmt17h2d1f803ee77dc2a8E
40082200 00000258 T ieee80211_output_process
40137d0c 00000264 T wDev_SnifferRxData
4012ea7c 00000265 T phy_get_romfunc_addr
4014cd5c 0000026a T eap_fast_load_pac
4014ec10 0000026b T wpa_supplicant_process_1_of_4
400e1efc 0000026d t _ZN7aes_gcm39AesGcm$LT$Aes$C$NonceSize$C$TagSize$GT$11compute_tag17h27712cf64d71bc27E
400f291c 00000272 t _ZN4core3str19slice_error_fail_rt17h3ac2f7ab89cea5ddE
4011e198 00000276 W ieee80211_beacon_construct
40087240 0000027e T wDev_IndicateFrame
3f412d58 00000280 r K
400f7fd0 00000283 t _ZN65_$LT$esp_backtrace..arch..Context$u20$as$u20$core..fmt..Debug$GT$3fmt17h69f96c8bdb0b3b9dE
40140d8c 00000289 T x509_check_signature
4012f45c 0000028b T register_chipv7_phy
40082920 00000292 T lmacEndFrameExchangeSequence
4013685c 00000294 T rcUpdatePhyMode
40129ed8 00000296 T cnx_auth_done
4012939c 00000296 T cnx_sta_leave
40150204 00000296 T wpa_gen_wpa_ie
4008b0f4 00000297 T set_chan_dig_gain
400f552c 00000299 t _ZN134_$LT$primeorder..point_arithmetic..EquationAIsMinusThree$u20$as$u20$primeorder..point_arithmetic..sealed..PointArithmetic$LT$C$GT$$GT$6double17hca6f0b83f158629cE
40130edc 0000029a T rc_cal
40106770 0000029d t _ZN7smoltcp5iface5route6Routes6lookup17h2a0396c197be673dE
4011dd18 0000029e W ieee80211_alloc_proberesp
40133e84 0000029f T pm_coex_separate_connectionless_window
4012de50 000002a0 T set_rx_sense
4012c888 000002a3 T ram_set_pbus_mem
40088274 000002a7 T phy_i2c_init
3ffc8f70 000002a8 B g_ic
40087c04 000002ae T pm_update_next_tbtt
400f05c8 000002b2 t _ZN4core3fmt9Formatter3pad17hbd255515172af9d8E
40083598 000002b4 T ppCalTxAMPDULength
40109c78 000002c0 t _ZN7smoltcp4wire3tcp9TcpOption4emit17h962b4b119c373f12E
40107a04 000002c0 t _ZN7smoltcp4wire6icmpv44Repr5parse17hb8552c671c183501E
400fce7c 000002c6 t _ZN8esp_wifi4wifi10os_adapter10phy_enable17h81c32b2435021d2cE
40128660 000002d0 T cnx_bss_alloc
401178ac 000002d2 T nan_construct_ndp_resp
40116268 000002d8 W nan_input
401299c0 000002da T cnx_node_join
40085b30 000002da T wDev_IndicateAmpdu
40101900 000002dc t _ZN8httparse8Response5parse17hcdab8430e5173a76E
40119860 000002e2 T nan_am_event_hdlr
400f666c 000002e6 t _ZN12embedded_tls10extensions8messages20ServerHelloExtension12parse_vector17hcc60b59b6b27ffceE
401304fc 000002eb T ram_pbus_rx_dco_cal
3f4065f3 000002ef r _ZN4core7unicode12unicode_data15grapheme_extend7OFFSETS17h886bf0636f062ea5E
400874e8 000002f5 T wDev_ProcessRxSucData
4012f0b0 000002f7 T phy_rfcal_data_check_value
40103070 00000302 t _ZN4p25610arithmetic5field10field_impl6fe_add17ha04822900b72804cE
4011d4c8 00000312 T ieee80211_auth_construct
4008b3a8 00000313 T tx_pwctrl_cal
40146498 00000314 T __wpa_send_eapol
4011d1a4 00000316 W ieee80211_assoc_resp_construct
4012f910 00000321 T phy_dig_reg_backup
40153fe8 0000032b t _ftoa
40141bc8 0000032b T rijndaelKeySetupEnc
3ffc8c40 0000032c B gWpaSm
400840b8 0000032e T rcUpdateTxDoneAmpdu2
400f4e9c 00000332 t _ZN134_$LT$primeorder..point_arithmetic..EquationAIsMinusThree$u20$as$u20$primeorder..point_arithmetic..sealed..PointArithmetic$LT$C$GT$$GT$3add17hb90511753a80f634E
4010d8b0 0000033a T wifi_softap_start
4012d028 0000033b T set_rx_gain_cal_iq
4014534c 0000033c t sha512_compress
401517b4 00000341 t s_mp_exptmod$constprop$0
4013d52c 00000344 t tls_process_certificate
400d594c 00000354 t _ZN12embedded_tls13record_reader31RecordReader$LT$CipherSuite$GT$4read28_$u7b$$u7b$closure$u7d$$u7d$17hd3f2c3a67d6ddc6fE
4010ce60 0000035a T ieee80211_hostap_send_beacon_process
400f51d0 0000035b t _ZN10primeorder10projective24ProjectivePoint$LT$C$GT$3mul17hb48c76f3f4b08857E
4013d1c8 00000361 t tls_process_server_key_exchange
4014c0dc 0000036d t eap_ttls_decrypt
40119b54 00000371 T nan_scan_event_hdlr
40110b00 00000372 T ieee80211_update_channel
40080c68 00000373 t _ZN7esp_hal4gpio9interrupt30default_gpio_interrupt_handler17h4485dbddeff7447eE
400e3830 0000037e t _ZN8reqwless7request9write_str28_$u7b$$u7b$closure$u7d$$u7d$17h36b69a517bbb85d2E
40128eac 0000037f T cnx_update_bss_more
40109484 0000037f t _ZN7smoltcp6socket6dhcpv46Socket9parse_ack17h4ff1e0d6b354dda6E
4014dde4 00000388 t eap_fast_process
40146fa8 000003a7 T wpa_receive
4012d52c 000003ae T set_rx_gain_cal_dc
40153c30 000003b5 t _etoa
400d4840 000003b6 t _ZN12embedded_tls12write_buffer11WriteBuffer12close_record17h34b77605dd92532bE
400f896c 000003b7 t _ZN7esp_hal6system22PeripheralClockControl21enable_forced_with_cs17hce8245068f1d10a1E
4008399c 000003c3 T ppResortTxAMPDU
400d3f48 000003c4 t _ZN12embedded_tls12key_schedule30SharedState$LT$CipherSuite$GT$10initialize17h6ff1335dc827201bE
3ffb1854 000003cc D TxRxCxt
40146b54 000003ce t wpa_sm_step
40105e8c 000003dc t _ZN7smoltcp5iface9interface9Interface7poll_at28_$u7b$$u7b$closure$u7d$$u7d$17hc7ae1061fb1d270dE
401417c0 000003ea T aes_encrypt
400e412c 000003f9 t _ZN91_$LT$aes_gcm..AesGcm$LT$Aes$C$NonceSize$C$TagSize$GT$$u20$as$u20$crypto_common..KeyInit$GT$3new17h3daff7da6557c2caE
3f411b50 00000400 R Td0
3f411f50 00000400 R Te0
40085640 00000402 T ppRxFragmentProc
400e1708 0000040b t _ZN6cipher11stream_core16StreamCipherCore28apply_keystream_blocks_inout17hfce59edb622fa37cE
400f3bd4 00000410 t _ZN11embassy_net5Inner19apply_static_config17h8ec902453f1f1b95E
400f9f20 00000411 t _ZN15esp_hal_embassy11timer_queue10TimerQueue8dispatch17h0a69107c14f02dddE
40141360 00000418 T aes_decrypt
400f57c8 0000042e t _ZN10primeorder10projective24ProjectivePoint$LT$C$GT$9to_affine17hc6185c991b8838ecE
4012bda0 00000448 T bt_get_i2c_data
40152ba8 00000456 t MD4Transform
400d3718 0000046d t _ZN12embedded_tls10connection21process_server_verify28_$u7b$$u7b$closure$u7d$$u7d$17h0d5cade13428f539E
40115768 00000477 T wifi_set_config_process
4011cd18 00000478 T ieee80211_assoc_req_construct
400e0d80 00000488 t _ZN4hkdf17Hkdf$LT$H$C$I$GT$6expand17h62f0b16441887ed2E
400f2478 0000048d t _ZN40_$LT$str$u20$as$u20$core..fmt..Debug$GT$3fmt17h97beb5af829d6bf0E
3ffc967c 000004c4 B s_sd
400f7434 000004f3 t _ZN12embedded_tls10extensions8messages20ClientHelloExtension6encode17h9ec4d5f13293e831E
3ffc9b40 00000504 B s_wifi_nvs
4013d870 00000506 T tlsv1_client_process_handshake
40081c84 0000051d T ieee80211_encap_esfbuf
40084e90 0000053b T sta_input
40103660 00000543 t _ZN4p25610arithmetic5field12FieldElement8to_bytes17h80826636b5b3eaa7E
40120a5c 00000556 T scan_profile_check
4014bae4 0000056b t eap_ttls_phase2_request
4012b6cc 00000570 T bt_i2c_write_set
40107cc4 000005a3 t _ZN7smoltcp4wire3tcp4Repr5parse17h757922281e3e0c5bE
401011e4 000005aa t _ZN8httparse25parse_headers_iter_uninit17h63bf06dfa2320d9dE
40153410 000005c2 T pkcs5_decrypt
4013e0b8 000005c3 T tlsv1_client_handshake_write
40111f3c 000005d2 T ieee80211_parse_beacon
3ffc7e08 000005d4 b _ZN8esp_wifi4wifi11WifiTxToken13consume_token6BUFFER17h0f29001d75868ca4E
400d5dc4 00000622 t _ZN12embedded_tls6asynch41TlsConnection$LT$Socket$C$CipherSuite$GT$13read_buffered28_$u7b$$u7b$closure$u7d$$u7d$17h0465fbd2205c60afE
40149658 0000062f t eap_mschapv2_process
40123dc8 00000676 T sta_recv_assoc
4013084c 00000679 T pbus_rx_dco_cal_1step
4010efb0 000006b7 T hostap_input
400d304c 000006c9 t _ZN11embassy_net3dns9DnsSocket5query28_$u7b$$u7b$closure$u7d$$u7d$17h2055523bf1eec823E
40143038 00000702 t MD5Transform
40154324 0000073b t _vsnprintf
4011ae08 00000795 T wifi_nvs_cfg_init
40113ce4 000007f5 T wifi_softap_set_config
40112800 000007f8 T ieee80211_parse_rsn
40103ba4 0000084a t _ZN78_$LT$polyval..backend..soft..Polyval$u20$as$u20$universal_hash..UhfBackend$GT$10proc_block17ha096e608cacac3e6E
4014a090 0000086a t eap_peap_decrypt$constprop$0
400f4258 000008b4 t _ZN108_$LT$primeorder..affine..AffinePoint$LT$C$GT$$u20$as$u20$elliptic_curve..point..DecompressPoint$LT$C$GT$$GT$10decompress17h4caa650f3a5ea52fE
4013f2f4 000008fd T tls_process_ocsp_response
4014d4b0 00000933 t eap_fast_decrypt
4014f300 00000939 T wpa_sm_rx_eapol
40106ef0 00000962 t _ZN7smoltcp6socket6dhcpv46Socket7process17h0854feccc6b43a22E
400f6954 00000989 t _ZN12embedded_tls9handshake12server_hello11ServerHello23calculate_shared_secret17h96e71ff5f6a5ffe2E
40140400 0000098b T x509_certificate_parse
400ef0f8 00000a90 t _ZN3aes4soft8fixslice14aes128_encrypt17h189412ac40b0c420E
40124674 00000a9f T sta_recv_mgmt
40122da8 00000aa1 T ieee80211_sta_new_state
3ffb2188 00000ad8 b _ZN8esp_test13NET_RESOURCES17hd9d9f6ac4af99488E
401219b4 00000bf3 T scan_parse_beacon
400d4bf8 00000d52 t _ZN12embedded_tls12write_buffer11WriteBuffer12write_record17h03b1aa4f8ae636feE
400e24d0 00000dc1 t _ZN7smoltcp5iface9interface14InterfaceInner11dispatch_ip17habcdfc4907feea8eE
4010217c 00000ea6 t _ZN4p25610arithmetic5field10field_impl6fe_mul17h5802513aaa146737E
400fbd1c 00000eb6 t _ZN8esp_wifi4wifi10os_adapter10event_post17hda32fef94bb3e51fE
3ffca3a8 00000ef8 B g_cnxMgr
400e4528 00000f57 t _ZN9rand_core5block17BlockRng$LT$R$GT$16generate_and_set17h1640a1059cd8d472E
4010dfe8 00000fae T hostap_recv_mgmt
401439bc 000010eb T SHA1Transform
4010489c 000012a7 t _ZN4sha26sha25611compress25617hfe5128fffdc0e330E
400d68ec 000012c6 t _ZN12embedded_tls9handshake34ServerHandshake$LT$CipherSuite$GT$4read17had5acdef9ede7ac8E
400de14c 00001a10 t _ZN16embassy_executor3raw20TaskStorage$LT$F$GT$4poll17ha918816d5f831867E
400dbc48 00002503 t _ZN16embassy_executor3raw20TaskStorage$LT$F$GT$4poll17h98fc48e153d4fdbeE
400d7e14 00003e33 t _ZN16embassy_executor3raw20TaskStorage$LT$F$GT$4poll17h0ff6c1c1a0326546E
3ffc2c84 00005004 b _ZN16embassy_executor7_export5ARENA17h98f0c3cd26fd7f34E
400e5480 00009815 t _ZN8esp_test15print_public_ip28_$u7b$$u7b$closure$u7d$$u7d$17hcdd6356c129e8901E
3ffb2c78 00010000 b _ZN8esp_test21____embassy_main_task28_$u7b$$u7b$closure$u7d$$u7d$4HEAP17h31782136585982ffE
3ffe7e30 00010000 b _ZN8esp_test21____embassy_main_task28_$u7b$$u7b$closure$u7d$$u7d$4HEAP17hd900eb72d80e70a6E
