
target/xtensa-esp32-none-elf/release/esp-test:     file format elf32-xtensa-le

SYMBOL TABLE:
40080400 l    d  .rwtext	00000000 .rwtext
40082218 l    d  .rwtext.wifi	00000000 .rwtext.wifi
3ffc0000 l    d  .data	00000000 .data
3ffc24dc l    d  .data.wifi	00000000 .data.wifi
3ffc2c10 l    d  .bss	00000000 .bss
3ffdcd0c l    d  .noinit	00000000 .noinit
3f400020 l    d  .rodata_desc	00000000 .rodata_desc
3f400120 l    d  .rodata	00000000 .rodata
3f415318 l    d  .rodata.wifi	00000000 .rodata.wifi
400d0020 l    d  .text	00000000 .text
40167228 l    d  .coexsleepiram.26	00000000 .coexsleepiram.26
40167238 l    d  .wifiorslpiram.27	00000000 .wifiorslpiram.27
400c0000 l    d  .rtc_fast.text	00000000 .rtc_fast.text
40080000 l    d  .vectors	00000000 .vectors
3ff80000 l    d  .rtc_fast.dummy	00000000 .rtc_fast.dummy
3ff80000 l    d  .rtc_fast.data	00000000 .rtc_fast.data
3ff80000 l    d  .rtc_fast.bss	00000000 .rtc_fast.bss
3ff80000 l    d  .rtc_fast.persistent	00000000 .rtc_fast.persistent
50000000 l    d  .rtc_slow.text	00000000 .rtc_slow.text
50000000 l    d  .rtc_slow.data	00000000 .rtc_slow.data
50000000 l    d  .rtc_slow.bss	00000000 .rtc_slow.bss
50000000 l    d  .rtc_slow.persistent	00000000 .rtc_slow.persistent
3ffdcd0c l    d  .stack	00000000 .stack
3ffe7e30 l    d  .dram2_uninit	00000000 .dram2_uninit
00000000 l    d  .espressif.metadata	00000000 .espressif.metadata
00000000 l    d  .debug_loc	00000000 .debug_loc
00000000 l    d  .debug_abbrev	00000000 .debug_abbrev
00000000 l    d  .debug_info	00000000 .debug_info
00000000 l    d  .debug_aranges	00000000 .debug_aranges
00000000 l    d  .debug_ranges	00000000 .debug_ranges
00000000 l    d  .debug_str	00000000 .debug_str
00000000 l    d  .comment	00000000 .comment
00000000 l    d  .xtensa.info	00000000 .xtensa.info
00000000 l    d  .debug_line	00000000 .debug_line
00000000 l    d  .debug_frame	00000000 .debug_frame
00000000 l    df *ABS*	00000000 esp_test.9268f8d0f7fc1d9f-cgu.0
00000000 l       *ABS*	00000000 XT_STK_PC
00000004 l       *ABS*	00000000 XT_STK_PS
00000008 l       *ABS*	00000000 XT_STK_A0
0000000c l       *ABS*	00000000 XT_STK_A1
00000010 l       *ABS*	00000000 XT_STK_A2
00000014 l       *ABS*	00000000 XT_STK_A3
00000018 l       *ABS*	00000000 XT_STK_A4
0000001c l       *ABS*	00000000 XT_STK_A5
00000020 l       *ABS*	00000000 XT_STK_A6
00000024 l       *ABS*	00000000 XT_STK_A7
00000028 l       *ABS*	00000000 XT_STK_A8
0000002c l       *ABS*	00000000 XT_STK_A9
00000030 l       *ABS*	00000000 XT_STK_A10
00000034 l       *ABS*	00000000 XT_STK_A11
00000038 l       *ABS*	00000000 XT_STK_A12
0000003c l       *ABS*	00000000 XT_STK_A13
00000040 l       *ABS*	00000000 XT_STK_A14
00000044 l       *ABS*	00000000 XT_STK_A15
00000048 l       *ABS*	00000000 XT_STK_SAR
0000004c l       *ABS*	00000000 XT_STK_EXCCAUSE
00000050 l       *ABS*	00000000 XT_STK_EXCVADDR
00000054 l       *ABS*	00000000 XT_STK_LBEG
00000058 l       *ABS*	00000000 XT_STK_LEND
0000005c l       *ABS*	00000000 XT_STK_LCOUNT
00000060 l       *ABS*	00000000 XT_STK_THREADPTR
00000064 l       *ABS*	00000000 XT_STK_SCOMPARE1
00000068 l       *ABS*	00000000 XT_STK_BR
0000006c l       *ABS*	00000000 XT_STK_ACCLO
00000070 l       *ABS*	00000000 XT_STK_ACCHI
00000074 l       *ABS*	00000000 XT_STK_M0
00000078 l       *ABS*	00000000 XT_STK_M1
0000007c l       *ABS*	00000000 XT_STK_M2
00000080 l       *ABS*	00000000 XT_STK_M3
00000084 l       *ABS*	00000000 XT_STK_F64R_LO_CPENABLE
00000088 l       *ABS*	00000000 XT_STK_F64R_HI
0000008c l       *ABS*	00000000 XT_STK_F64S
00000090 l       *ABS*	00000000 XT_STK_FCR
00000094 l       *ABS*	00000000 XT_STK_FSR
00000098 l       *ABS*	00000000 XT_STK_F0
0000009c l       *ABS*	00000000 XT_STK_F1
000000a0 l       *ABS*	00000000 XT_STK_F2
000000a4 l       *ABS*	00000000 XT_STK_F3
000000a8 l       *ABS*	00000000 XT_STK_F4
000000ac l       *ABS*	00000000 XT_STK_F5
000000b0 l       *ABS*	00000000 XT_STK_F6
000000b4 l       *ABS*	00000000 XT_STK_F7
000000b8 l       *ABS*	00000000 XT_STK_F8
000000bc l       *ABS*	00000000 XT_STK_F9
000000c0 l       *ABS*	00000000 XT_STK_F10
000000c4 l       *ABS*	00000000 XT_STK_F11
000000c8 l       *ABS*	00000000 XT_STK_F12
000000cc l       *ABS*	00000000 XT_STK_F13
000000d0 l       *ABS*	00000000 XT_STK_F14
000000d4 l       *ABS*	00000000 XT_STK_F15
000000d8 l       *ABS*	00000000 XT_STK_TMP
00000100 l       *ABS*	00000000 XT_STK_FRMSZ
00000003 l       *ABS*	00000000 PS_INTLEVEL_EXCM
0000000f l       *ABS*	00000000 PS_INTLEVEL_MASK
00000010 l       *ABS*	00000000 PS_EXCM
00000020 l       *ABS*	00000000 PS_UM
00040000 l       *ABS*	00000000 PS_WOE
4008093c l       .rwtext	00000000 .HandleException
40080921 l       .rwtext	00000000 .RestoreContext
40080050 l       .vectors	00000000 _AllocAException
4008034c l       .vectors	00000000 .AllocAException
400f3c78 l     F .text	00000021 _ZN4core9panicking11panic_const28panic_const_async_fn_resumed17h89ddfd77833e9119E
400f22c4 l     F .text	0000002c _ZN4core4cell22panic_already_borrowed17hf3b1af380bdeb115E
400f449c l     F .text	000000b0 _ZN7smoltcp5iface10socket_set9SocketSet7get_mut17h9a06b31738597943E
4010c318 l     F .text	00000056 _ZN7smoltcp6socket5waker17WakerRegistration8register17hf8d889debedb48c9E
400f0d10 l     F .text	00000015 _ZN4core9panicking9panic_fmt17hb8555b65dccd58aaE
400f1174 l     F .text	0000000f _ZN4core5slice5index24slice_end_index_len_fail17h4024239d746064a2E
400f2184 l     F .text	0000000f _ZN4core5slice5index22slice_index_order_fail17hd4a627f106b56974E
400d2e10 l     F .text	000001f7 _ZN100_$LT$embassy_net..tcp..client..TcpConnection$LT$_$C$_$C$_$GT$$u20$as$u20$embedded_io_async..Read$GT$4read28_$u7b$$u7b$closure$u7d$$u7d$17h085541457da96efdE
400d3008 l     F .text	000000d6 _ZN101_$LT$embassy_net..tcp..client..TcpConnection$LT$_$C$_$C$_$GT$$u20$as$u20$embedded_io_async..Write$GT$5flush28_$u7b$$u7b$closure$u7d$$u7d$17h8585f11334e6b939E
400d30e0 l     F .text	000001c0 _ZN101_$LT$embassy_net..tcp..client..TcpConnection$LT$_$C$_$C$_$GT$$u20$as$u20$embedded_io_async..Write$GT$5write28_$u7b$$u7b$closure$u7d$$u7d$17h94a2c42880cc032fE
400d32a0 l     F .text	00000093 _ZN107_$LT$embedded_tls..extensions..extension_data..supported_groups..NamedGroup$u20$as$u20$core..fmt..Debug$GT$3fmt17h127e198e5ac950eeE
400f2ab0 l     F .text	00000012 _ZN4core6option13expect_failed17h292beaa006b1ba74E
400f454c l     F .text	000000b2 _ZN7smoltcp5iface10socket_set9SocketSet7get_mut17he5dc7bae321f9d58E
400f0ca4 l     F .text	00000037 _ZN4core9panicking18panic_bounds_check17h25102d32941375b7E
400f17ec l     F .text	00000010 _ZN4core6option13unwrap_failed17h3e21f5807f17ebaaE
400f4dcc l     F .text	00000055 _ZN12embassy_sync9waitqueue18waker_registration17WakerRegistration8register17h40be9f48a641f733E
400e1800 l     F .text	000000d9 _ZN4core3ptr79drop_in_place$LT$embassy_net..Stack..dns_query..$u7b$$u7b$closure$u7d$$u7d$$GT$17h93024e45f089d904E
400d3334 l     F .text	000006c9 _ZN11embassy_net3dns9DnsSocket5query28_$u7b$$u7b$closure$u7d$$u7d$17h647beed6f2b1cf02E
400d3fb4 l     F .text	00000187 _ZN12embedded_tls12key_schedule25Secret$LT$CipherSuite$GT$24make_expanded_hkdf_label17hb7fbd5846663b320E
400d7ed0 l     F .text	00000031 _ZN13generic_array5impls89_$LT$impl$u20$core..clone..Clone$u20$for$u20$generic_array..GenericArray$LT$T$C$N$GT$$GT$5clone17hb23ccbd5596d292bE
40106a1c l     F .text	000012a7 _ZN4sha26sha25611compress25617hfe5128fffdc0e330E
400e2670 l     F .text	000000d6 _ZN6digest11FixedOutput14finalize_fixed17h9952c812d5b1450dE
400f3d74 l     F .text	0000002e _ZN6subtle9black_box17h38e2476b87a487eaE
400d3a00 l     F .text	0000046d _ZN12embedded_tls10connection21process_server_verify28_$u7b$$u7b$closure$u7d$$u7d$17h5747c3f53164908dE
400f112c l     F .text	0000000f _ZN4core5slice5index26slice_start_index_len_fail17h8e8fe2d8cebe01ccE
400d4698 l     F .text	0000006c _ZN12embedded_tls12key_schedule35KeyScheduleState$LT$CipherSuite$GT$17increment_counter17ha222748ee742d81cE
400d3e70 l     F .text	00000141 _ZN12embedded_tls10connection7respond28_$u7b$$u7b$closure$u7d$$u7d$17h60e9bf503695375bE
400e18dc l     F .text	00000488 _ZN4hkdf17Hkdf$LT$H$C$I$GT$6expand17h247684c9c435f4e5E
400e40e4 l     F .text	00000173 _ZN87_$LT$digest..core_api..wrapper..CoreWrapper$LT$T$GT$$u20$as$u20$digest..FixedOutput$GT$13finalize_into17h951f859cb557a721E
400d413c l     F .text	00000080 _ZN12embedded_tls12key_schedule30ContextType$LT$CipherSuite$GT$10empty_hash17h7818e8057304e1b4E
400d4704 l     F .text	00000179 _ZN12embedded_tls12key_schedule35KeyScheduleState$LT$CipherSuite$GT$24calculate_traffic_secret17h306bf80e3a220f5bE
400d41bc l     F .text	00000071 _ZN12embedded_tls12key_schedule30KeySchedule$LT$CipherSuite$GT$25calculate_traffic_secrets17h4cac56fa02b4ff7eE
400e1d64 l     F .text	000000f0 _ZN4hkdf17Hkdf$LT$H$C$I$GT$8from_prk17h97e8938a9d39fa32E
400f2814 l     F .text	0000003e _ZN4core6result13unwrap_failed17h5c23218e4cd4625dE
400d4230 l     F .text	000003c4 _ZN12embedded_tls12key_schedule30SharedState$LT$CipherSuite$GT$10initialize17h72ba4f9eef977cb7E
400d45f4 l     F .text	000000a2 _ZN12embedded_tls12key_schedule30SharedState$LT$CipherSuite$GT$7derived17hea52ba5064bf85bdE
400f95e8 l     F .text	00000035 _ZN60_$LT$esp_hal..fmt..NoneError$u20$as$u20$core..fmt..Debug$GT$3fmt17h002bc427c442dd42E
400d4880 l     F .text	00000110 _ZN12embedded_tls12key_schedule35KeyScheduleState$LT$CipherSuite$GT$7get_key17hb248db2829846258E
400d4990 l     F .text	00000196 _ZN12embedded_tls12key_schedule35KeyScheduleState$LT$CipherSuite$GT$9get_nonce17he3b0cb36756a912bE
400e4c88 l     F .text	000003f9 _ZN91_$LT$aes_gcm..AesGcm$LT$Aes$C$NonceSize$C$TagSize$GT$$u20$as$u20$crypto_common..KeyInit$GT$3new17h965eae8a6d922363E
400f6c68 l     F .text	00000057 _ZN12embedded_tls6buffer12CryptoBuffer12as_mut_slice17hebad40734019f667E
400e2cc8 l     F .text	00000204 _ZN7aes_gcm39AesGcm$LT$Aes$C$NonceSize$C$TagSize$GT$8init_ctr17h52a3ae96308d4a5cE
400e2264 l     F .text	0000040b _ZN6cipher11stream_core16StreamCipherCore28apply_keystream_blocks_inout17hc8b6ffcca9f9d15bE
400e2a58 l     F .text	0000026d _ZN7aes_gcm39AesGcm$LT$Aes$C$NonceSize$C$TagSize$GT$11compute_tag17hb16a8eec72a1ba3eE
400f6ad0 l     F .text	00000074 _ZN12embedded_tls6buffer12CryptoBuffer15extend_internal17hcd8643a5ab0a740aE
400d4b28 l     F .text	000003b6 _ZN12embedded_tls12write_buffer11WriteBuffer12close_record17hec1e2efdcf909796E
400f8098 l     F .text	000000f2 _ZN12embedded_tls12write_buffer11WriteBuffer12start_record17h0121f0ebd33455afE
400f5f28 l     F .text	0000035b _ZN10primeorder10projective24ProjectivePoint$LT$C$GT$3mul17hb48c76f3f4b08857E
400f6520 l     F .text	0000042e _ZN10primeorder10projective24ProjectivePoint$LT$C$GT$9to_affine17hc6185c991b8838ecE
401057e0 l     F .text	00000543 _ZN4p25610arithmetic5field12FieldElement8to_bytes17h80826636b5b3eaa7E
400f5864 l     F .text	0000004c _ZN4sec15point24EncodedPoint$LT$Size$GT$3tag17h98b4afe6b094c71cE
400f6a80 l     F .text	0000004e _ZN12embedded_tls6buffer12CryptoBuffer4push17h3eb4ed91a2761c98E
400d69d4 l     F .text	000001ff _ZN12embedded_tls6buffer12CryptoBuffer15with_u16_length17h7feb2c1d764622f9E
400f6ffc l     F .text	000000c8 _ZN12embedded_tls9handshake11certificate14CertificateRef6encode17h28bcd217300550f6E
400f6bec l     F .text	0000007a _ZN12embedded_tls6buffer12CryptoBuffer7set_u2417h69d8beb59c3b1d91E
400f6cc0 l     F .text	00000057 _ZN12embedded_tls6buffer12CryptoBuffer8as_slice17h3e0c01a41776b0f5E
400d4ee0 l     F .text	00000d52 _ZN12embedded_tls12write_buffer11WriteBuffer12write_record17h566aa9a989aa173eE
400d5f88 l     F .text	00000123 _ZN12embedded_tls13record_reader31RecordReader$LT$CipherSuite$GT$7advance28_$u7b$$u7b$closure$u7d$$u7d$17h102f40206577cd2cE
400f8038 l     F .text	0000005e _ZN12embedded_tls6record12RecordHeader12content_type17h4a393eb972563cf6E
400f2b14 l     F .text	0000001e _ZN4core9panicking13assert_failed17h40715ef93f659cd6E
400d6bd4 l     F .text	000012c6 _ZN12embedded_tls9handshake34ServerHandshake$LT$CipherSuite$GT$4read17hbbd0168d7bc5e73fE
400f6988 l     F .text	000000f6 _ZN12embedded_tls5alert5Alert5parse17h0ba245a850aa96c9E
400d5c34 l     F .text	00000354 _ZN12embedded_tls13record_reader31RecordReader$LT$CipherSuite$GT$4read28_$u7b$$u7b$closure$u7d$$u7d$17h8da102cbab3359a3E
4010688c l     F .text	00000074 _ZN4core5slice29_$LT$impl$u20$$u5b$T$u5d$$GT$11copy_within17h359ce40e71090140E
400f6d18 l     F .text	0000005f _ZN12embedded_tls6common21decrypted_buffer_info19DecryptedBufferInfo18create_read_buffer17hfa0a2abe3440d00dE
400f1470 l     F .text	00000025 _ZN4core9panicking5panic17h333c3597a73b7176E
400e1294 l     F .text	000001f0 _ZN4aead11AeadInPlace16decrypt_in_place17h70638a6b6d013639E
400d60ac l     F .text	00000622 _ZN12embedded_tls6asynch41TlsConnection$LT$Socket$C$CipherSuite$GT$13read_buffered28_$u7b$$u7b$closure$u7d$$u7d$17h20bf1e0ab2de49baE
400d66d0 l     F .text	00000185 _ZN12embedded_tls6asynch41TlsConnection$LT$Socket$C$CipherSuite$GT$5flush28_$u7b$$u7b$closure$u7d$$u7d$17h2d5dc3421e3dd545E
400d6858 l     F .text	00000179 _ZN12embedded_tls6asynch41TlsConnection$LT$Socket$C$CipherSuite$GT$5write28_$u7b$$u7b$closure$u7d$$u7d$17hf85113ec3f8fe6e6E
400f818c l     F .text	000004f3 _ZN12embedded_tls10extensions8messages20ClientHelloExtension6encode17h9ec4d5f13293e831E
400e29c8 l     F .text	00000057 _ZN70_$LT$heapless..vec..Vec$LT$T$C$_$GT$$u20$as$u20$core..clone..Clone$GT$5clone17hbe4b9e9e171961b6E
400f6b90 l     F .text	0000005b _ZN12embedded_tls6buffer12CryptoBuffer7set_u1617h5e6b0e4997ffc8adE
400f6e8c l     F .text	000000a2 _ZN12embedded_tls12parse_buffer11ParseBuffer8read_u2417hbe00d7767860f232E
400f736c l     F .text	00000056 _ZN12embedded_tls12parse_buffer11ParseBuffer4fill17hd735e12c4de94256E
400f7188 l     F .text	00000122 _ZN12embedded_tls10extensions14extension_data20signature_algorithms15SignatureScheme5parse17h63234e43204d7902E
400f6e24 l     F .text	00000066 _ZN12embedded_tls12parse_buffer11ParseBuffer8read_u1617h5a9fae4b839b2004E
400f6f30 l     F .text	000000ca _ZN12embedded_tls10extensions13ExtensionType5parse17hb613473cf043836fE
400f70c4 l     F .text	000000c1 _ZN12embedded_tls12parse_buffer11ParseBuffer9read_list17h2e943eeaeb44d0e9E
400f6d78 l     F .text	000000ac _ZN12embedded_tls10extensions14extension_data16supported_groups10NamedGroup5parse17h8df3b74d423d24f3E
400f72ac l     F .text	000000c0 _ZN12embedded_tls12parse_buffer11ParseBuffer8read_u3217h64c4f88b79ef88b9E
400f73c4 l     F .text	000002e6 _ZN12embedded_tls10extensions8messages20ServerHelloExtension12parse_vector17hcc60b59b6b27ffceE
400d7e9c l     F .text	00000031 _ZN13generic_array5impls89_$LT$impl$u20$core..clone..Clone$u20$for$u20$generic_array..GenericArray$LT$T$C$N$GT$$GT$5clone17h04e8fde07b1d5439E
400d7f14 l     F .text	000001e5 _ZN15esp_hal_embassy8executor6thread8Executor9run_inner17hdc87963f5360edc1E
400d7f04 l     F .text	0000000d _ZN15esp_hal_embassy8executor6thread8Executor3run17h71386060348b7b10E
400f9fdc l     F .text	00000081 _ZN7esp_hal9interrupt6xtensa8vectored6enable17h327f2472f50b6d95E
400e282c l     F .text	0000004b _ZN70_$LT$esp_hal..interrupt..xtensa..Error$u20$as$u20$core..fmt..Debug$GT$3fmt17hdd679a4a38fe0dceE
400f93ec l     F .text	00000086 _ZN91_$LT$esp_hal..sync..critical_section..CriticalSection$u20$as$u20$critical_section..Impl$GT$7acquire17h5d1bd2031d912d73E
3ffc3704 l     O .bss	00000004 _ZN8esp_test14__embassy_main4POOL17h0dd062f73a356aacE.0
3ffd3714 l     O .bss	00005004 _ZN16embassy_executor7_export5ARENA17h98f0c3cd26fd7f34E
3ffc0de8 l     O .data	00000004 _ZN7esp_hal4sync16critical_section16CRITICAL_SECTION17h061250b9141daae1E
400d80fc l     F .text	00002e3e _ZN16embassy_executor3raw20TaskStorage$LT$F$GT$4poll17h39800bf46c8e88e5E
400e07ac l     F .text	0000002c _ZN16embassy_executor3raw4util19UninitCell$LT$T$GT$14write_in_place17h939f947be54ddf63E
3ffd8785 l     O .bss	00000002 _ZN15esp_hal_embassy8executor6thread23SIGNAL_WORK_THREAD_MODE17h5927a9fee7107f79E
4008148c l     F .rwtext	00000075 _ZN15esp_hal_embassy8executor6thread8Executor9wait_impl17h77546527934d0193E
400e2a20 l     F .text	00000035 _ZN74_$LT$embassy_executor..spawner..SpawnError$u20$as$u20$core..fmt..Debug$GT$3fmt17h7ea0b9e024a4852aE
3f408864 l     O .rodata	00000010 _ZN16embassy_executor3raw5waker6VTABLE17h96b7a1bbf0dc13d6E
400f4f40 l     F .text	00000070 _ZN75_$LT$embassy_time..timer..Timer$u20$as$u20$core..future..future..Future$GT$4poll17h665c0fdca16178cdE
3ffd8fcc l     O .bss	00000004 _ZN3log20MAX_LOG_LEVEL_FILTER17hc604844e5b22008aE.0
401065d4 l     F .text	00000095 _ZN3log13__private_api3log17h18df3cd246a582fdE
3ffd8fc8 l     O .bss	00000004 _ZN3log5STATE17h4a82eb5737cb86e7E.0
3ffc12a4 l     O .data	00000004 _ZN3log6LOGGER17h7a9234779a12fa2cE.1
400f96c4 l     F .text	000003b7 _ZN7esp_hal6system22PeripheralClockControl21enable_forced_with_cs17hd7505805cd2f2560E
400fa72c l     F .text	000000b5 _ZN7esp_hal8rtc_cntl8RtcClock9calibrate17hb230522b1f59a805E
400fa7e4 l     F .text	00000158 _ZN7esp_hal8rtc_cntl8RtcClock18calibrate_internal17he6dc10116ae1cfbdE
3ffd871c l     O .bss	00000004 _ZN7esp_hal5clock13ACTIVE_CLOCKS17h5351c1040b1fc30bE.1
3ffd8718 l     O .bss	00000001 _ZN7esp_hal5clock13ACTIVE_CLOCKS17h5351c1040b1fc30bE.0
3ffd8720 l     O .bss	00000001 _ZN7esp_hal5clock13ACTIVE_CLOCKS17h5351c1040b1fc30bE.2
400f9590 l     F .text	00000058 _ZN7esp_hal5clock6Clocks3get17h0c3d0e04dc307e74E
400f94f8 l     F .text	00000095 _ZN3log13__private_api8log_impl17h8f930fb7c3db929dE
40082104 l     O .rwtext	00000114 _ZN5esp3212__INTERRUPTS17h84d9b725d44260f3E
40080d04 l     F .rwtext	00000373 _ZN7esp_hal4gpio9interrupt30default_gpio_interrupt_handler17ha1924f4bc84d5cc7E
3ffc3708 l     O .bss	00010000 _ZN8esp_test21____embassy_main_task28_$u7b$$u7b$closure$u7d$$u7d$4HEAP17haf5ea965302c8352E
400f8a14 l     F .text	00000059 _ZN9esp_alloc10HeapRegion3new17h7f0e62d0eced2989E
400f8a70 l     F .text	000000c4 _ZN9esp_alloc7EspHeap10add_region17hdd8a0f7bd356254aE
3ffe7e30 l     O .dram2_uninit	00010000 _ZN8esp_test21____embassy_main_task28_$u7b$$u7b$closure$u7d$$u7d$4HEAP17h9a2e7e4723e3f502E
400f9ac0 l     F .text	00000085 _ZN7esp_hal6system22PeripheralClockControl5reset17hb3635991fd5ffa98E
400f9674 l     F .text	00000050 _ZN7esp_hal6system22PeripheralClockControl13enable_forced17hb529e00768583691E
40081504 l     F .rwtext	0000002f _ZN15esp_hal_embassy4init19software3_interrupt17h3758802fe3c696f6E
3ffd8788 l     O .bss	0000000c _ZN73_$LT$esp_hal..timer..timg..Timer$u20$as$u20$esp_hal_embassy..TimeBase$GT$6timers11STATIC_CELL17h980e326050138436E
400fa3d0 l     F .text	00000050 _ZN69_$LT$esp_hal..timer..timg..Timer$u20$as$u20$esp_hal..timer..Timer$GT$4stop17hbd4eb2872aaa2e29E
3ffc0dec l     O .data	0000007c _ZN15esp_hal_embassy11time_driver6DRIVER17h1d1992274e5a5b64E
400f9620 l     F .text	00000053 _ZN7esp_hal4sync18LockGuard$LT$L$GT$3new17hdcfe05692b58d0ddE
400e2168 l     F .text	000000fc _ZN68_$LT$esp_wifi..config..EspWifiConfig$u20$as$u20$core..fmt..Debug$GT$3fmt17h16b2d818c71f0930E
3ffd8fb0 l     O .bss	00000004 _ZN8esp_wifi14common_adapter13chip_specific22G_PHY_DIGITAL_REGS_MEM17h73dbd7f50a53a71eE.0
3ffd8e6c l     O .bss	00000054 _ZN8esp_wifi14common_adapter13chip_specific20SOC_PHY_DIG_REGS_MEM17h01f4419fb93ccd77E
40100e84 l     F .text	00000088 _ZN8esp_wifi15preempt_builtin5timer18timer_tick_handler17h7af31bf36acad676E
400fa5b4 l     F .text	00000176 _ZN7esp_hal5timer4timg5Timer21set_interrupt_handler17hf8d0410ce11cf3e8E
400fa54c l     F .text	00000066 _ZN69_$LT$esp_hal..timer..timg..Timer$u20$as$u20$esp_hal..timer..Timer$GT$15clear_interrupt17hc4cf52f5cd7da00dE
400fa420 l     F .text	000000cd _ZN69_$LT$esp_hal..timer..timg..Timer$u20$as$u20$esp_hal..timer..Timer$GT$10load_value17hffcac62a718e45c7E
40100638 l     F .text	00000043 _ZN58_$LT$esp_hal..timer..Error$u20$as$u20$core..fmt..Debug$GT$3fmt17h9b701321d2b1f9d6E.522
400fa288 l     F .text	00000096 _ZN69_$LT$esp_hal..timer..timg..Timer$u20$as$u20$esp_hal..timer..Timer$GT$5start17hb87ab66fcd523fafE
3ffc0e74 l     O .data	00000010 _ZN8esp_wifi15preempt_builtin5timer5TIMER17hc8826b55dfa844b6E
40100f0c l     F .text	00000094 _ZN92_$LT$esp_wifi..preempt_builtin..BuiltinScheduler$u20$as$u20$esp_wifi..preempt..Scheduler$GT$6enable17h0c40bffed45cedd0E
401031ac l     F .text	00000158 _ZN8esp_wifi5tasks10timer_task17hd3445d1a993828e1E
400ffc68 l     F .text	00000156 _ZN92_$LT$esp_wifi..preempt_builtin..BuiltinScheduler$u20$as$u20$esp_wifi..preempt..Scheduler$GT$11task_create17hb3f1870f0661ea86E
3ffc0e90 l     O .data	00000058 _ZN8esp_wifi4wifi8internal20G_COEX_ADAPTER_FUNCS17h33f3c319c08dfbb5E
400f3d04 l     F .text	0000003c _ZN4core3fmt3num3imp52_$LT$impl$u20$core..fmt..Display$u20$for$u20$i32$GT$3fmt17h32273e60b10b9867E
3ffc2c10 l     O .bss	00000001 _ZN8esp_test9WIFI_INIT17he5041f0c643bc84bE
400f0cdc l     F .text	00000031 _ZN4core3fmt3num3imp54_$LT$impl$u20$core..fmt..Display$u20$for$u20$usize$GT$3fmt17hd62904aa6d0f58d0E
400ff1f4 l     F .text	00000031 _ZN50_$LT$$BP$mut$u20$T$u20$as$u20$core..fmt..Debug$GT$3fmt17h0279350947258090E
3f40e78c l     O .rodata	00000054 _ZN8esp_wifi3ble4btdm28ble_os_adapter_chip_specific26BTDM_DRAM_AVAILABLE_REGION17h7628e04cad91cc80E
400f3ba8 l     F .text	00000031 _ZN4core3fmt3num53_$LT$impl$u20$core..fmt..LowerHex$u20$for$u20$u32$GT$3fmt17heb8cee4a017f9110E
3f40e560 l     O .rodata	000000fc _ZN8esp_wifi3ble4btdm28ble_os_adapter_chip_specific11G_OSI_FUNCS17h11d95bfb76863511E
400fe734 l     F .text	00000068 _ZN8esp_wifi4wifi9coex_init17h5938bc2f4cbaeed8E
400f154c l     F .text	00000033 _ZN44_$LT$$RF$T$u20$as$u20$core..fmt..Display$GT$3fmt17h7418769cd01a995aE
400ff920 l     F .text	00000274 _ZN8esp_wifi14common_adapter13chip_specific10phy_enable17h6cdb0cc04fa66389E
3f40ec68 l     O .rodata	00000008 _ZN8esp_wifi3ble4btdm18VHCI_HOST_CALLBACK17hcd65527c6739f3beE
3ffc0ef0 l     O .data	000000e0 _ZN8esp_wifi4wifi8internal8G_CONFIG17h0d9f85fc3e6d7b51E
40081934 l     F .rwtext	00000094 _ZN8esp_wifi4wifi19esp_wifi_tx_done_cb17h7ef30bb5da748e5eE
4010163c l     F .text	000000df _ZN8esp_wifi4wifi11recv_cb_sta17h8a16779e0e094353E
4010171c l     F .text	0000004e _ZN10num_traits4cast13FromPrimitive8from_i3217h0229820b2d38a7a1E
4010176c l     F .text	000000df _ZN8esp_wifi4wifi10recv_cb_ap17h0d7471d6f60c4eb6E
3ffd8f34 l     O .bss	00000030 _ZN8esp_wifi4wifi9wifi_init10NVS_STRUCT17hdf71895bb2171546E
4010184c l     F .text	000000bf _ZN8esp_wifi4wifi14WifiController16set_power_saving17hef00f283f628c85cE
4010190c l     F .text	00000234 _ZN72_$LT$esp_wifi..wifi..WifiController$u20$as$u20$core..ops..drop..Drop$GT$4drop17h214f61c5a28d3eadE
3ffd370c l     O .bss	00000004 _ZN8esp_test12wifi_connect4POOL17h3530ef9cd3a11e14E.0
400ded70 l     F .text	00001a10 _ZN16embassy_executor3raw20TaskStorage$LT$F$GT$4poll17hc184075fb1dae1bcE
400e0780 l     F .text	0000002a _ZN16embassy_executor3raw4util19UninitCell$LT$T$GT$14write_in_place17h306f62f3d9835499E
3ffc2c18 l     O .bss	00000ad8 _ZN8esp_test13NET_RESOURCES17haccb759cc93e9d4eE
401015d8 l     F .text	00000064 _ZN8esp_wifi4wifi7embassy83_$LT$impl$u20$embassy_net_driver..Driver$u20$for$u20$esp_wifi..wifi..WifiDevice$GT$16hardware_address17h0ed626680d17c1c2E
400f4758 l     F .text	00000060 _ZN11embassy_net27to_smoltcp_hardware_address17hf1ff0abc98f8a3c9E
4010bc0c l     F .text	000000c4 _ZN7smoltcp5iface10socket_set9SocketSet3add3put17hade4ada8bf7de5b0E
400f43e8 l     F .text	000000b2 _ZN7smoltcp5iface10socket_set9SocketSet7get_mut17h4ae0e9bb5c7e80efE
400f492c l     F .text	00000410 _ZN11embassy_net5Inner19apply_static_config17h8ec902453f1f1b95E
3ffc36f0 l     O .bss	00000008 _ZN8esp_test9NET_STACK17h5eb60021bf42ba20E
3ffc36f8 l     O .bss	0000000c _ZN8esp_test10NET_RUNNER17h7da22bb9484511edE
3ffd3708 l     O .bss	00000004 _ZN8esp_test8net_task4POOL17h5a0f87a431dee649E.0
400daf3c l     F .text	00003e33 _ZN16embassy_executor3raw20TaskStorage$LT$F$GT$4poll17h59dff2f360b2cc7eE
400e07d8 l     F .text	0000002f _ZN16embassy_executor3raw4util19UninitCell$LT$T$GT$14write_in_place17hd1ba65ea855452e0E
400f4824 l     F .text	00000105 _ZN11embassy_net5Stack4with17h0aa04e7a9d9b972aE
400e2010 l     F .text	00000057 _ZN62_$LT$smoltcp..wire..ipv4..Cidr$u20$as$u20$core..fmt..Debug$GT$3fmt17h7aff6e49d0014c86E
400e5fdc l     F .text	00009815 _ZN8esp_test15print_public_ip28_$u7b$$u7b$closure$u7d$$u7d$17hcf013e9af1f28005E
40107f00 l     F .text	00000056 _ZN44_$LT$$RF$T$u20$as$u20$core..fmt..Display$GT$3fmt17h390d8bd4ea83de2cE
3ffc1044 l     O .data	0000000c _ZN8esp_wifi4wifi7embassy17STA_RECEIVE_WAKER17h5cb7e7e60f493909E
3ffc102c l     O .data	0000000c _ZN8esp_wifi4wifi7embassy16AP_RECEIVE_WAKER17h7c457b1c7411161fE
400f9474 l     F .text	00000082 _ZN12embassy_sync9waitqueue12atomic_waker27GenericAtomicWaker$LT$M$GT$8register17hb9cfa6c657fc7073E
3ffc1020 l     O .data	0000000c _ZN8esp_wifi4wifi7embassy14TRANSMIT_WAKER17h281c751aca8b8372E
3ffc100c l     O .data	00000014 _ZN8esp_wifi4wifi17DATA_QUEUE_RX_STA17hdd9e5b64719c1daaE
3ffc0ff8 l     O .data	00000014 _ZN8esp_wifi4wifi16DATA_QUEUE_RX_AP17h37ed3fac4f6ee654E
3ffd8f64 l     O .bss	00000004 _ZN8esp_wifi4wifi16WIFI_TX_INFLIGHT17hd3be656fbd5a3304E
40108804 l     F .text	000000e9 _ZN7smoltcp5iface9interface14InterfaceInner15in_same_network17h3e8d35dc841efffaE
40108cfc l     F .text	000001b4 _ZN7smoltcp5iface8neighbor5Cache4fill17hf0710be4ebd5d54aE
3ffd8898 l     O .bss	000005d4 _ZN8esp_wifi4wifi11WifiTxToken13consume_token6BUFFER17h08ccf5cf54d348bdE
400e2ecc l     F .text	0000015d _ZN7smoltcp4wire3arp4Repr4emit17h19ced30e49ef7bf9E
40101454 l     F .text	0000012a _ZN8esp_wifi4wifi18esp_wifi_send_data17h15293d0513d8cd94E
40108c9c l     F .text	0000005e _ZN7smoltcp4wire4ipv415Packet$LT$T$GT$11new_checked17hd07a9309b5340860E
4010b4cc l     F .text	000000a4 _ZN7smoltcp4wire2ip8checksum4data17h4026b93cbcbcab51E
4010b570 l     F .text	00000093 _ZN77_$LT$smoltcp..wire..ip..Protocol$u20$as$u20$core..convert..From$LT$u8$GT$$GT$4from17h11b5c8235a00dcb5E
40108eb0 l     F .text	00000064 _ZN7smoltcp5iface9interface4ipv459_$LT$impl$u20$smoltcp..iface..interface..InterfaceInner$GT$13is_unicast_v417hed56234e2de273baE
40108f14 l     F .text	000000e9 _ZN7smoltcp4wire3udp4Repr5parse17h65c40e8ab6f2e503E
40109000 l     F .text	00000070 _ZN7smoltcp4wire3udp19Packet$LT$$RF$T$GT$7payload17h0654df28801300bdE
40109070 l     F .text	00000962 _ZN7smoltcp6socket6dhcpv46Socket7process17h0854feccc6b43a22E
401099d4 l     F .text	000000ec _ZN7smoltcp5iface9interface4ipv459_$LT$impl$u20$smoltcp..iface..interface..InterfaceInner$GT$15is_broadcast_v417h2cf837d57f342829E
401088f0 l     F .text	0000029d _ZN7smoltcp5iface5route6Routes6lookup17h2a0396c197be673dE
4010afa4 l     F .text	0000010b _ZN7smoltcp7storage13packet_buffer21PacketBuffer$LT$H$GT$7enqueue17h7c5394566c2d7968E
400f1978 l     F .text	0000000f _ZN4core5slice29_$LT$impl$u20$$u5b$T$u5d$$GT$15copy_from_slice17len_mismatch_fail17hcd8757f7a1ca6a23E
4010a998 l     F .text	00000050 _ZN7smoltcp4wire3dns15Packet$LT$T$GT$6opcode17h651e8f39921e5b9eE
4010a9e8 l     F .text	00000044 _ZN7smoltcp4wire3dns15Packet$LT$T$GT$5rcode17h51408ce95e663393E
4010aa2c l     F .text	00000119 _ZN7smoltcp4wire3dns8Question5parse17h2a1921b673aa00c9E
4010ab48 l     F .text	000001dd _ZN7smoltcp6socket3dns8eq_names17h80f1a32e647ebbfeE
4010ad28 l     F .text	000001b3 _ZN7smoltcp4wire3dns6Record5parse17hd55313476eefc38aE
4010aedc l     F .text	000000c8 _ZN7smoltcp6socket3dns9copy_name17h41e5b55ebe426357E
40109ac0 l     F .text	000000c4 _ZN7smoltcp5iface9interface4ipv459_$LT$impl$u20$smoltcp..iface..interface..InterfaceInner$GT$12icmpv4_reply17hc7c6fe116dc2f1a4E
40109e44 l     F .text	000005a3 _ZN7smoltcp4wire3tcp4Repr5parse17h757922281e3e0c5bE
4010a3e8 l     F .text	00000110 _ZN7smoltcp6socket3tcp6Socket9rst_reply17hcbdb1fa1bafb7a81E
4010a4f8 l     F .text	00000188 _ZN7smoltcp6socket3tcp6Socket9ack_reply17h34591d1ae48b6629E
4010a680 l     F .text	00000051 _ZN7smoltcp6socket3tcp6Socket9set_state17h616c1e8e18b77730E
4010a6d4 l     F .text	00000050 _ZN7smoltcp7storage11ring_buffer19RingBuffer$LT$T$GT$17dequeue_allocated17h061ef322ec9f599bE
4010a724 l     F .text	00000182 _ZN7smoltcp7storage9assembler9Assembler21add_then_remove_front17h28a829a385f47df3E
4010a8a8 l     F .text	0000007e _ZN7smoltcp7storage11ring_buffer19RingBuffer$LT$T$GT$17write_unallocated17h41f3e1fd9e8e3852E
4010859c l     F .text	00000065 _ZN7smoltcp6socket3tcp6Socket15ack_to_transmit17h48de4835f4d0bacfE
4010a928 l     F .text	0000006d _ZN7smoltcp6socket3tcp6Socket25immediate_ack_to_transmit17h82fcb43876a93215E
40109b84 l     F .text	000002c0 _ZN7smoltcp4wire6icmpv44Repr5parse17hb8552c671c183501E
400e302c l     F .text	00000dc1 _ZN7smoltcp5iface9interface14InterfaceInner11dispatch_ip17h61241159b3ad7ed1E
40100208 l     F .text	00000068 _ZN86_$LT$esp_wifi..wifi..private..EspWifiPacketBuffer$u20$as$u20$core..ops..drop..Drop$GT$4drop17h46de4d06fd882b4dE
40108604 l     F .text	00000084 _ZN7smoltcp5iface9interface14InterfaceInner12has_neighbor17h392b9a41343007f5E
40101580 l     F .text	00000055 _ZN8esp_wifi4wifi7embassy83_$LT$impl$u20$embassy_net_driver..Driver$u20$for$u20$esp_wifi..wifi..WifiDevice$GT$8transmit17h29d39dc9820922feE
4010bd50 l     F .text	000000a6 _ZN7smoltcp4wire6dhcpv44Repr10buffer_len17h5dac4b1eefc595adE
401083e8 l     F .text	000000d8 _ZN7smoltcp6socket3tcp6Socket15seq_to_transmit17h0bcf0120bcef962bE
401084c0 l     F .text	000000da _ZN7smoltcp6socket3tcp6Socket16window_to_update17hf9dba39142b9ec9aE
4010c40c l     F .text	000000de _ZN7smoltcp6socket3tcp6Socket5reset17hee5aa19f0c673a1cE
4010c568 l     F .text	00000049 _ZN84_$LT$smoltcp..wire..tcp..SeqNumber$u20$as$u20$core..ops..arith..Add$LT$usize$GT$$GT$3add17he61ac78b85574569E
4010c5b4 l     F .text	0000004a _ZN71_$LT$smoltcp..wire..tcp..SeqNumber$u20$as$u20$core..ops..arith..Sub$GT$3sub17h59b1c0c1672061d8E
4010c4ec l     F .text	00000079 _ZN7smoltcp7storage11ring_buffer19RingBuffer$LT$T$GT$13get_allocated17h53f2d808cf17ab0cE
4010b274 l     F .text	00000098 _ZN7smoltcp4wire3tcp4Repr10header_len17he065c169226d2b3cE
4010c370 l     F .text	00000099 _ZN7smoltcp6socket3tcp5Timer18set_for_retransmit17hc6ca420f30ab8a93E
400f3c54 l     F .text	00000021 _ZN4core9panicking11panic_const23panic_const_rem_by_zero17h7fc7a6cc9a838babE
3ffc1050 l     O .data	0000000c _ZN8esp_wifi4wifi7embassy20STA_LINK_STATE_WAKER17h622fb647c3b9e49dE
3ffc1038 l     O .data	0000000c _ZN8esp_wifi4wifi7embassy19AP_LINK_STATE_WAKER17h26f5fe5d6e45c775E
3ffc0ff0 l     O .data	00000004 _ZN8esp_wifi4wifi5state9STA_STATE17h3edc577aec7f671bE
3ffc0ff4 l     O .data	00000004 _ZN8esp_wifi4wifi5state8AP_STATE17he9ae21fa8c386d64E
40101270 l     F .text	00000049 _ZN8esp_wifi4wifi5state15AtomicWifiState10from_usize17h7eb0cfe8214a148eE
400e0d18 l     F .text	0000004a _ZN41_$LT$bool$u20$as$u20$core..fmt..Debug$GT$3fmt17h4f51b4241f1e55a6E
4010800c l     F .text	000003dc _ZN7smoltcp5iface9interface9Interface7poll_at28_$u7b$$u7b$closure$u7d$$u7d$17hc7ae1061fb1d270dE
3ffc0fd8 l     O .data	00000018 _ZN8esp_wifi4wifi10os_adapter11WIFI_EVENTS17hf224f4bb2242ca70E
400e27d4 l     F .text	00000056 _ZN70_$LT$core..result..Result$LT$T$C$E$GT$$u20$as$u20$core..fmt..Debug$GT$3fmt17h59b3cc7e4582371eE
401012bc l     F .text	000000f1 _ZN8esp_wifi4wifi8WifiMode7current17hf6fb119bf776f8bbE
3ffc105c l     O .data	0000000c _ZN8esp_wifi4wifi9WifiEvent5waker5WAKER17h92af521d0354df8aE
400f08e4 l     F .text	00000059 _ZN5alloc5slice64_$LT$impl$u20$alloc..borrow..ToOwned$u20$for$u20$$u5b$T$u5d$$GT$8to_owned17hd807efbbfaeb5839E
400f0868 l     F .text	0000004b _ZN77_$LT$alloc..raw_vec..RawVec$LT$T$C$A$GT$$u20$as$u20$core..ops..drop..Drop$GT$4drop17h9b697b32291a8463E
40101d34 l     F .text	0000018f _ZN8esp_wifi4wifi15apply_ap_config17h996f2d571a07b6ceE
40101b40 l     F .text	000001f2 _ZN8esp_wifi4wifi16apply_sta_config17h73bcf2543f6ba099E
40101ec4 l     F .text	00000112 _ZN85_$LT$esp_wifi..wifi..MultiWifiEventFuture$u20$as$u20$core..future..future..Future$GT$4poll17h6069a4e1db989f2dE
400e1f70 l     F .text	0000009e _ZN62_$LT$esp_wifi..wifi..WifiError$u20$as$u20$core..fmt..Debug$GT$3fmt17h25aa5dcf0e29b4eaE
400e3ef4 l     F .text	000001ef _ZN85_$LT$reqwless..client..HttpConnection$LT$T$GT$$u20$as$u20$embedded_io_async..Read$GT$4read28_$u7b$$u7b$closure$u7d$$u7d$17he9b041560fecfb47E
400e0808 l     F .text	00000102 _ZN17embedded_io_async4Read10read_exact28_$u7b$$u7b$closure$u7d$$u7d$17h54e68216c2295d9cE
400e090c l     F .text	00000151 _ZN17embedded_io_async4Read10read_exact28_$u7b$$u7b$closure$u7d$$u7d$17h8e7edee427491299E
400e0a60 l     F .text	0000012d _ZN17embedded_io_async4Read10read_exact28_$u7b$$u7b$closure$u7d$$u7d$17haa11c1df2552c813E
400e0b90 l     F .text	000000e6 _ZN17embedded_io_async5Write9write_all28_$u7b$$u7b$closure$u7d$$u7d$17h5b43e5be6f58f362E
400e0c78 l     F .text	0000009f _ZN3hex15decode_to_slice17hf61e4694e438b51bE
400f11bc l     F .text	000002b2 _ZN4core3fmt9Formatter3pad17hbd255515172af9d8E
400e0d64 l     F .text	00000045 _ZN42_$LT$$RF$T$u20$as$u20$core..fmt..Debug$GT$3fmt17h1f135e5f9b5afa0bE
400e0dac l     F .text	00000138 _ZN42_$LT$$RF$T$u20$as$u20$core..fmt..Debug$GT$3fmt17h233452ce16a3e6beE
400e10d8 l     F .text	00000045 _ZN42_$LT$$RF$T$u20$as$u20$core..fmt..Debug$GT$3fmt17h7f7b4eec76f2f564E
400f305c l     F .text	00000059 _ZN4core3fmt9Formatter25debug_tuple_field1_finish17had0ac37a95bc2ff7E
400f30b8 l     F .text	00000064 _ZN4core3fmt9Formatter25debug_tuple_field2_finish17h14f94c239f9401f6E
400e0ee4 l     F .text	000001f1 _ZN42_$LT$$RF$T$u20$as$u20$core..fmt..Debug$GT$3fmt17h5ee4288b2dc630ffE
400e1120 l     F .text	00000045 _ZN42_$LT$$RF$T$u20$as$u20$core..fmt..Debug$GT$3fmt17hcf9ba6a4f1c77db7E
400e1168 l     F .text	000000f3 _ZN42_$LT$$RF$T$u20$as$u20$core..fmt..Debug$GT$3fmt17heb73d132b8fd1305E
400e125c l     F .text	00000035 _ZN44_$LT$$RF$T$u20$as$u20$core..fmt..Display$GT$3fmt17hc0313342d5fec625E
400f3bdc l     F .text	00000078 _ZN4core3fmt3num52_$LT$impl$u20$core..fmt..LowerHex$u20$for$u20$u8$GT$3fmt17h3ca0abd28fe21e85E
400f3960 l     F .text	00000075 _ZN4core3fmt3num52_$LT$impl$u20$core..fmt..UpperHex$u20$for$u20$u8$GT$3fmt17hc1fe4bdb72df6206E
400f1730 l     F .text	00000098 _ZN4core3fmt3num3imp51_$LT$impl$u20$core..fmt..Display$u20$for$u20$u8$GT$3fmt17h7cffdc3b24fec957E
400e1484 l     F .text	00000054 _ZN4core3fmt3num49_$LT$impl$u20$core..fmt..Debug$u20$for$u20$u8$GT$3fmt17hed50e978b0869095E
400f0e74 l     F .text	000001c2 _ZN4core3fmt9Formatter12pad_integral17h64c6bc1ab36baf49E
400f29b4 l     F .text	000000f9 _ZN4core3fmt3num3imp52_$LT$impl$u20$core..fmt..Display$u20$for$u20$u16$GT$3fmt17h028013635fc526ccE
400e14d8 l     F .text	000000cf _ZN4core3fmt3num50_$LT$impl$u20$core..fmt..Debug$u20$for$u20$u16$GT$3fmt17h4a4e152631317e7fE
400f19c4 l     F .text	00000071 _ZN4core3fmt3num12GenericRadix7fmt_int17h5db32912ad78f381E
400f1a38 l     F .text	00000071 _ZN4core3fmt3num12GenericRadix7fmt_int17hb88b1bddb70916d9E
400f1830 l     F .text	00000147 _ZN4core3fmt3num3imp21_$LT$impl$u20$u32$GT$4_fmt17hc62120785855578aE
400e15a8 l     F .text	0000005c _ZN4core3fmt3num50_$LT$impl$u20$core..fmt..Debug$u20$for$u20$u32$GT$3fmt17hdfa468271695a229E
400f0d28 l     F .text	0000014a _ZN4core3fmt3num3imp23_$LT$impl$u20$usize$GT$4_fmt17hafcfffdcbf513db2E
400e1604 l     F .text	00000055 _ZN4core3fmt3num52_$LT$impl$u20$core..fmt..Debug$u20$for$u20$usize$GT$3fmt17h8c624e28a34d62acE
400f15e8 l     F .text	00000148 _ZN4core3fmt5write17h6c72d92f235dad40E
400e165c l     F .text	00000034 _ZN4core3fmt5Write9write_fmt17h4ae84f8c1e6d0635E
4010bcd0 l     F .text	00000080 _ZN7smoltcp5iface10socket_set9SocketSet6remove17hdc94e81ef49240feE
400f46b8 l     F .text	000000a0 _ZN4core3ptr44drop_in_place$LT$smoltcp..socket..Socket$GT$17h23e77be323fb8890E
400e1690 l     F .text	00000105 _ZN4core3ptr101drop_in_place$LT$embassy_net..tcp..client..TcpConnection$LT$1_usize$C$1024_usize$C$1024_usize$GT$$GT$17h3651c7732f035e32E
400e1798 l     F .text	0000003d _ZN4core3ptr143drop_in_place$LT$$LT$embassy_net..dns..DnsSocket$u20$as$u20$embedded_nal_async..dns..Dns$GT$..get_host_by_name..$u7b$$u7b$closure$u7d$$u7d$$GT$17h0bba1598dace849eE
400e17d8 l     F .text	00000025 _ZN4core3ptr62drop_in_place$LT$heapless..string..String$LT$128_usize$GT$$GT$17h50a249576f0d3a7cE
400e1e54 l     F .text	00000043 _ZN52_$LT$httparse..Error$u20$as$u20$core..fmt..Debug$GT$3fmt17h7aedfae811db80a9E
400e1e98 l     F .text	000000d8 _ZN52_$LT$reqwless..Error$u20$as$u20$core..fmt..Debug$GT$3fmt17h3ae02fb7dcbc835bE
40100310 l     F .text	000000e7 _ZN42_$LT$$RF$T$u20$as$u20$core..fmt..Debug$GT$3fmt17ha860ac4ffc7b77a6E
400f42f8 l     F .text	00000054 _ZN42_$LT$$RF$T$u20$as$u20$core..fmt..Debug$GT$3fmt17h68ee227969021d24E
400f2980 l     F .text	00000031 _ZN65_$LT$core..net..ip_addr..Ipv4Addr$u20$as$u20$core..fmt..Debug$GT$3fmt17h0301b8942b0a95a4E
400f2f64 l     F .text	00000069 _ZN4core3fmt9Formatter26debug_struct_field2_finish17h8c48a5ca627768fdE
40100270 l     F .text	000000a0 _ZN42_$LT$$RF$T$u20$as$u20$core..fmt..Debug$GT$3fmt17h83f11dca48b3e735E
401003f8 l     F .text	00000067 _ZN42_$LT$$RF$T$u20$as$u20$core..fmt..Debug$GT$3fmt17hb0f2a974fa723906E
400e2068 l     F .text	0000007a _ZN66_$LT$esp_wifi..InitializationError$u20$as$u20$core..fmt..Debug$GT$3fmt17h7f042235583b3d71E
400e20e4 l     F .text	00000035 _ZN67_$LT$hkdf..errors..InvalidPrkLength$u20$as$u20$core..fmt..Debug$GT$3fmt17h361bab85141a0e8cE
400e211c l     F .text	0000004b _ZN68_$LT$embedded_tls..alert..AlertLevel$u20$as$u20$core..fmt..Debug$GT$3fmt17h22c93a5774d43ac4E
400f2fd0 l     F .text	0000008b _ZN4core3fmt9Formatter26debug_struct_fields_finish17h361914f88d33e930E
400efc54 l     F .text	00000a90 _ZN3aes4soft8fixslice14aes128_encrypt17h189412ac40b0c420E
400e2748 l     F .text	00000035 _ZN70_$LT$cipher..errors..StreamCipherError$u20$as$u20$core..fmt..Debug$GT$3fmt17h6ccd709bc2c18d5eE
400f6950 l     F .text	00000037 _ZN42_$LT$$RF$T$u20$as$u20$core..fmt..Debug$GT$3fmt17hf14ea89091296bacE
400f4148 l     F .text	00000055 _ZN42_$LT$$RF$T$u20$as$u20$core..fmt..Debug$GT$3fmt17h3e5fcdb7304dbfb0E
400e2780 l     F .text	00000053 _ZN70_$LT$core..result..Result$LT$T$C$E$GT$$u20$as$u20$core..fmt..Debug$GT$3fmt17h4872409af7321a54E
400e2878 l     F .text	000000fa _ZN70_$LT$heapless..string..String$LT$_$GT$$u20$as$u20$core..fmt..Write$GT$10write_char17hb761b7709add3c05E
400e2974 l     F .text	00000054 _ZN70_$LT$heapless..string..String$LT$_$GT$$u20$as$u20$core..fmt..Write$GT$9write_str17hd690926d982cb0f6E
40105d24 l     F .text	0000084a _ZN78_$LT$polyval..backend..soft..Polyval$u20$as$u20$universal_hash..UhfBackend$GT$10proc_block17ha096e608cacac3e6E
40108688 l     F .text	00000083 _ZN7smoltcp5iface9interface14InterfaceInner5route17h356e69221587b042E
4010870c l     F .text	000000f8 _ZN7smoltcp5iface8neighbor5Cache6lookup17hc010824908ee306fE
4010c188 l     F .text	0000018d _ZN7smoltcp4wire4ipv44Repr4emit17h8ced25004991c1f0E
4010c0b8 l     F .text	000000d0 _ZN7smoltcp4wire3udp15Packet$LT$T$GT$13fill_checksum17hffdfdd54a88eaebfE
4010bdf8 l     F .text	000002c0 _ZN7smoltcp4wire3tcp9TcpOption4emit17h962b4b119c373f12E
4010b428 l     F .text	000000a1 _ZN7smoltcp4wire2ip8checksum13pseudo_header17hae87765c86f9e767E
400e3df0 l     F .text	00000102 _ZN82_$LT$reqwless..client..HttpConnection$LT$C$GT$$u20$as$u20$reqwless..TryBufRead$GT$12try_fill_buf28_$u7b$$u7b$closure$u7d$$u7d$17h25719ca2f1c2899cE
400e438c l     F .text	0000037e _ZN8reqwless7request9write_str28_$u7b$$u7b$closure$u7d$$u7d$17ha38d4d5ec8e1b30aE
400e4258 l     F .text	00000134 _ZN8reqwless7request12write_header28_$u7b$$u7b$closure$u7d$$u7d$17h552580d418a0dce7E
400f17fc l     F .text	00000033 _ZN4core3fmt3num3imp52_$LT$impl$u20$core..fmt..Display$u20$for$u20$u32$GT$3fmt17h89fbb007eba0bf65E
400e470c l     F .text	000001d2 _ZN8reqwless8response7chunked26ChunkedBodyReader$LT$C$GT$22read_next_chunk_length28_$u7b$$u7b$closure$u7d$$u7d$17h50d151b30a55c118E
400e48e0 l     F .text	000001d2 _ZN8reqwless8response7chunked26ChunkedBodyReader$LT$C$GT$22read_next_chunk_length28_$u7b$$u7b$closure$u7d$$u7d$17h74d5d984c1ec57acE
400e4ab4 l     F .text	000001d2 _ZN8reqwless8response7chunked26ChunkedBodyReader$LT$C$GT$22read_next_chunk_length28_$u7b$$u7b$closure$u7d$$u7d$17h8499d7cb04907719E
400ef824 l     F .text	0000021a _ZN3aes4soft8fixslice8bitslice17hc0fd0e75eee75163E
400efa40 l     F .text	00000214 _ZN3aes4soft8fixslice9sub_bytes17h0bba0f00187eb6e0E
400e5084 l     F .text	00000f57 _ZN9rand_core5block17BlockRng$LT$R$GT$16generate_and_set17h8f066fc884bb308dE
3ffd3710 l     O .bss	00000001 __rust_no_alloc_shim_is_unstable
400f8680 l     F .text	00000199 _ZN9esp_alloc7EspHeap10alloc_caps17he48c5d670eb9bac4E
400f3880 l     F .text	000000df _ZN4core3str7pattern14TwoWaySearcher22reverse_maximal_suffix17h10fe4a90b14060a3E
40103f38 l     F .text	000001d1 _ZN90_$LT$core..str..iter..Split$LT$P$GT$$u20$as$u20$core..iter..traits..iterator..Iterator$GT$4next17hd389742add78e892E
4010410c l     F .text	00000098 _ZN4core3str21_$LT$impl$u20$str$GT$4find17hc263be0a6ba2bb0fE
400f35f8 l     F .text	00000013 _ZN4core3str16slice_error_fail17he57f45b08ec2a212E
40103ef8 l     F .text	0000003d _ZN4core3str21_$LT$impl$u20$str$GT$12strip_prefix17h47ea871e0063ba9eE
400f76ac l     F .text	00000989 _ZN12embedded_tls9handshake12server_hello11ServerHello23calculate_shared_secret17h96e71ff5f6a5ffe2E
40106570 l     F .text	00000064 _ZN9rand_core5impls19fill_via_u32_chunks17h87a5c0298230d7c1E
40103a80 l     F .text	000002dc _ZN8httparse8Response5parse17hcdab8430e5173a76E
400f231c l     F .text	00000212 _ZN4core3str8converts9from_utf817hd25209136f8134aeE
40106900 l     F .text	0000011a _ZN90_$LT$core..str..iter..Split$LT$P$GT$$u20$as$u20$core..iter..traits..iterator..Iterator$GT$4next17hf4917140c8520bf7E
4010666c l     F .text	00000220 _ZN4core3str21_$LT$impl$u20$str$GT$12trim_matches17hba968df2b33419cfE
400f881c l     F .text	000001f5 _ZN71_$LT$esp_alloc..EspHeap$u20$as$u20$core..alloc..global..GlobalAlloc$GT$7dealloc17h9ce9f5bdbca4e94eE
400f0794 l     F .text	0000000b _ZN5alloc5alloc18handle_alloc_error17h89ca94c6f9a11a4eE
400f08b4 l     F .text	0000002e _RNvCs6MjFWaQOJWH_7___rustc9___rdl_oom
400ef818 l     F .text	0000000b _RNvCs6MjFWaQOJWH_7___rustc26___rust_alloc_error_handler
400f07d0 l     F .text	00000095 _ZN5alloc7raw_vec11finish_grow17h422ca50b89d9417eE
400f06e4 l     F .text	00000096 _ZN5alloc7raw_vec20RawVecInner$LT$A$GT$14grow_amortized17h201a06a11501f60dE
400f07a0 l     F .text	00000021 _ZN5alloc7raw_vec17capacity_overflow17he3da05015262aacfE
400f077c l     F .text	00000016 _ZN5alloc7raw_vec12handle_error17hf972b4dc453a4f7eE
400f07c4 l     F .text	0000000b _ZN5alloc5alloc18handle_alloc_error8rt_error17ha4f51740834dbe45E
400f2af0 l     F .text	0000000b _ZN4core9panicking18panic_nounwind_fmt17hc8414c230f58346dE
400f0940 l     F .text	00000011 _ZN14allocator_api27raw_vec17capacity_overflow17h304ed6eaa7933d68E
400f0954 l     F .text	0000005e _ZN42_$LT$$RF$T$u20$as$u20$core..fmt..Debug$GT$3fmt17h5ef3da6585ff4641E
400f0a80 l     F .text	0000015d _ZN80_$LT$const_oid..arcs..Arcs$u20$as$u20$core..iter..traits..iterator..Iterator$GT$4next17h98deb23fda98bcd4E
400f09b4 l     F .text	000000cc _ZN44_$LT$$RF$T$u20$as$u20$core..fmt..Display$GT$3fmt17h8164b052d543b40bE
400f2f08 l     F .text	0000005b _ZN4core3fmt9Formatter26debug_struct_field1_finish17h983e9a3cd17ab06aE
400f0be0 l     F .text	000000c3 _ZN60_$LT$const_oid..error..Error$u20$as$u20$core..fmt..Debug$GT$3fmt17hdc3465e8a60350aeE
400f90c0 l     F .text	000000fc _RNvCs6MjFWaQOJWH_7___rustc17rust_begin_unwind
400f1038 l     F .text	00000051 _ZN4core3fmt9Formatter12pad_integral12write_prefix17h21333576657d0522E
400f108c l     F .text	0000009d _ZN4core3fmt9Formatter7padding17hb9423a1c6b15ff39E
400f113c l     F .text	00000037 _ZN4core5slice5index26slice_start_index_len_fail8do_panic7runtime17h247eefc07a9e0f57E
400f1184 l     F .text	00000037 _ZN4core5slice5index24slice_end_index_len_fail8do_panic7runtime17h2c8b61c540a0674dE
400f15b4 l     F .text	00000032 _ZN42_$LT$$RF$T$u20$as$u20$core..fmt..Debug$GT$3fmt17h13220d94613237b6E
400f1580 l     F .text	00000033 _ZN59_$LT$core..fmt..Arguments$u20$as$u20$core..fmt..Display$GT$3fmt17h97663e3ee43f4e51E
400f1498 l     F .text	000000b3 _ZN4core9panicking19assert_failed_inner17ha26dfd2aba65107cE
400f17c8 l     F .text	00000021 _ZN4core9panicking11panic_const23panic_const_div_by_zero17hf4aac8935cbc0a91E
400f1988 l     F .text	00000039 _ZN4core5slice29_$LT$impl$u20$$u5b$T$u5d$$GT$15copy_from_slice17len_mismatch_fail8do_panic7runtime17hd933baf9034e737bE
400f1c58 l     F .text	000000c1 _ZN4core5slice6memchr14memchr_aligned17hc29e85b5fe12d5c2E
400f1aac l     F .text	00000114 _ZN68_$LT$core..fmt..builders..PadAdapter$u20$as$u20$core..fmt..Write$GT$9write_str17h1ab1446e69ff4804E
400f1bc0 l     F .text	0000005f _ZN68_$LT$core..fmt..builders..PadAdapter$u20$as$u20$core..fmt..Write$GT$10write_char17h809de401989c1e46E
400f1c20 l     F .text	00000036 _ZN4core3fmt5Write9write_fmt17h71b55992f747fd6bE
400f1d1c l     F .text	00000097 _ZN71_$LT$core..ops..range..Range$LT$Idx$GT$$u20$as$u20$core..fmt..Debug$GT$3fmt17hc1b0626d351141a1E
3f408638 l     O .rodata	00000088 _ZN4core7unicode12unicode_data15grapheme_extend17SHORT_OFFSET_RUNS17h93de17da2ffa8dacE
3f4074a7 l     O .rodata	000002ef _ZN4core7unicode12unicode_data15grapheme_extend7OFFSETS17h886bf0636f062ea5E
400f1db4 l     F .text	000000b8 _ZN4core7unicode12unicode_data15grapheme_extend11lookup_slow17h95035a2c1bd91fefE
400f20a4 l     F .text	000000dd _ZN4core7unicode9printable5check17h8fcc69843977a651E
400f1e6c l     F .text	00000129 _ZN4core7unicode9printable12is_printable17h547708ce1f92ed52E
400f1f98 l     F .text	000000c0 _ZN4core6escape14escape_unicode17hce00d1d211866893E
400f2058 l     F .text	0000004b _ZN62_$LT$core..char..EscapeDebug$u20$as$u20$core..fmt..Display$GT$3fmt17h2b16ee35feebfc57E
400f2194 l     F .text	00000037 _ZN4core5slice5index22slice_index_order_fail8do_panic7runtime17hf074385fa63bd5d9E
400f2214 l     F .text	00000067 _ZN4core3fmt8builders11DebugStruct6finish17ha87404231ebf1410E
400f21cc l     F .text	00000048 _ZN60_$LT$core..cell..BorrowError$u20$as$u20$core..fmt..Debug$GT$3fmt17ha849070c621d1f8dE
400f227c l     F .text	00000048 _ZN63_$LT$core..cell..BorrowMutError$u20$as$u20$core..fmt..Debug$GT$3fmt17h071948f8633d5119E
400f22f0 l     F .text	0000002c _ZN4core4cell30panic_already_mutably_borrowed17h4a05a7215b94019aE
400f2530 l     F .text	0000012a _ZN4core3fmt8builders11DebugStruct10field_with17h481d2e09a2973289E
400f265c l     F .text	0000005a _ZN86_$LT$core..net..display_buffer..DisplayBuffer$LT$_$GT$$u20$as$u20$core..fmt..Write$GT$9write_str17h8e34c6230aeb4f89E
400f27dc l     F .text	00000036 _ZN4core3fmt5Write9write_fmt17h8965df54d2b5582aE
400f26b8 l     F .text	00000121 _ZN67_$LT$core..net..ip_addr..Ipv4Addr$u20$as$u20$core..fmt..Display$GT$3fmt17he367c92cfc6ed021E
400f2854 l     F .text	00000035 _ZN53_$LT$core..fmt..Error$u20$as$u20$core..fmt..Debug$GT$3fmt17h8cbe5748aa844b8cE.114
400f288c l     F .text	000000f2 _ZN4core3fmt5Write10write_char17hbf333d0481601b81E
400f2ac4 l     F .text	00000029 _ZN4core9panicking13panic_display17h7240913fc1d3c171E
400f2afc l     F .text	00000018 _ZN4core9panicking18panic_nounwind_fmt7runtime17hb12796e67689c4a8E
400f2b34 l     F .text	00000055 _ZN42_$LT$$RF$T$u20$as$u20$core..fmt..Debug$GT$3fmt17he658fd37c7bcfe24E
400f2b8c l     F .text	00000066 _ZN4core3fmt17pointer_fmt_inner17h39593a7fd53fbebcE
400f2bf4 l     F .text	000000d9 _ZN4core3fmt8builders10DebugTuple10field_with17h0683926d532b3613E
400f2cd0 l     F .text	0000007b _ZN4core3fmt8builders10DebugTuple6finish17hb2ce1000b331cbe6E
400f2d4c l     F .text	000001b9 _ZN41_$LT$char$u20$as$u20$core..fmt..Debug$GT$3fmt17h3f517456281c6f7aE
400f311c l     F .text	0000004a _ZN43_$LT$bool$u20$as$u20$core..fmt..Display$GT$3fmt17h0d9837d66ceb8b3aE
400f3168 l     F .text	0000048d _ZN40_$LT$str$u20$as$u20$core..fmt..Debug$GT$3fmt17h97beb5af829d6bf0E
400f360c l     F .text	00000272 _ZN4core3str19slice_error_fail_rt17h3ac2f7ab89cea5ddE
400f39d8 l     F .text	000001ce _ZN4core3fmt3num3imp52_$LT$impl$u20$core..fmt..Display$u20$for$u20$u64$GT$3fmt17h64ef4ec31dac3e6aE
400f3c9c l     F .text	00000068 _ZN4core3fmt3num51_$LT$impl$u20$core..fmt..Binary$u20$for$u20$u32$GT$3fmt17h0aa6b0d737fb1451E
400f3d40 l     F .text	00000034 _ZN42_$LT$$RF$T$u20$as$u20$core..fmt..Debug$GT$3fmt17h3df0566beee5c9ebE
400f3dfc l     F .text	0000003e _ZN42_$LT$$RF$T$u20$as$u20$core..fmt..Debug$GT$3fmt17h9f3d11075e5e9f7cE
400f3da4 l     F .text	00000056 _ZN42_$LT$$RF$T$u20$as$u20$core..fmt..Debug$GT$3fmt17h0e2e54d776967423E
400f3f48 l     F .text	000001ae _ZN44_$LT$$RF$T$u20$as$u20$core..fmt..Display$GT$3fmt17h27d04bf2285f22e5E
400f3e3c l     F .text	0000010b _ZN42_$LT$$RF$T$u20$as$u20$core..fmt..Debug$GT$3fmt17h235a6544060acd6eE
400f40f8 l     F .text	0000004f _ZN66_$LT$der..tag..number..TagNumber$u20$as$u20$core..fmt..Display$GT$3fmt17h027e298160e349b1E
400fb540 l     F .text	00000057 _ZN42_$LT$$RF$T$u20$as$u20$core..fmt..Debug$GT$3fmt17h8cdabf98869f3ff2E
400f41a0 l     F .text	00000058 _ZN42_$LT$$RF$T$u20$as$u20$core..fmt..Debug$GT$3fmt17haea9f9fb91645487E
400f41f8 l     F .text	0000002a _ZN16embassy_executor3raw5waker5clone17h4973881ca73f6068E
400f427c l     F .text	0000007c _ZN16embassy_executor3raw9wake_task17h2c1d74427ede7b33E
400f4224 l     F .text	0000002d _ZN16embassy_executor3raw5waker4wake17hef51478cf5effa49E
400f4254 l     F .text	00000025 _ZN16embassy_executor3raw5waker4drop17hf9dde0d07c0dc7dfE
400f4e24 l     F .text	00000119 _ZN42_$LT$$RF$T$u20$as$u20$core..fmt..Debug$GT$3fmt17hfbd67b8848bac903E
400f434c l     F .text	00000033 _ZN42_$LT$$RF$T$u20$as$u20$core..fmt..Debug$GT$3fmt17h5e1f303b5c36df0dE
400f4380 l     F .text	00000031 _ZN42_$LT$$RF$T$u20$as$u20$core..fmt..Debug$GT$3fmt17h6908601bbdf7a96bE
400f43b4 l     F .text	00000033 _ZN42_$LT$$RF$T$u20$as$u20$core..fmt..Debug$GT$3fmt17hd70230a257615ef9E
4010bab8 l     F .text	00000072 _ZN65_$LT$smoltcp..wire..ip..Address$u20$as$u20$core..fmt..Display$GT$3fmt17h802951b400dfcc2fE
400f4600 l     F .text	000000b6 _ZN7smoltcp5iface9interface9Interface15update_ip_addrs17hc89d25eac60274b8E
400f47b8 l     F .text	0000006a _ZN72_$LT$embassy_net_driver..HardwareAddress$u20$as$u20$core..fmt..Debug$GT$3fmt17h9e77f584f6a6bc20E
400f4d3c l     F .text	00000055 _ZN66_$LT$core..option..Option$LT$T$GT$$u20$as$u20$core..fmt..Debug$GT$3fmt17h7380ac7287535c9eE
4010bb2c l     F .text	000000df _ZN7smoltcp5iface5route6Routes25remove_default_ipv4_route17ha2151deab5bbc88eE
400f4d94 l     F .text	00000035 _ZN74_$LT$smoltcp..iface..route..RouteTableFull$u20$as$u20$core..fmt..Debug$GT$3fmt17h2485d82083d65046E
40105710 l     F .text	000000cf _ZN4p25610arithmetic5field12FieldElement10from_bytes17h2c11797aa4d0295dE
401042fc l     F .text	00000ea6 _ZN4p25610arithmetic5field10field_impl6fe_mul17h5802513aaa146737E
401051f0 l     F .text	00000302 _ZN4p25610arithmetic5field10field_impl6fe_add17ha04822900b72804cE
401051a4 l     F .text	0000004b _ZN80_$LT$p256..arithmetic..field..FieldElement$u20$as$u20$subtle..ConstantTimeEq$GT$5ct_eq17h1f39bbf3369c9396E
401054f4 l     F .text	0000021c _ZN4p25610arithmetic5field10field_impl6fe_sub17hdb658b6efda78140E
400f4fb0 l     F .text	000008b4 _ZN108_$LT$primeorder..affine..AffinePoint$LT$C$GT$$u20$as$u20$elliptic_curve..point..DecompressPoint$LT$C$GT$$GT$10decompress17h4caa650f3a5ea52fE
400f5938 l     F .text	00000057 _ZN42_$LT$$RF$T$u20$as$u20$core..fmt..Debug$GT$3fmt17he8e18a13f0908fdeE
400f58b0 l     F .text	00000085 _ZN55_$LT$sec1..error..Error$u20$as$u20$core..fmt..Debug$GT$3fmt17hcec30c5bbd85b3ceE
400f5990 l     F .text	000001d0 _ZN58_$LT$der..error..ErrorKind$u20$as$u20$core..fmt..Debug$GT$3fmt17hf70460463003bffeE.292
400f5bb8 l     F .text	0000003c _ZN56_$LT$der..length..Length$u20$as$u20$core..fmt..Debug$GT$3fmt17ha3e28a1d9aec5200E.293
400f5b60 l     F .text	00000055 _ZN66_$LT$core..option..Option$LT$T$GT$$u20$as$u20$core..fmt..Debug$GT$3fmt17h1ec66e20ae26b021E
400f5bf4 l     F .text	00000332 _ZN134_$LT$primeorder..point_arithmetic..EquationAIsMinusThree$u20$as$u20$primeorder..point_arithmetic..sealed..PointArithmetic$LT$C$GT$$GT$3add17hb90511753a80f634E
400f6284 l     F .text	00000299 _ZN134_$LT$primeorder..point_arithmetic..EquationAIsMinusThree$u20$as$u20$primeorder..point_arithmetic..sealed..PointArithmetic$LT$C$GT$$GT$6double17hca6f0b83f158629cE
400f6b44 l     F .text	0000004a _ZN12embedded_tls6buffer12CryptoBuffer3set17h597415aa2d82262eE
3ffd8ec0 l     O .bss	00000064 _ZN9esp_alloc4HEAP17hd7d24eb5f15f4ab9E
40103d5c l     F .text	00000056 _ZN21linked_list_allocator4hole8HoleList12align_layout17h02aae243ac275949E
40103dec l     F .text	00000056 _ZN21linked_list_allocator8align_up17h80f9af126a09bca1E
400f8b34 l     F .text	0000008e _ZN9esp_alloc7EspHeap9free_caps17h28881d3e4577db2fE
400f8bc4 l     F .text	0000004d _ZN42_$LT$$RF$T$u20$as$u20$core..fmt..Debug$GT$3fmt17h8bd88195964c5f06E
400f8c14 l     F .text	000000a9 _ZN44_$LT$$RF$T$u20$as$u20$core..fmt..Display$GT$3fmt17hac2076ccc5106b2fE
400f8cc0 l     F .text	00000068 _ZN74_$LT$esp_backtrace..arch..ExceptionCause$u20$as$u20$core..fmt..Display$GT$3fmt17h1f457a926fc89dafE
400f8d28 l     F .text	00000283 _ZN65_$LT$esp_backtrace..arch..Context$u20$as$u20$core..fmt..Debug$GT$3fmt17h69f96c8bdb0b3b9dE
400f8fe4 l     F .text	0000004e _ZN13esp_backtrace4arch2sp17h8ef23edcf812cb05E
400f9034 l     F .text	0000008c _ZN13esp_backtrace4arch18backtrace_internal17h48d0e1347b85f493E
400f8fac l     F .text	00000035 _ZN13esp_backtrace4arch9backtrace17h7388f6d98dc38d4aE
400f91bc l     F .text	0000005a _ZN13esp_backtrace13pre_backtrace17he3df0b9f23f2fbe9E
400fb3ac l     F .text	00000036 _ZN4core3fmt5Write9write_fmt17h01237ae104d06377E
400f9218 l     F .text	00000054 _ZN13esp_backtrace5abort17h71aef945d8be3933E
400f926c l     F .text	0000005a _ZN13esp_backtrace14set_color_code17hf4d6d62272c818a0E
400f92c8 l     F .text	00000036 _ZN13esp_backtrace4halt17ha3d3cc65b1863f7eE
400f9368 l     F .text	00000083 _ZN7esp_hal4sync18LockGuard$LT$L$GT$13new_reentrant17h98ffeab01c6281bcE
400f9300 l     F .text	00000067 _ZN87_$LT$esp_hal..sync..RawMutex$u20$as$u20$embassy_sync..blocking_mutex..raw..RawMutex$GT$4lock17hec876550fefa2887E
3f41020c l     O .rodata	00000000 _ZN3log6logger3NOP17hfea756037229ad69E
3ffd872c l     O .bss	00000058 _ZN7esp_hal6system20PERIPHERAL_REF_COUNT17hc7c5ef33fec6a429E
400f9a7c l     F .text	00000043 _ZN64_$LT$esp_hal..system..Peripheral$u20$as$u20$core..fmt..Debug$GT$3fmt17h6010a1998bee443cE
400f9b48 l     F .text	0000021a _ZN7esp_hal6system17assert_peri_reset17h6aabbbc045b8b2b9E
400f9e04 l     F .text	000001b2 _ZN7esp_hal9interrupt6xtensa16setup_interrupts17hb9a942f8b952faadE
400fa084 l     F .text	00000055 _ZN7esp_hal9interrupt15InterruptStatus3set17hc97d04022a2235c5E
400fa0dc l     F .text	0000007e _ZN102_$LT$esp_hal..interrupt..InterruptStatusIterator$u20$as$u20$core..iter..traits..iterator..Iterator$GT$4next17hb0bda2c49e52b1dbE
400fa15c l     F .text	00000080 _ZN7esp_hal4sync11single_core12PriorityLock20change_current_level17h230ca79413c89165E
400fa1dc l     F .text	000000ac _ZN96_$LT$esp_hal..sync..single_core..PriorityLock$u20$as$u20$esp_hal..sync..single_core..RawLock$GT$4exit17h970fac9b6b5d4fbcE
400fa320 l     F .text	00000053 _ZN7esp_hal5timer4timg5Timer13reset_counter17heea343fc4ed851dbE
400fa374 l     F .text	0000005b _ZN7esp_hal5timer4timg5Timer16set_alarm_active17h78988136adc5235dE
400fa4f0 l     F .text	0000005b _ZN69_$LT$esp_hal..timer..timg..Timer$u20$as$u20$esp_hal..timer..Timer$GT$16enable_interrupt17h801518bff3535576E
3ffc0c40 l     O .data	00000004 _ZN7esp_hal4gpio9GPIO_LOCK17h2a306228f20d178cE
3ffd8724 l     O .bss	00000008 _ZN7esp_hal4gpio8GpioBank16async_operations5FLAGS17h52d3ec8132b98521E
3ffc0c44 l     O .data	0000000c _ZN71_$LT$esp_hal..peripherals..GPIO0$u20$as$u20$esp_hal..gpio..InputPin$GT$5waker5WAKER17hc767b9eee4fdde35E
3ffc0ddc l     O .data	0000000c _ZN72_$LT$esp_hal..peripherals..GPIO39$u20$as$u20$esp_hal..gpio..InputPin$GT$5waker5WAKER17h482551f8b5251073E
3ffc0dd0 l     O .data	0000000c _ZN72_$LT$esp_hal..peripherals..GPIO38$u20$as$u20$esp_hal..gpio..InputPin$GT$5waker5WAKER17h0cdb32b8695625d6E
3ffc0dc4 l     O .data	0000000c _ZN72_$LT$esp_hal..peripherals..GPIO37$u20$as$u20$esp_hal..gpio..InputPin$GT$5waker5WAKER17h11866ded76186a51E
3ffc0db8 l     O .data	0000000c _ZN72_$LT$esp_hal..peripherals..GPIO36$u20$as$u20$esp_hal..gpio..InputPin$GT$5waker5WAKER17h2447c3ffe30e5a6dE
3ffc0dac l     O .data	0000000c _ZN72_$LT$esp_hal..peripherals..GPIO35$u20$as$u20$esp_hal..gpio..InputPin$GT$5waker5WAKER17h8289afbfba79ee97E
3ffc0da0 l     O .data	0000000c _ZN72_$LT$esp_hal..peripherals..GPIO34$u20$as$u20$esp_hal..gpio..InputPin$GT$5waker5WAKER17hd0ae6ac8776ea0daE
3ffc0d94 l     O .data	0000000c _ZN72_$LT$esp_hal..peripherals..GPIO33$u20$as$u20$esp_hal..gpio..InputPin$GT$5waker5WAKER17hf16eb5daa5c4034dE
3ffc0d88 l     O .data	0000000c _ZN72_$LT$esp_hal..peripherals..GPIO32$u20$as$u20$esp_hal..gpio..InputPin$GT$5waker5WAKER17h9350933845aaab48E
3ffc0d7c l     O .data	0000000c _ZN72_$LT$esp_hal..peripherals..GPIO27$u20$as$u20$esp_hal..gpio..InputPin$GT$5waker5WAKER17hb31b6347740134a6E
3ffc0d70 l     O .data	0000000c _ZN72_$LT$esp_hal..peripherals..GPIO26$u20$as$u20$esp_hal..gpio..InputPin$GT$5waker5WAKER17h858898937c92fd55E
3ffc0d64 l     O .data	0000000c _ZN72_$LT$esp_hal..peripherals..GPIO25$u20$as$u20$esp_hal..gpio..InputPin$GT$5waker5WAKER17h127ee8210681bc2aE
3ffc0d58 l     O .data	0000000c _ZN72_$LT$esp_hal..peripherals..GPIO23$u20$as$u20$esp_hal..gpio..InputPin$GT$5waker5WAKER17hc85a1dfb0be2e487E
3ffc0d4c l     O .data	0000000c _ZN72_$LT$esp_hal..peripherals..GPIO22$u20$as$u20$esp_hal..gpio..InputPin$GT$5waker5WAKER17h76227911ec0f03c8E
3ffc0d40 l     O .data	0000000c _ZN72_$LT$esp_hal..peripherals..GPIO21$u20$as$u20$esp_hal..gpio..InputPin$GT$5waker5WAKER17hf39439064ad9df54E
3ffc0d34 l     O .data	0000000c _ZN72_$LT$esp_hal..peripherals..GPIO20$u20$as$u20$esp_hal..gpio..InputPin$GT$5waker5WAKER17h15f347e11cb44d40E
3ffc0d28 l     O .data	0000000c _ZN72_$LT$esp_hal..peripherals..GPIO19$u20$as$u20$esp_hal..gpio..InputPin$GT$5waker5WAKER17hd9febee2d97ad0caE
3ffc0d1c l     O .data	0000000c _ZN72_$LT$esp_hal..peripherals..GPIO18$u20$as$u20$esp_hal..gpio..InputPin$GT$5waker5WAKER17hb76193e51534750fE
3ffc0d10 l     O .data	0000000c _ZN72_$LT$esp_hal..peripherals..GPIO17$u20$as$u20$esp_hal..gpio..InputPin$GT$5waker5WAKER17hb9fa229cf4f6cd8bE
3ffc0d04 l     O .data	0000000c _ZN72_$LT$esp_hal..peripherals..GPIO16$u20$as$u20$esp_hal..gpio..InputPin$GT$5waker5WAKER17hf3d3f0980050714eE
3ffc0cf8 l     O .data	0000000c _ZN72_$LT$esp_hal..peripherals..GPIO15$u20$as$u20$esp_hal..gpio..InputPin$GT$5waker5WAKER17hcc4afbbc8bc37832E
3ffc0cec l     O .data	0000000c _ZN72_$LT$esp_hal..peripherals..GPIO14$u20$as$u20$esp_hal..gpio..InputPin$GT$5waker5WAKER17hc73c800a1c264b89E
3ffc0ce0 l     O .data	0000000c _ZN72_$LT$esp_hal..peripherals..GPIO13$u20$as$u20$esp_hal..gpio..InputPin$GT$5waker5WAKER17hbb4e78a9f1c73fdeE
3ffc0cd4 l     O .data	0000000c _ZN72_$LT$esp_hal..peripherals..GPIO12$u20$as$u20$esp_hal..gpio..InputPin$GT$5waker5WAKER17h8679c93fc8948b20E
3ffc0cc8 l     O .data	0000000c _ZN72_$LT$esp_hal..peripherals..GPIO11$u20$as$u20$esp_hal..gpio..InputPin$GT$5waker5WAKER17hd08ec26be13963aaE
3ffc0cbc l     O .data	0000000c _ZN72_$LT$esp_hal..peripherals..GPIO10$u20$as$u20$esp_hal..gpio..InputPin$GT$5waker5WAKER17hb61bd5db4ce19d3bE
3ffc0cb0 l     O .data	0000000c _ZN71_$LT$esp_hal..peripherals..GPIO9$u20$as$u20$esp_hal..gpio..InputPin$GT$5waker5WAKER17h42c43f3f9f1314ffE
3ffc0ca4 l     O .data	0000000c _ZN71_$LT$esp_hal..peripherals..GPIO8$u20$as$u20$esp_hal..gpio..InputPin$GT$5waker5WAKER17h7ef08f87315bfc18E
3ffc0c98 l     O .data	0000000c _ZN71_$LT$esp_hal..peripherals..GPIO7$u20$as$u20$esp_hal..gpio..InputPin$GT$5waker5WAKER17h6cc254cf135e073cE
3ffc0c8c l     O .data	0000000c _ZN71_$LT$esp_hal..peripherals..GPIO6$u20$as$u20$esp_hal..gpio..InputPin$GT$5waker5WAKER17h1a24f07b78d1b721E
3ffc0c80 l     O .data	0000000c _ZN71_$LT$esp_hal..peripherals..GPIO5$u20$as$u20$esp_hal..gpio..InputPin$GT$5waker5WAKER17hf6ca88b6cef80790E
3ffc0c74 l     O .data	0000000c _ZN71_$LT$esp_hal..peripherals..GPIO4$u20$as$u20$esp_hal..gpio..InputPin$GT$5waker5WAKER17hfedc5a3da70c372fE
3ffc0c68 l     O .data	0000000c _ZN71_$LT$esp_hal..peripherals..GPIO3$u20$as$u20$esp_hal..gpio..InputPin$GT$5waker5WAKER17h3e209b2564a912a3E
3ffc0c5c l     O .data	0000000c _ZN71_$LT$esp_hal..peripherals..GPIO2$u20$as$u20$esp_hal..gpio..InputPin$GT$5waker5WAKER17hc1da1782b4fa8f93E
3ffc0c50 l     O .data	0000000c _ZN71_$LT$esp_hal..peripherals..GPIO1$u20$as$u20$esp_hal..gpio..InputPin$GT$5waker5WAKER17h06537f9a3401c0a0E
400fa93c l     F .text	0000009e _ZN7esp_hal4sync24GenericRawMutex$LT$L$GT$7acquire17h05764bf7a2f3d1eaE
400fa9dc l     F .text	00000021 _ZN15esp_hal_embassy11time_driver17not_enough_timers17h8ab6880f5988a94eE
400faa00 l     F .text	00000024 _ZN4core9panicking13assert_failed17h9dfed29f643830daE
400faa24 l     F .text	0000005e _ZN42_$LT$$RF$T$u20$as$u20$core..fmt..Debug$GT$3fmt17h221bddc63688a0b7E
400fac24 l     F .text	00000052 _ZN7esp_hal4sync24GenericRawMutex$LT$L$GT$4lock17h9bb153d2200beb56E
400fac78 l     F .text	00000411 _ZN15esp_hal_embassy11timer_queue10TimerQueue8dispatch17h691987edc95b1fb1E
400faa84 l     F .text	00000036 _ZN15esp_hal_embassy11time_driver6DRIVER7handler17hf54b4dd8002de3ddE
400faabc l     F .text	00000039 _ZN15esp_hal_embassy11time_driver6DRIVER7handler17hb334d050c5e8d928E
400faaf8 l     F .text	0000003a _ZN15esp_hal_embassy11time_driver6DRIVER7handler17h71941046500a77d8E
400fab34 l     F .text	0000003a _ZN15esp_hal_embassy11time_driver6DRIVER7handler17h53657e83aefc074eE
400fab70 l     F .text	0000003a _ZN15esp_hal_embassy11time_driver6DRIVER7handler17hd3e61d0ee4ed24e2E
400fabac l     F .text	0000003a _ZN15esp_hal_embassy11time_driver6DRIVER7handler17h845a3647f6445accE
400fabe8 l     F .text	0000003a _ZN15esp_hal_embassy11time_driver6DRIVER7handler17h835fc6e4cc37108aE
400fb254 l     F .text	00000033 _ZN44_$LT$$RF$T$u20$as$u20$core..fmt..Display$GT$3fmt17h0f7f683bc2cae7c7E
400fb354 l     F .text	00000057 _ZN11esp_println7Printer11write_bytes17h8d30d795bf35e575E
400fb288 l     F .text	000000c9 _ZN4core3fmt5Write10write_char17h73192af7b0c8ed17E
400fb3e4 l     F .text	00000031 _ZN57_$LT$esp_println..Printer$u20$as$u20$core..fmt..Write$GT$9write_str17hcd03b541db5b540eE
400fb418 l     F .text	0000003c _ZN56_$LT$log..SetLoggerError$u20$as$u20$core..fmt..Debug$GT$3fmt17h8e6a462754071676E
400fb454 l     F .text	00000033 _ZN62_$LT$esp_println..logger..EspEnvLogger$u20$as$u20$log..Log$GT$7enabled17h97e8740dc0e2595eE
40103e44 l     F .text	0000003b _ZN49_$LT$log..Level$u20$as$u20$core..fmt..Display$GT$3fmt17h06e3069ee1bcf4fdE
400fb488 l     F .text	000000b5 _ZN62_$LT$esp_println..logger..EspEnvLogger$u20$as$u20$log..Log$GT$3log17h54673e11c5b8ffe5E
400fb698 l     F .text	00000055 _ZN64_$LT$core..str..error..Utf8Error$u20$as$u20$core..fmt..Debug$GT$3fmt17h119531337d94ca06E.500
400fb6f0 l     F .text	000000a4 _ZN8esp_wifi4wifi10os_adapter8set_intr17h18201cc17c63b7f7E
400fb794 l     F .text	0000007b _ZN8esp_wifi4wifi10os_adapter10clear_intr17h863f68080637b20fE
3ffd8f2c l     O .bss	00000004 _ZN8esp_wifi4wifi10os_adapter15ISR_INTERRUPT_117h1538a9ec5f9cd4eaE.0
3ffd8f30 l     O .bss	00000004 _ZN8esp_wifi4wifi10os_adapter15ISR_INTERRUPT_117h1538a9ec5f9cd4eaE.1
400fb810 l     F .text	00000108 _ZN8esp_wifi4wifi10os_adapter24os_adapter_chip_specific7set_isr17h4be37c28ffdfff0aE
400fb918 l     F .text	00000080 _ZN8esp_wifi4wifi10os_adapter7ints_on17h34801622025b5adeE
400fb998 l     F .text	00000085 _ZN8esp_wifi4wifi10os_adapter8ints_off17hcb2de78f2d0a181cE
40100188 l     F .text	00000080 _ZN8esp_wifi6compat6common10sem_create17h507d6b6dafb32233E
400fba20 l     F .text	0000007b _ZN8esp_wifi4wifi10os_adapter16spin_lock_create17h9f0ad3315377a486E
40100120 l     F .text	00000068 _ZN8esp_wifi6compat6common10sem_delete17hcd1badc2bfbc0257E
400fba9c l     F .text	00000079 _ZN8esp_wifi4wifi10os_adapter16spin_lock_delete17h89e4800499b71b6bE
3ffc0fd0 l     O .data	00000004 _ZN8esp_wifi4wifi10os_adapter9WIFI_LOCK17h0796c05cdf76d55dE
400fbb18 l     F .text	000000c1 _ZN8esp_wifi4wifi10os_adapter16wifi_int_disable17h1a58b15c29f73754E
400fbbdc l     F .text	00000077 _ZN8esp_wifi4wifi10os_adapter16wifi_int_restore17h22bcfbc340229b70E
400fbc54 l     F .text	00000066 _ZN8esp_wifi4wifi10os_adapter19task_yield_from_isr17h7701b467d4cbaa34E
400fbcbc l     F .text	00000087 _ZN8esp_wifi14common_adapter13semphr_create17h1446dd8f67310814E
400fbd44 l     F .text	00000079 _ZN8esp_wifi14common_adapter13semphr_delete17hdba2bea3ebf7c408E
400ff568 l     F .text	0000006a _ZN8esp_wifi4time14systimer_count17hf3d393448278eb07E
40081534 l     F .rwtext	0000021e _ZN8esp_wifi14common_adapter11semphr_take17h7efacd204f26302dE
40081754 l     F .rwtext	00000094 _ZN8esp_wifi14common_adapter11semphr_give17hdbf54188d6f90898E
3ffc0e84 l     O .data	0000000c _ZN8esp_wifi15preempt_builtin15SCHEDULER_STATE17he12875ab3a611242E
400fbdc0 l     F .text	00000086 _ZN8esp_wifi4wifi10os_adapter22wifi_thread_semphr_get17h0a6b639a07899ddeE
400fbe48 l     F .text	00000023 _ZN8esp_wifi4wifi10os_adapter12mutex_create17h0e5b25cc8e09712aE
400fbe6c l     F .text	00000083 _ZN8esp_wifi4wifi10os_adapter22recursive_mutex_create17hc12de80a05dac1bfE
400fbef0 l     F .text	000000e6 _ZN8esp_wifi4wifi10os_adapter10mutex_lock17h402e747ae11b45caE
400fbfd8 l     F .text	000000a6 _ZN8esp_wifi4wifi10os_adapter12mutex_unlock17h46228c36ba284217E
400ff228 l     F .text	0000012c _ZN8esp_wifi6compat6common12create_queue17he2f8815ea718894dE
400fc080 l     F .text	00000076 _ZN8esp_wifi4wifi10os_adapter12queue_create17h552c5b13c9d133d2E
40100008 l     F .text	00000118 _ZN8esp_wifi6compat6common11send_queued17ha7976f9dcf36f644E
400fc0f8 l     F .text	00000033 _ZN8esp_wifi4wifi10os_adapter10queue_send17h2e5a54005c1d0fe2E
400fc12c l     F .text	00000071 _ZN8esp_wifi4wifi10os_adapter19queue_send_from_isr17h05614bda2987f5ebE
400fc1a0 l     F .text	00000023 _ZN8esp_wifi4wifi10os_adapter18queue_send_to_back17hb9156bbf02bb73eaE
400fc1c4 l     F .text	00000023 _ZN8esp_wifi4wifi10os_adapter19queue_send_to_front17h3a8eb08c6d8e44c0E
400fc1e8 l     F .text	0000009c _ZN8esp_wifi4wifi10os_adapter17queue_msg_waiting17h0a723d22265d0daaE
400fc284 l     F .text	00000023 _ZN8esp_wifi4wifi10os_adapter18event_group_create17h881e9d0a3b9e41e7E
400fc2a8 l     F .text	00000023 _ZN8esp_wifi4wifi10os_adapter18event_group_delete17h2c0fdebc4cfab48aE
400fc2cc l     F .text	00000023 _ZN8esp_wifi4wifi10os_adapter20event_group_set_bits17h4b664006df170f53E
400fc2f0 l     F .text	00000023 _ZN8esp_wifi4wifi10os_adapter22event_group_clear_bits17h117f85dec71385b2E
400fc314 l     F .text	00000023 _ZN8esp_wifi4wifi10os_adapter21event_group_wait_bits17h59e456ea262bab47E
400fc338 l     F .text	000000e6 _ZN8esp_wifi4wifi10os_adapter26task_create_pinned_to_core17h7c1bb3c294a5abd4E
400fc420 l     F .text	0000003f _ZN8esp_wifi4wifi10os_adapter11task_create17h25111950a532fe04E
400ffc14 l     F .text	00000054 _ZN92_$LT$esp_wifi..preempt_builtin..BuiltinScheduler$u20$as$u20$esp_wifi..preempt..Scheduler$GT$22schedule_task_deletion17h588a5fb26109b867E
400fc460 l     F .text	0000009d _ZN8esp_wifi4wifi10os_adapter11task_delete17ha74c6230281efd50E
400fc500 l     F .text	000000ae _ZN8esp_wifi4wifi10os_adapter10task_delay17hb10591f96b2e6e5bE
400fc5b0 l     F .text	00000077 _ZN8esp_wifi4wifi10os_adapter15task_ms_to_tick17h3d7d799d2d0b549bE
400fc628 l     F .text	00000090 _ZN8esp_wifi4wifi10os_adapter21task_get_current_task17h7bfb5ef753276b2dE
400fc6b8 l     F .text	00000063 _ZN8esp_wifi4wifi10os_adapter21task_get_max_priority17h090eee4e7f9308e4E
400ffbd0 l     F .text	00000042 _ZN62_$LT$esp_wifi..wifi..WifiEvent$u20$as$u20$core..fmt..Debug$GT$3fmt17hbe5695e6453d35c1E
3ffc1298 l     O .data	0000000c _ZN94_$LT$esp_wifi..wifi..event..StaNeighborRep$u20$as$u20$esp_wifi..wifi..event..sealed..Event$GT$7handler6HANDLE17hfbfdd53bb997e270E
3ffc128c l     O .data	0000000c _ZN97_$LT$esp_wifi..wifi..event..HomeChannelChange$u20$as$u20$esp_wifi..wifi..event..sealed..Event$GT$7handler6HANDLE17h51daaafb56bf8a4fE
3ffc1280 l     O .data	0000000c _ZN93_$LT$esp_wifi..wifi..event..NdpTerminated$u20$as$u20$esp_wifi..wifi..event..sealed..Event$GT$7handler6HANDLE17h86a9488ceeabf6e4E
3ffc1274 l     O .data	0000000c _ZN90_$LT$esp_wifi..wifi..event..NdpConfirm$u20$as$u20$esp_wifi..wifi..event..sealed..Event$GT$7handler6HANDLE17hc14d174a163eb11cE
3ffc1268 l     O .data	0000000c _ZN93_$LT$esp_wifi..wifi..event..NdpIndication$u20$as$u20$esp_wifi..wifi..event..sealed..Event$GT$7handler6HANDLE17hf0ce132a90d33c5dE
3ffc125c l     O .data	0000000c _ZN90_$LT$esp_wifi..wifi..event..NanReceive$u20$as$u20$esp_wifi..wifi..event..sealed..Event$GT$7handler6HANDLE17h85269c67d9c6e242E
3ffc1250 l     O .data	0000000c _ZN90_$LT$esp_wifi..wifi..event..NanReplied$u20$as$u20$esp_wifi..wifi..event..sealed..Event$GT$7handler6HANDLE17h0f987fed1352cb19E
3ffc1244 l     O .data	0000000c _ZN91_$LT$esp_wifi..wifi..event..NanSvcMatch$u20$as$u20$esp_wifi..wifi..event..sealed..Event$GT$7handler6HANDLE17h774ea7565e4d9525E
3ffc1238 l     O .data	0000000c _ZN90_$LT$esp_wifi..wifi..event..NanStopped$u20$as$u20$esp_wifi..wifi..event..sealed..Event$GT$7handler6HANDLE17h6df7beaea2a50525E
3ffc122c l     O .data	0000000c _ZN90_$LT$esp_wifi..wifi..event..NanStarted$u20$as$u20$esp_wifi..wifi..event..sealed..Event$GT$7handler6HANDLE17h58dfd7565b3d378aE
3ffc1220 l     O .data	0000000c _ZN92_$LT$esp_wifi..wifi..event..BtwtTeardown$u20$as$u20$esp_wifi..wifi..event..sealed..Event$GT$7handler6HANDLE17h6f1a9cc9f2aeecbfE
3ffc1214 l     O .data	0000000c _ZN89_$LT$esp_wifi..wifi..event..BtwtSetup$u20$as$u20$esp_wifi..wifi..event..sealed..Event$GT$7handler6HANDLE17h40b784394daa56a4E
3ffc1208 l     O .data	0000000c _ZN89_$LT$esp_wifi..wifi..event..TwtWakeup$u20$as$u20$esp_wifi..wifi..event..sealed..Event$GT$7handler6HANDLE17hd17d16816708f517E
3ffc11fc l     O .data	0000000c _ZN91_$LT$esp_wifi..wifi..event..ItwtSuspend$u20$as$u20$esp_wifi..wifi..event..sealed..Event$GT$7handler6HANDLE17h23bf516045e39328E
3ffc11f0 l     O .data	0000000c _ZN89_$LT$esp_wifi..wifi..event..ItwtProbe$u20$as$u20$esp_wifi..wifi..event..sealed..Event$GT$7handler6HANDLE17hc45b4dfa7f2c64ffE
3ffc11e4 l     O .data	0000000c _ZN92_$LT$esp_wifi..wifi..event..ItwtTeardown$u20$as$u20$esp_wifi..wifi..event..sealed..Event$GT$7handler6HANDLE17h1887e8201293f163E
3ffc11d8 l     O .data	0000000c _ZN89_$LT$esp_wifi..wifi..event..ItwtSetup$u20$as$u20$esp_wifi..wifi..event..sealed..Event$GT$7handler6HANDLE17h0b945daef7f955a9E
3ffc11cc l     O .data	0000000c _ZN97_$LT$esp_wifi..wifi..event..ApWpsRgPbcOverlap$u20$as$u20$esp_wifi..wifi..event..sealed..Event$GT$7handler6HANDLE17h20fddf3470fa403bE
3ffc11c0 l     O .data	0000000c _ZN90_$LT$esp_wifi..wifi..event..ApWpsRgPin$u20$as$u20$esp_wifi..wifi..event..sealed..Event$GT$7handler6HANDLE17ha68700b4c2a55b51E
3ffc11b4 l     O .data	0000000c _ZN94_$LT$esp_wifi..wifi..event..ApWpsRgTimeout$u20$as$u20$esp_wifi..wifi..event..sealed..Event$GT$7handler6HANDLE17h9e07136d6b74a5c9E
3ffc11a8 l     O .data	0000000c _ZN93_$LT$esp_wifi..wifi..event..ApWpsRgFailed$u20$as$u20$esp_wifi..wifi..event..sealed..Event$GT$7handler6HANDLE17hab34bb27fa0571afE
3ffc119c l     O .data	0000000c _ZN94_$LT$esp_wifi..wifi..event..ApWpsRgSuccess$u20$as$u20$esp_wifi..wifi..event..sealed..Event$GT$7handler6HANDLE17hdc4117ce2dc5ebb7E
3ffc1190 l     O .data	0000000c _ZN117_$LT$esp_wifi..wifi..event..ConnectionlessModuleWakeIntervalStart$u20$as$u20$esp_wifi..wifi..event..sealed..Event$GT$7handler6HANDLE17hdad47bd91e72102cE
3ffc1184 l     O .data	0000000c _ZN96_$LT$esp_wifi..wifi..event..StaBeaconTimeout$u20$as$u20$esp_wifi..wifi..event..sealed..Event$GT$7handler6HANDLE17hfbd3843fa237bf92E
3ffc1178 l     O .data	0000000c _ZN87_$LT$esp_wifi..wifi..event..RocDone$u20$as$u20$esp_wifi..wifi..event..sealed..Event$GT$7handler6HANDLE17h8201dbadb03a7fd9E
3ffc116c l     O .data	0000000c _ZN94_$LT$esp_wifi..wifi..event..ActionTxStatus$u20$as$u20$esp_wifi..wifi..event..sealed..Event$GT$7handler6HANDLE17h351c7714197c0718E
3ffc1160 l     O .data	0000000c _ZN93_$LT$esp_wifi..wifi..event..StaBssRssiLow$u20$as$u20$esp_wifi..wifi..event..sealed..Event$GT$7handler6HANDLE17ha86d5231ff6b0a85E
3ffc1154 l     O .data	0000000c _ZN89_$LT$esp_wifi..wifi..event..FtmReport$u20$as$u20$esp_wifi..wifi..event..sealed..Event$GT$7handler6HANDLE17h7a3a9e2f9099cba3E
3ffc1148 l     O .data	0000000c _ZN96_$LT$esp_wifi..wifi..event..ApProbereqrecved$u20$as$u20$esp_wifi..wifi..event..sealed..Event$GT$7handler6HANDLE17haa331a608787a961E
3ffc113c l     O .data	0000000c _ZN97_$LT$esp_wifi..wifi..event..ApStadisconnected$u20$as$u20$esp_wifi..wifi..event..sealed..Event$GT$7handler6HANDLE17hd2ba9fbd7ef249c6E
3ffc1130 l     O .data	0000000c _ZN94_$LT$esp_wifi..wifi..event..ApStaconnected$u20$as$u20$esp_wifi..wifi..event..sealed..Event$GT$7handler6HANDLE17h44360d37c0f66807E
3ffc1124 l     O .data	0000000c _ZN86_$LT$esp_wifi..wifi..event..ApStop$u20$as$u20$esp_wifi..wifi..event..sealed..Event$GT$7handler6HANDLE17h932d2ef6bae0f1b5E
3ffc1118 l     O .data	0000000c _ZN87_$LT$esp_wifi..wifi..event..ApStart$u20$as$u20$esp_wifi..wifi..event..sealed..Event$GT$7handler6HANDLE17h1c8d0fe69d2680afE
400ffb94 l     F .text	0000003a _ZN105_$LT$esp_wifi..wifi..state..WifiState$u20$as$u20$core..convert..From$LT$esp_wifi..wifi..WifiEvent$GT$$GT$4from17h8a4ca6d278cd919fE
3ffc110c l     O .data	0000000c _ZN98_$LT$esp_wifi..wifi..event..StaWpsErPbcOverlap$u20$as$u20$esp_wifi..wifi..event..sealed..Event$GT$7handler6HANDLE17hfe0e030a327bcf7fE
3ffc1100 l     O .data	0000000c _ZN91_$LT$esp_wifi..wifi..event..StaWpsErPin$u20$as$u20$esp_wifi..wifi..event..sealed..Event$GT$7handler6HANDLE17hb6503ef59c431cacE
3ffc10f4 l     O .data	0000000c _ZN95_$LT$esp_wifi..wifi..event..StaWpsErTimeout$u20$as$u20$esp_wifi..wifi..event..sealed..Event$GT$7handler6HANDLE17h54ef6d37f4c51760E
3ffc10e8 l     O .data	0000000c _ZN94_$LT$esp_wifi..wifi..event..StaWpsErFailed$u20$as$u20$esp_wifi..wifi..event..sealed..Event$GT$7handler6HANDLE17h455f262621eea259E
3ffc10dc l     O .data	0000000c _ZN95_$LT$esp_wifi..wifi..event..StaWpsErSuccess$u20$as$u20$esp_wifi..wifi..event..sealed..Event$GT$7handler6HANDLE17h09be83757f47f514E
3ffc10d0 l     O .data	0000000c _ZN97_$LT$esp_wifi..wifi..event..StaAuthmodeChange$u20$as$u20$esp_wifi..wifi..event..sealed..Event$GT$7handler6HANDLE17hb13c60975fb4f67eE
3ffc10c4 l     O .data	0000000c _ZN95_$LT$esp_wifi..wifi..event..StaDisconnected$u20$as$u20$esp_wifi..wifi..event..sealed..Event$GT$7handler6HANDLE17hda2f1be8c16b0c68E
3ffc10b8 l     O .data	0000000c _ZN92_$LT$esp_wifi..wifi..event..StaConnected$u20$as$u20$esp_wifi..wifi..event..sealed..Event$GT$7handler6HANDLE17hf2ca1ec178c8d16fE
3ffc10ac l     O .data	0000000c _ZN87_$LT$esp_wifi..wifi..event..StaStop$u20$as$u20$esp_wifi..wifi..event..sealed..Event$GT$7handler6HANDLE17h8022f480a255cb3cE
3ffc10a0 l     O .data	0000000c _ZN88_$LT$esp_wifi..wifi..event..StaStart$u20$as$u20$esp_wifi..wifi..event..sealed..Event$GT$7handler6HANDLE17he2124e58b841ea22E
3ffc1094 l     O .data	0000000c _ZN88_$LT$esp_wifi..wifi..event..ScanDone$u20$as$u20$esp_wifi..wifi..event..sealed..Event$GT$7handler6HANDLE17h50c60835e69678b2E
3ffc1088 l     O .data	0000000c _ZN89_$LT$esp_wifi..wifi..event..WifiReady$u20$as$u20$esp_wifi..wifi..event..sealed..Event$GT$7handler6HANDLE17hac287de0707c19adE
400fc71c l     F .text	00000eb6 _ZN8esp_wifi4wifi10os_adapter10event_post17ha6345b261a4c373cE
400fd5d4 l     F .text	0000002d _ZN8esp_wifi4wifi10os_adapter4rand17h91ca853b333c9ea5E
400fd604 l     F .text	00000060 _ZN8esp_wifi4wifi10os_adapter39dport_access_stall_other_cpu_start_wrap17h43afe0767004f680E
400fd664 l     F .text	00000060 _ZN8esp_wifi4wifi10os_adapter37dport_access_stall_other_cpu_end_wrap17h943651c4e54a2872E
400fd6c4 l     F .text	00000060 _ZN8esp_wifi4wifi10os_adapter19wifi_apb80m_request17h1b242c33a747c269E
400fd724 l     F .text	00000060 _ZN8esp_wifi4wifi10os_adapter19wifi_apb80m_release17h5a22c57d12ffb6d7E
3ffd8fb8 l     O .bss	00000004 _ZN8esp_wifi14common_adapter13chip_specific14PHY_ACCESS_REF17h20e2f16e10d7b0eeE
3ffd8fb4 l     O .bss	00000001 _ZN8esp_wifi14common_adapter13chip_specific19S_IS_PHY_REG_STORED17h09f2b9224c2edc77E.0
400ff774 l     F .text	000000ef _ZN8esp_wifi14common_adapter17phy_disable_clock17hbddf8fcd4dc6d6a5E
400fd784 l     F .text	000000f5 _ZN8esp_wifi4wifi10os_adapter11phy_disable17h1255298439c92f67E
400fd87c l     F .text	00000066 _ZN8esp_wifi4wifi10os_adapter10phy_enable17h9d2ea5e1ef691c8bE
400ff864 l     F .text	000000ba _ZN8esp_wifi14common_adapter16phy_enable_clock17h67fff0f8eb826d40E
400fd8e4 l     F .text	0000002b _ZN8esp_wifi4wifi10os_adapter24os_adapter_chip_specific23phy_common_clock_enable17hc3f55dd07a14f719E
400fd910 l     F .text	0000002b _ZN8esp_wifi4wifi10os_adapter24os_adapter_chip_specific24phy_common_clock_disable17h102f2dfa984ab89fE
400fd93c l     F .text	0000007b _ZN8esp_wifi4wifi10os_adapter23phy_update_country_info17h75ee68ba4e053ee9E
400fd9b8 l     F .text	0000015e _ZN8esp_wifi14common_adapter8read_mac17h50abe85ae914e341E
400ff5d4 l     F .text	0000015f _ZN8esp_wifi6compat12timer_compat19compat_timer_arm_us17h40a434a075352569E
3ffc0e6c l     O .data	00000008 _ZN8esp_wifi6compat12timer_compat6TIMERS17hd10cd7ade84ea1c7E
400ff734 l     F .text	0000003f _ZN4core3ptr111drop_in_place$LT$core..option..Option$LT$alloc..boxed..Box$LT$esp_wifi..compat..timer_compat..Timer$GT$$GT$$GT$17hb4557c5edb6b9e51E
400ffdc0 l     F .text	00000031 _ZN4core3ptr48_$LT$impl$u20$core..fmt..Debug$u20$for$u20$F$GT$3fmt17h0ef4d8b2924a45b5E
400fdfd0 l     F .text	0000007f _ZN8esp_wifi4wifi10os_adapter14wifi_reset_mac17hcc243393b2c4ad5aE
400fe050 l     F .text	00000073 _ZN8esp_wifi4wifi10os_adapter17wifi_clock_enable17haa52e0f7995154c7E
400fe0c4 l     F .text	00000073 _ZN8esp_wifi4wifi10os_adapter18wifi_clock_disable17h9cbf341bc39054a1E
400fe138 l     F .text	00000023 _ZN8esp_wifi4wifi10os_adapter19wifi_rtc_enable_iso17he3ba4329b6319e4eE
400fe15c l     F .text	00000023 _ZN8esp_wifi4wifi10os_adapter20wifi_rtc_disable_iso17hb17902221d53436dE
400fe1ec l     F .text	00000062 _ZN8esp_wifi4wifi10os_adapter10nvs_set_i817h179624fc68b342afE
400fe250 l     F .text	00000023 _ZN8esp_wifi4wifi10os_adapter10nvs_get_i817h789ae884e93ae20eE
400fe274 l     F .text	00000023 _ZN8esp_wifi4wifi10os_adapter10nvs_set_u817h26768033d19e90c4E
400fe298 l     F .text	00000023 _ZN8esp_wifi4wifi10os_adapter10nvs_get_u817h1fb8434e759b1fbeE
400fe2bc l     F .text	00000023 _ZN8esp_wifi4wifi10os_adapter11nvs_set_u1617h268a5dccdef11cfeE
400fe2e0 l     F .text	00000023 _ZN8esp_wifi4wifi10os_adapter11nvs_get_u1617hed87132e818e8200E
400fe304 l     F .text	00000023 _ZN8esp_wifi4wifi10os_adapter8nvs_open17h97ab1d1a10d666dfE
400fe328 l     F .text	00000023 _ZN8esp_wifi4wifi10os_adapter9nvs_close17hd4512faf43a3bbf0E
400fe34c l     F .text	00000023 _ZN8esp_wifi4wifi10os_adapter10nvs_commit17h15135d7f2f467147E
400fe370 l     F .text	00000023 _ZN8esp_wifi4wifi10os_adapter12nvs_set_blob17h3107b690ef57dffdE
400fe394 l     F .text	00000023 _ZN8esp_wifi4wifi10os_adapter12nvs_get_blob17h2777675e9b14abd6E
400fe3b8 l     F .text	00000023 _ZN8esp_wifi4wifi10os_adapter13nvs_erase_key17hb752423e553f27caE
400fe3dc l     F .text	0000006c _ZN8esp_wifi4wifi10os_adapter10get_random17hfc2489b5045ee266E
400fe448 l     F .text	00000023 _ZN8esp_wifi4wifi10os_adapter8get_time17h0b444b9749a9460bE
400fe46c l     F .text	0000006c _ZN8esp_wifi4wifi10os_adapter13log_timestamp17h1ba83704129438f0E
400fe4d8 l     F .text	00000023 _ZN8esp_wifi4wifi10os_adapter16realloc_internal17h7a6d9873c53c6e2eE
400fe4fc l     F .text	00000031 _ZN8esp_wifi4wifi10os_adapter15calloc_internal17hb1f99da41914ac6cE
400fe530 l     F .text	00000031 _ZN8esp_wifi4wifi10os_adapter15zalloc_internal17hf61f8e4f1748d16fE
400fe564 l     F .text	00000023 _ZN8esp_wifi4wifi10os_adapter12wifi_realloc17h64d024bdfb48cafbE
400fe588 l     F .text	0000008b _ZN8esp_wifi4wifi10os_adapter11wifi_calloc17h55375d37f7847f2dE
400fe614 l     F .text	00000031 _ZN8esp_wifi4wifi10os_adapter11wifi_zalloc17h9cfa81eeefa4a4d4E
3ffd8f28 l     O .bss	00000004 _ZN8esp_wifi4wifi10os_adapter12QUEUE_HANDLE17h1367d83b226199d3E
400fe648 l     F .text	00000034 _ZN8esp_wifi4wifi10os_adapter17wifi_create_queue17h8db8b2ce28879fd0E
400ff0b4 l     F .text	00000085 _ZN8esp_wifi6compat6common12delete_queue17hdf75adf77677e4cbE
400fe67c l     F .text	000000b8 _ZN8esp_wifi4wifi10os_adapter17wifi_delete_queue17hd13bb049ad698c77E
400fe79c l     F .text	00000066 _ZN8esp_wifi4wifi10os_adapter11coex_deinit17h50097dd6c575bec5E
400fe804 l     F .text	00000068 _ZN8esp_wifi4wifi10os_adapter11coex_enable17h42490ed93bb8556cE
400fe86c l     F .text	00000066 _ZN8esp_wifi4wifi10os_adapter12coex_disable17h01972f84e277e532E
400fe8d4 l     F .text	00000068 _ZN8esp_wifi4wifi10os_adapter15coex_status_get17hdcb64c04266d31e5E
400fe93c l     F .text	0000006e _ZN8esp_wifi4wifi10os_adapter17coex_wifi_request17h1b114d7452ecbfedE
400fe9ac l     F .text	0000006a _ZN8esp_wifi4wifi10os_adapter17coex_wifi_release17h728ad3f524ee1443E
400fea18 l     F .text	0000006c _ZN8esp_wifi4wifi10os_adapter21coex_wifi_channel_set17h4f910bcdf4c0f164E
400fea84 l     F .text	0000006c _ZN8esp_wifi4wifi10os_adapter23coex_event_duration_get17h0e88f2a5b2f65c88E
400feaf0 l     F .text	00000080 _ZN8esp_wifi4wifi10os_adapter12coex_pti_get17h32cb54378f39db59E
400feb70 l     F .text	0000006a _ZN8esp_wifi4wifi10os_adapter26coex_schm_status_bit_clear17h37bc17daeee2e026E
400febdc l     F .text	0000006a _ZN8esp_wifi4wifi10os_adapter24coex_schm_status_bit_set17ha6b6697fc1ebad44E
400fec48 l     F .text	0000006a _ZN8esp_wifi4wifi10os_adapter22coex_schm_interval_set17h8f58c9849414f24dE
400fecb4 l     F .text	00000068 _ZN8esp_wifi4wifi10os_adapter22coex_schm_interval_get17h02a6d4b560f7ca93E
400fed1c l     F .text	00000068 _ZN8esp_wifi4wifi10os_adapter25coex_schm_curr_period_get17hacdb525bac706981E
400fed84 l     F .text	00000068 _ZN8esp_wifi4wifi10os_adapter24coex_schm_curr_phase_get17hf9fbf4dee7323f19E
400fedec l     F .text	00000068 _ZN8esp_wifi4wifi10os_adapter33coex_schm_process_restart_wrapper17h8c331a9867685d45E
400ff02c l     F .text	00000052 _ZN66_$LT$core..option..Option$LT$T$GT$$u20$as$u20$core..fmt..Debug$GT$3fmt17h01e99e9cce0bf1ffE
400fee54 l     F .text	000000ba _ZN8esp_wifi4wifi10os_adapter29coex_schm_register_cb_wrapper17h9281721b3204c696E
400fef10 l     F .text	0000002f _ZN8esp_wifi4wifi10os_adapter22coex_register_start_cb17h1f5615ae2378d205E
400fef40 l     F .text	00000081 _ZN8esp_wifi4wifi10os_adapter29coex_schm_flexible_period_set17h19eeecab7f4b769bE
400fefc4 l     F .text	00000068 _ZN8esp_wifi4wifi10os_adapter29coex_schm_flexible_period_get17hef5bd684a30f9fddE
400ff080 l     F .text	00000033 _ZN42_$LT$$RF$T$u20$as$u20$core..fmt..Debug$GT$3fmt17h8fb4692cf1d0f781E
3ffd8fc4 l     O .bss	00000004 _ZN8esp_wifi14common_adapter20PHY_CLOCK_ENABLE_REF17h9a6439b8868770adE
3ffd8721 l     O .bss	00000001 _ZN7esp_hal5clock21PHY_CLOCK_REF_COUNTER17h372eafac10f86044E.0
3ffd8fac l     O .bss	00000001 _ZN8esp_wifi14common_adapter13chip_specific19G_IS_PHY_CALIBRATED17hd46fd834e821fbfeE.0
3f40f168 l     O .rodata	00000080 _ZN8esp_wifi14common_adapter13phy_init_data21PHY_INIT_DATA_DEFAULT17hb521cf730a25f3a8E
400ffdf4 l     F .text	00000211 _ZN8esp_wifi6compat6common14receive_queued17h4f25cfab996a5f3aE
3ffc1074 l     O .data	00000014 _ZN8esp_wifi3ble16BT_RECEIVE_QUEUE17h674316b549a88ff5E
401004d4 l     F .text	00000043 _ZN5alloc7raw_vec19RawVec$LT$T$C$A$GT$8grow_one17h60974be60c2e444aE
40100460 l     F .text	00000072 _ZN5alloc11collections9vec_deque21VecDeque$LT$T$C$A$GT$4grow17h052e4661f5109cfcE
40100598 l     F .text	0000003f _ZN5alloc7raw_vec19RawVec$LT$T$C$A$GT$8grow_one17hff5eb029a1fe9100E
40100518 l     F .text	0000007d _ZN5alloc11collections9vec_deque21VecDeque$LT$T$C$A$GT$4grow17h298b1ea3810f5bc0E
401005d8 l     F .text	0000005f _ZN5alloc11collections9vec_deque21VecDeque$LT$T$C$A$GT$9push_back17hee448ed1591ef9d7E
3ffd8f24 l     O .bss	00000004 _ZN8esp_wifi6compat8_putchar3IDX17h04360a57e1c655ddE.0
3ffd8794 l     O .bss	00000100 _ZN8esp_wifi6compat8_putchar6BUFFER17h09ca8c517797bb84E
3ffd8f78 l     O .bss	00000004 _ZN8esp_wifi3ble4btdm28ble_os_adapter_chip_specific15ISR_INTERRUPT_717h7da8d8cf810acd95E.0
3ffd8f7c l     O .bss	00000004 _ZN8esp_wifi3ble4btdm28ble_os_adapter_chip_specific15ISR_INTERRUPT_717h7da8d8cf810acd95E.1
3ffd8f68 l     O .bss	00000004 _ZN8esp_wifi3ble4btdm28ble_os_adapter_chip_specific15ISR_INTERRUPT_517hf8de01fe6415e2b6E.0
3ffd8f6c l     O .bss	00000004 _ZN8esp_wifi3ble4btdm28ble_os_adapter_chip_specific15ISR_INTERRUPT_517hf8de01fe6415e2b6E.1
3ffd8f70 l     O .bss	00000004 _ZN8esp_wifi3ble4btdm28ble_os_adapter_chip_specific15ISR_INTERRUPT_817h6168ff901d71a284E.0
3ffd8f74 l     O .bss	00000004 _ZN8esp_wifi3ble4btdm28ble_os_adapter_chip_specific15ISR_INTERRUPT_817h6168ff901d71a284E.1
400818c0 l     F .rwtext	00000071 _ZN8esp_wifi14common_adapter20semphr_take_from_isr17h92ccd32abcf55bc3E
401013b0 l     F .text	00000031 _ZN8esp_wifi4wifi8internal28semphr_take_from_isr_wrapper17h17cf54eb26747bdcE
40081850 l     F .rwtext	0000006f _ZN8esp_wifi14common_adapter20semphr_give_from_isr17hfc226f8f36d3b3c8E
401013e4 l     F .text	00000031 _ZN8esp_wifi4wifi8internal28semphr_give_from_isr_wrapper17h89ae4d32a73c022aE
40101418 l     F .text	0000003a _ZN8esp_wifi4wifi8internal17is_in_isr_wrapper17h06c78bc379523971E
40101fd8 l     F .text	00000060 _ZN8esp_wifi3ble4btdm26notify_host_send_available17hfb2033d9fa1116f9E
3ffc1068 l     O .data	0000000c _ZN8esp_wifi3ble10controller6asynch9HCI_WAKER17h318daa90e5dc62b2E
40102038 l     F .text	00000135 _ZN8esp_wifi3ble4btdm16notify_host_recv17h14a79e1722c58ee3E
40102170 l     F .text	000001ae _ZN8esp_wifi3ble4btdm28ble_os_adapter_chip_specific7set_isr17hcd9ee0e6da320189E
40102320 l     F .text	00000080 _ZN8esp_wifi3ble4btdm28ble_os_adapter_chip_specific7ints_on17h5f3e67b744913e24E
3ffd8fa8 l     O .bss	00000004 _ZN8esp_wifi3ble4btdm21INTERRUPT_DISABLE_CNT17h8c216e76ec2f5376E.0
3ffd8f80 l     O .bss	00000028 _ZN8esp_wifi3ble4btdm13G_INTER_FLAGS17hb52a3917abff4578E
400819c8 l     F .rwtext	000000cc _ZN8esp_wifi3ble4btdm17interrupt_disable17h342966566a7d7264E
40081a94 l     F .rwtext	000000a7 _ZN8esp_wifi3ble4btdm16interrupt_enable17h660f96db4bf79d1dE
40081b3c l     F .rwtext	00000011 _ZN8esp_wifi3ble4btdm10task_yield17h28984145aeab393bE
401023a0 l     F .text	00000011 _ZN8esp_wifi3ble4btdm19task_yield_from_isr17h00fd8883720af3cfE
401023b4 l     F .text	00000031 _ZN8esp_wifi3ble4btdm13semphr_create17h87e541b338ea1777E
401023e8 l     F .text	0000002d _ZN8esp_wifi3ble4btdm13semphr_delete17h3fd72bc9e4d571e0E
40102418 l     F .text	00000031 _ZN8esp_wifi3ble4btdm11semphr_take17hfbfa080b2482a4abE
4010244c l     F .text	0000002f _ZN8esp_wifi3ble4btdm11semphr_give17h9c9736925342f800E
4010247c l     F .text	00000011 _ZN8esp_wifi3ble4btdm12mutex_create17h24c3135a8a4b1743E
40102490 l     F .text	00000011 _ZN8esp_wifi3ble4btdm12mutex_delete17ha1c19a902adf7439E
401024a4 l     F .text	00000011 _ZN8esp_wifi3ble4btdm10mutex_lock17hace7cedee38f8916E
401024b8 l     F .text	00000011 _ZN8esp_wifi3ble4btdm12mutex_unlock17h8c5fdb663dedef2aE
401024cc l     F .text	00000031 _ZN8esp_wifi3ble4btdm12queue_create17h110b784a556cdd38E
40102500 l     F .text	0000002d _ZN8esp_wifi3ble4btdm12queue_delete17hdf61f68f61346d54E
40081b50 l     F .rwtext	00000033 _ZN8esp_wifi3ble4btdm10queue_send17h2a3b0da8f7a23ad7E
40081b84 l     F .rwtext	0000009a _ZN8esp_wifi3ble4btdm19queue_send_from_isr17h3e69edc6a3fd7f60E
40102530 l     F .text	00000033 _ZN8esp_wifi3ble4btdm10queue_recv17h58a113c54c358005E
40081c20 l     F .rwtext	00000011 _ZN8esp_wifi3ble4btdm19queue_recv_from_isr17hc9151dab041a8fcbE
40102564 l     F .text	000000f2 _ZN8esp_wifi3ble4btdm11task_create17h5940cce8a7811be1E
40102658 l     F .text	0000009d _ZN8esp_wifi3ble4btdm11task_delete17h5bd6afd3ee3ea42fE
40081c34 l     F .rwtext	0000003a _ZN8esp_wifi3ble4btdm9is_in_isr17h02b04788846afc58E
40081c70 l     F .rwtext	0000008f _ZN8esp_wifi3ble4btdm21cause_sw_intr_to_core17hb8628384cb9d789eE
401026f8 l     F .text	0000002f _ZN8esp_wifi3ble15malloc_internal17hf7379721dec0feefE
40102728 l     F .text	0000002d _ZN8esp_wifi3ble4free17hf64f8f7262adfca1E
40081d00 l     F .rwtext	00000031 _ZN8esp_wifi3ble4btdm14read_efuse_mac17h9b04c0366779cee2E
40081d34 l     F .rwtext	0000006f _ZN8esp_wifi3ble4btdm5srand17h2e63098798f48dc3E
40081da4 l     F .rwtext	00000068 _ZN8esp_wifi3ble4btdm4rand17h6daaa4b683e209ffE
40081e0c l     F .rwtext	00000011 _ZN8esp_wifi3ble4btdm19btdm_lpcycles_2_hus17hf9835e62ff3c7262E
40081e20 l     F .rwtext	00000082 _ZN8esp_wifi3ble4btdm19btdm_hus_2_lpcycles17hb594d3daec56ebceE
40102758 l     F .text	00000011 _ZN8esp_wifi3ble4btdm25btdm_sleep_check_duration17h2c4b82b1cd0b2a6fE
4010276c l     F .text	00000011 _ZN8esp_wifi3ble4btdm23btdm_sleep_enter_phase117hdf01e6cf792e9b6eE
40102780 l     F .text	00000011 _ZN8esp_wifi3ble4btdm23btdm_sleep_enter_phase217hc5d13b6b58f9bbcfE
40102794 l     F .text	00000011 _ZN8esp_wifi3ble4btdm22btdm_sleep_exit_phase117h82dc85214001f579E
401027a8 l     F .text	00000011 _ZN8esp_wifi3ble4btdm22btdm_sleep_exit_phase217h5608d7d0c3c17d6aE
401027bc l     F .text	00000011 _ZN8esp_wifi3ble4btdm22btdm_sleep_exit_phase317h92ef52addc1dfb45E
401027d0 l     F .text	00000062 _ZN8esp_wifi3ble4btdm28ble_os_adapter_chip_specific22coex_bt_wakeup_request17hb60f3503eac233e0E
40102834 l     F .text	00000060 _ZN8esp_wifi3ble4btdm28ble_os_adapter_chip_specific26coex_bt_wakeup_request_end17h951907bf70266e2cE
40102894 l     F .text	0000006e _ZN8esp_wifi3ble4btdm28ble_os_adapter_chip_specific15coex_bt_request17h332cfbc0de8764c8E
40102904 l     F .text	0000006a _ZN8esp_wifi3ble4btdm28ble_os_adapter_chip_specific15coex_bt_release17hd6908c6553c8c1e6E
40102970 l     F .text	0000007b _ZN8esp_wifi3ble4btdm28ble_os_adapter_chip_specific27coex_register_bt_cb_wrapper17h79a8ef56106e3030E
401029ec l     F .text	00000068 _ZN8esp_wifi3ble4btdm28ble_os_adapter_chip_specific18coex_bb_reset_lock17h76d86a1bfd8df346E
40102a54 l     F .text	00000068 _ZN8esp_wifi3ble4btdm28ble_os_adapter_chip_specific20coex_bb_reset_unlock17h312c1e15870bb8eaE
40102abc l     F .text	0000007d _ZN8esp_wifi3ble4btdm28ble_os_adapter_chip_specific40coex_schm_register_btdm_callback_wrapper17hb6c8e458f1a8c06bE
40102b3c l     F .text	00000089 _ZN8esp_wifi3ble4btdm26coex_schm_status_bit_clear17h74ed8644cd017a6bE
40102bc8 l     F .text	00000089 _ZN8esp_wifi3ble4btdm24coex_schm_status_bit_set17h1dec070e1aa40583E
40102c54 l     F .text	00000068 _ZN8esp_wifi3ble4btdm28ble_os_adapter_chip_specific22coex_schm_interval_get17h8c7489997b3a4cd6E
40102cbc l     F .text	00000068 _ZN8esp_wifi3ble4btdm28ble_os_adapter_chip_specific25coex_schm_curr_period_get17h5318e7b27e3e2474E
40102d24 l     F .text	00000068 _ZN8esp_wifi3ble4btdm28ble_os_adapter_chip_specific24coex_schm_curr_phase_get17hb30630117e39760bE
40102d8c l     F .text	0000006c _ZN8esp_wifi3ble4btdm28ble_os_adapter_chip_specific21coex_wifi_channel_get17he9f8e9bb41fae563E
40102df8 l     F .text	0000006a _ZN8esp_wifi3ble4btdm28ble_os_adapter_chip_specific42coex_register_wifi_channel_change_callback17h8aaf68df0a2c2db7E
40102e64 l     F .text	00000033 _ZN8esp_wifi3ble4btdm9set_isr1317hdcdb9044f8005074E
40102e98 l     F .text	00000011 _ZN8esp_wifi3ble4btdm19custom_queue_create17h97610572681d868cE
40102eac l     F .text	000000e2 _ZN8esp_wifi3ble4btdm28ble_os_adapter_chip_specific24coex_version_get_wrapper17hdb7472c8f8509f32E
40102f90 l     F .text	0000006c _ZN8esp_wifi3ble4btdm28ble_os_adapter_chip_specific11patch_apply17h38c7a90ef963faa7E
4010332c l     F .text	00000035 _ZN42_$LT$$RF$T$u20$as$u20$core..fmt..Debug$GT$3fmt17hc3cf2ec91dec3298E
3f40fc04 l     O .rodata	00000100 _ZN8httparse9TOKEN_MAP17hccba070364904813E
3f40fd04 l     O .rodata	00000100 _ZN8httparse16HEADER_VALUE_MAP17hc50d8ae54efe1e2cE
40103364 l     F .text	000005aa _ZN8httparse25parse_headers_iter_uninit17h63bf06dfa2320d9dE
40103910 l     F .text	000000a0 _ZN8httparse10parse_code17h13ebd7ae2dfe49b9E
401039b0 l     F .text	000000ce _ZN8httparse12parse_reason17h24db7deeb3bd8acdE
40103db4 l     F .text	00000035 _ZN69_$LT$core..alloc..layout..LayoutError$u20$as$u20$core..fmt..Debug$GT$3fmt17h576e930d07757998E.612
3f4100fc l     O .rodata	00000030 _ZN3log15LOG_LEVEL_NAMES17h00fe2219faae7a2cE
40103e80 l     F .text	00000027 _ZN43_$LT$log..NopLogger$u20$as$u20$log..Log$GT$7enabled17h0eb7796ed55b56dbE
40103ea8 l     F .text	00000025 _ZN43_$LT$log..NopLogger$u20$as$u20$log..Log$GT$3log17hbee0e18f6d7f899aE
40103ed0 l     F .text	00000025 _ZN43_$LT$log..NopLogger$u20$as$u20$log..Log$GT$5flush17h54ffac16d16162cfE
401041a4 l     F .text	00000158 _ZN4core3str7pattern14TwoWaySearcher4next17hdbb14f897bd1752bE
3f4103b4 l     O .rodata	00000100 _ZN4core7unicode12unicode_data11white_space14WHITESPACE_MAP17hb9ff1ba156332c85E
40107cc4 l     F .text	00000107 _ZN4sha26sha2564soft22sha256_digest_round_x217hbd3b93a72633ab21E
40107dcc l     F .text	00000131 _ZN4sha26sha2564soft8schedule17hc1ba6d6b07a66884E
40107f58 l     F .text	000000b3 _ZN44_$LT$$RF$T$u20$as$u20$core..fmt..Display$GT$3fmt17hc0b8f6239d4f6778E
40108b90 l     F .text	0000010b _ZN8heapless10linear_map26LinearMap$LT$K$C$V$C$_$GT$6insert17hbd824dca426e47e2E
4010ba70 l     F .text	00000048 _ZN7smoltcp4wire6dhcpv415Packet$LT$T$GT$6opcode17hbcaa41aaa161bbddE
4010b604 l     F .text	0000037f _ZN7smoltcp6socket6dhcpv46Socket9parse_ack17h4ff1e0d6b354dda6E
4010b984 l     F .text	000000ec _ZN4core3cmp9PartialEq2ne17hd76008ad16071ad9E
4010b30c l     F .text	0000011a _ZN4core4iter6traits8iterator8Iterator8for_each17hb81c54e6d721e8adE
4010b200 l     F .text	00000073 _ZN7smoltcp6socket3tcp6Socket5reply17h29808e729910a732E
4010b180 l     F .text	0000007e _ZN7smoltcp7storage11ring_buffer19RingBuffer$LT$T$GT$15get_unallocated17h0c3643aa693c88afE
4010b0b0 l     F .text	00000051 _ZN7smoltcp7storage11ring_buffer19RingBuffer$LT$T$GT$16enqueue_one_with17h213173667f4bc8c3E
4010b104 l     F .text	0000007b _ZN7smoltcp7storage11ring_buffer19RingBuffer$LT$T$GT$17enqueue_many_with17h5a64a3dad164e3e5E
4010c600 l     F .text	0000024c _ZN42_$LT$$RF$T$u20$as$u20$core..fmt..Debug$GT$3fmt17h2d1f803ee77dc2a8E
4010c84c l     F .text	0000004b _ZN76_$LT$xtensa_lx_rt..exception..ExceptionCause$u20$as$u20$core..fmt..Debug$GT$3fmt17hd67898e547a75487E
00000000 l    df *ABS*	00000000 phy_chip_v7_ana.c
400886c8 l     F .rwtext.wifi	00000048 i2c_bbpll_init$part$0
3f413090 l     O .rodata	00000030 CSWTCH$133
3f413080 l     O .rodata	00000010 CSWTCH$169
4013bd80 l     F .text	0000012b get_rf_freq_init$part$2
00000000 l    df *ABS*	00000000 phy_chip_v7.c
3f413194 l     O .rodata	00000006 CSWTCH$360
4013d5b4 l     F .text	000000a9 bt_txdc_cal$part$5
4013d664 l     F .text	000000a2 bt_txiq_cal$part$6
401660f4 l     F .text	0000004a spur_cal$part$8
40090f98 l     F .rwtext.wifi	00000022 bt_tx_gain_cal_set$part$4
3ffc1c8d l     O .data	00000001 rfbb_gain_swp
3ffc1c90 l     O .data	0000000c wifi_rx_gain_swp
3ffc1c84 l     O .data	00000009 bt_rx_gain_swp
00000000 l    df *ABS*	00000000 phy_chip_v7_cal.c
3f413238 l     O .rodata	00000008 CSWTCH$256
3f413240 l     O .rodata	00000006 CSWTCH$254
3f413230 l     O .rodata	00000008 CSWTCH$266
3f413248 l     O .rodata	00000006 dco_gain_coarse$4710
3f41322c l     O .rodata	00000003 CSWTCH$283
3f413220 l     O .rodata	0000000b CSWTCH$289
3f41321c l     O .rodata	00000004 CSWTCH$293
00000000 l    df *ABS*	00000000 arch_main.c
40089c04 l     F .rwtext.wifi	00000015 DPORT_REG_READ
4010cd2c l     F .text	000000fa btdm_controller_deinit_internal
3ffd8fe0 l     O .bss	00000001 coex_ble_scan_reset_trigger
3ffc24dc l     O .data.wifi	00000004 s_btdm_state
40089c2c l     F .rwtext.wifi	0000004e coex_bt_callback
3ffc263d l     O .data.wifi	0000007b __c$20227
3ffc2603 l     O .data.wifi	0000003a __c$20229
3ffc25d9 l     O .data.wifi	0000002a __c$20231
3ffc25d0 l     O .data.wifi	00000009 __c$20233
3ffc25c2 l     O .data.wifi	0000000e __c$20235
3ffc25b9 l     O .data.wifi	00000009 __c$20237
3ffc2597 l     O .data.wifi	00000022 __c$20239
3ffc258e l     O .data.wifi	00000009 __c$20247
3ffc2582 l     O .data.wifi	0000000c __c$20249
3ffc2579 l     O .data.wifi	00000009 __c$20251
3ffc256f l     O .data.wifi	0000000a __c$20253
3ffc2564 l     O .data.wifi	0000000b __c$20255
3ffc2559 l     O .data.wifi	0000000b __c$20257
3ffc254e l     O .data.wifi	0000000b __c$20259
3ffc2544 l     O .data.wifi	0000000a __c$20261
3ffc252c l     O .data.wifi	00000018 __c$20263
3ffc2505 l     O .data.wifi	00000027 __c$20265
3ffc24e0 l     O .data.wifi	00000025 __c$20273
4010d090 l     F .text	000000a7 r_rw_pre_main
3ffd8fd4 l     O .bss	0000000c coex_ver
3ffd8fd1 l     O .bss	00000001 hardware_error_event_trigger
00000000 l    df *ABS*	00000000 coex_schm.c
40165ab4 l     F .text	0000007e coex_schm_calculate_afh_by_wifi_single_channel
00000000 l    df *ABS*	00000000 co_utils.c
00000000 l    df *ABS*	00000000 ea.c
00000000 l    df *ABS*	00000000 eif.c
00000000 l    df *ABS*	00000000 hci_tl.c
3ffd8ffc l     O .bss	00000001 hci_tl_acl_c2h_fc
4010f93c l     F .text	00000110 hci_tx_done
4010f328 l     F .text	000005a5 hci_tx_start
00000000 l    df *ABS*	00000000 huart.c
3ffd9000 l     O .bss	00000004 uart_env_p
4008a7bc l     F .rwtext.wifi	00000032 r_huart_in_isr
00000000 l    df *ABS*	00000000 ke_msg.c
00000000 l    df *ABS*	00000000 ke_task.c
4008ad50 l     F .rwtext.wifi	000002fe ke_task_schedule
3ffc26b8 l     O .data.wifi	0000001c __c$21391
00000000 l    df *ABS*	00000000 ke_timer.c
00000000 l    df *ABS*	00000000 ld_acl.c
00000000 l    df *ABS*	00000000 llc_hci.c
401102a8 l     F .text	0000007e hci_disconnect_cmd_handler
40110330 l     F .text	0000016a hci_le_ltk_req_neg_reply_cmd_handler
401104a4 l     F .text	0000023a hci_le_rem_con_param_req_reply_cmd_handler
401106e4 l     F .text	00000232 hci_le_con_update_cmd_handler
4011091c l     F .text	00000058 hci_le_rem_feats_read_preprocess
40110984 l     F .text	000000ca hci_rd_tx_pwr_lvl_cmd_handler
00000000 l    df *ABS*	00000000 llc_llcp.c
4008b308 l     F .rwtext.wifi	0000003a llcp_channel_map_req_pre_handler
4008b350 l     F .rwtext.wifi	00000082 llcp_con_up_req_pre_handler
40110dbc l     F .text	0000031c llc_llcp_reject_ind
401110d8 l     F .text	00000018 llcp_reject_ind_ext_handler
401110f0 l     F .text	00000018 llcp_reject_ind_handler
4008b3dc l     F .rwtext.wifi	0000003b llcp_length_req_pre_handler
4008b41c l     F .rwtext.wifi	0000004a llcp_unknown_rsp_pre_handler
00000000 l    df *ABS*	00000000 llc.c
3ffd902d l     O .bss	0000000a hci_pending_pkts
3ffd9040 l     O .bss	00000014 llc_queue_resent
3ffd9038 l     O .bss	00000006 cmd_status
3ffd902c l     O .bss	00000001 peer_not_support_conn_param_req
00000000 l    df *ABS*	00000000 lld_evt.c
3ffd90ac l     O .bss	00000004 lld_scan_evt_end_reason
4008b4dc l     F .rwtext.wifi	0000001b lld_evt_scan_elt_delete_reason_set
4008b504 l     F .rwtext.wifi	0000008a lld_evt_winsize_change
4008b590 l     F .rwtext.wifi	00000053 lld_evt_rxwin_compute
3ffc26f0 l     O .data.wifi	00000034 coex_ble_env
4008bdbc l     F .rwtext.wifi	00000078 should_request_high
3ffc26d4 l     O .data.wifi	0000001c __c$21516
3ffc12bc l     O .data	00000001 s_adv_delay_time
00000000 l    df *ABS*	00000000 lld.c
00000000 l    df *ABS*	00000000 lld_pdu.c
4008d100 l     F .rwtext.wifi	00000023 lld_evt_cnt_add
4008d124 l     F .rwtext.wifi	0000004d lld_pdu_tx_flush_acl_ready_without_em_buf
3f4121ab l     O .rodata	00000015 __func__$15877
3ffd90bb l     O .bss	00000001 is_retry
3ffd90ba l     O .bss	00000001 lld_evt_end_need_run_flag
3ffd90e8 l     O .bss	00000001 lld_pdu_record_en
3ffd90bc l     O .bss	0000002c lld_pdu_rx_env
3ffc273f l     O .data.wifi	00000024 __c$15801
3f4121c0 l     O .rodata	00000018 __func__$15734
3ffc2724 l     O .data.wifi	0000001b __c$15843
00000000 l    df *ABS*	00000000 rf_espressif.c
400927ac l     F .rwtext.wifi	00000007 rf_rw_rpl_reg_rd
400927b4 l     F .rwtext.wifi	00000005 rf_rw_rpl_reg_wr
400927bc l     F .rwtext.wifi	00000008 rf_rw_rssi_convert
40165bc8 l     F .text	00000005 rf_rw_reset
3ffc12c4 l     O .data	00000001 bredr_min_tx_pwr_id
40118d40 l     F .text	0000004e rf_rw_txpwr_dec
3ffc12c5 l     O .data	00000001 bredr_max_tx_pwr_id
40118d94 l     F .text	0000004e rf_rw_txpwr_inc
40118de4 l     F .text	00000034 rf_rw_txpwr_max_set
3f412244 l     O .rodata	0000000f RF_ESP_TX_PW_CONV_TBL
40118e1c l     F .text	00000033 rf_rw_txpwr_cs_get
4008de6c l     F .rwtext.wifi	00000021 rf_rw_force_agc_enable
4008de94 l     F .rwtext.wifi	00000010 rf_rw_txpwr_dbm_get
40118e50 l     F .text	00000017 rf_rw_sleep
3ffc12c3 l     O .data	00000001 ble_dfl_tx_pwr_id
3ffc12c2 l     O .data	00000001 ble_adv_tx_pwr_id
3ffc12c1 l     O .data	00000001 ble_scan_tx_pwr_id
00000000 l    df *ABS*	00000000 rwble.c
3ffd910c l     O .bss	00000054 ble_isr_err_counter
3ffc27bc l     O .data.wifi	00000009 __c$20556
3ffc27b2 l     O .data.wifi	0000000a __c$20558
3ffc27a8 l     O .data.wifi	0000000a __c$20560
3ffc279f l     O .data.wifi	00000009 __c$20562
3ffc2795 l     O .data.wifi	0000000a __c$20564
3ffc278e l     O .data.wifi	00000007 __c$20566
3ffc2786 l     O .data.wifi	00000008 __c$20568
3ffc277e l     O .data.wifi	00000008 __c$20570
3ffc2778 l     O .data.wifi	00000006 __c$20572
3ffc2771 l     O .data.wifi	00000007 __c$20574
3ffc276a l     O .data.wifi	00000007 __c$20576
3ffc2763 l     O .data.wifi	00000007 __c$20578
00000000 l    df *ABS*	00000000 rwbt.c
00000000 l    df *ABS*	00000000 rwip.c
3f412253 l     O .rodata	0000000c __func__$19484
00000000 l    df *ABS*	00000000 sdk_config.c
3ffd9168 l     O .bss	00000004 sdk_cfg_mask
3ffd916c l     O .bss	00000028 sdk_cfg_opts
3ffd9166 l     O .bss	00000001 rw_mode
3ffd9165 l     O .bss	00000001 rw_sleep_mode
3ffd9164 l     O .bss	00000001 rw_sleep_enable
3ffc12c7 l     O .data	00000001 rw_pll_track_en
3ffc12c6 l     O .data	00000001 rw_uart_flow_ctrl_en
00000000 l    df *ABS*	00000000 task.c
00000000 l    df *ABS*	00000000 vhci.c
4008ecac l     F .rwtext.wifi	0000001b vhci_set_interrupt
3ffd91b0 l     O .bss	00000004 vhci_env_p
4008ecd4 l     F .rwtext.wifi	0000006a vhci_recv_end
00000000 l    df *ABS*	00000000 intc.c
4008ef40 l     F .rwtext.wifi	00000018 r_eif_isr_wrapper
4008ef58 l     F .rwtext.wifi	00000026 r_rwbtdm_isr_wrapper
4008ef98 l     F .rwtext.wifi	0000021e btdm_bb_isr
00000000 l    df *ABS*	00000000 ll.c
00000000 l    df *ABS*	00000000 llm.c
40165b64 l     F .text	0000005a hash_function_blob
3ffd90ec l     O .bss	0000000c llm_le_adv_flow_env
00000000 l    df *ABS*	00000000 btdm_log.c
00000000 l    df *ABS*	00000000 lm.c
00000000 l    df *ABS*	00000000 esp_eap_client.c
3ffd9750 l     O .bss	00000004 s_wpa2_api_lock
4014c078 l     F .text	0000002a wpa2_api_lock
4014c0a4 l     F .text	00000017 wpa2_api_unlock
3ffd975c l     O .bss	00000004 gEapSm
4014c0bc l     F .text	0000001a wpa2_set_eap_state
4014c200 l     F .text	0000009d wpa2_ent_rx_eapol
4014c1ec l     F .text	00000011 wpa2_start_eapol
4014c360 l     F .text	000000e2 eap_peer_sm_init
4014c2a0 l     F .text	000000bd eap_peer_sm_deinit
4014c0d8 l     F .text	00000030 esp_client_enable_fn
3ffc24d8 l     O .data	00000004 s_wpa2_state
4014c444 l     F .text	00000022 eap_client_disable_fn
3ffd9760 l     O .bss	00000004 s_wpa2_data_lock
3ffd9754 l     O .bss	00000004 s_wpa2_queue
3ffd974c l     O .bss	00000004 s_wifi_wpa2_sync_sem
3ffd9744 l     O .bss	00000008 s_wpa2_rxq
3ffd9758 l     O .bss	00000004 s_wpa2_task_hdl
3ffc24d4 l     O .data	00000001 s_disable_time_check
00000000 l    df *ABS*	00000000 dbg.c
3f411fb8 l     O .rodata	00000010 TASK_DESC_DBG_2
00000000 l    df *ABS*	00000000 dbg_task.c
4010df9c l     F .text	0000004a hci_vendor_common_echo_cmd_handler
4010dfec l     F .text	000000bb hci_vendor_common_coex_status_cmd_handler
4010e0ac l     F .text	00000056 hci_vs_ble_qa_get_txpwr_lvl_enhanced_cmd_handler
4010e104 l     F .text	00000056 hci_vs_ble_qa_get_adv_rxed_rssi_cmd_handler
4010e15c l     F .text	0000004f hci_vs_ble_qa_read_cca_data_cmd_handler
4010e1ac l     F .text	0000004c hci_vs_ble_qa_skip_light_sleep_check_cmd_handler
4010e1f8 l     F .text	00000056 hci_vs_ble_qa_get_min_itvl_for_adv_cmd_handler
4010e250 l     F .text	00000047 hci_vs_ble_qa_set_conn_phy_txpwr_cmd_handler
4010e298 l     F .text	00000018 hci_vs_ble_qa_set_wakeup_overhead_cmd_handler
4010e2b0 l     F .text	00000018 hci_vs_ble_qa_set_cca_win_cmd_handler
4010e2c8 l     F .text	00000018 hci_vs_ble_qa_enable_cca_cmd_handler
4010e2e0 l     F .text	00000018 hci_vs_ble_qa_ignore_wl_for_dir_adv_cmd_handler
4010e2f8 l     F .text	00000018 hci_vs_ble_qa_set_txpwr_lvl_enhanced_cmd_handler
4010e310 l     F .text	00000018 hci_vs_ble_qa_set_dflt_priv_mode_cmd_handler
4010e328 l     F .text	00000018 hci_vs_ble_qa_switch_coded_phy_cmd_handler
4010e340 l     F .text	00000056 hci_vs_ble_qa_get_conn_phy_txpwr_cmd_handler
3f412028 l     O .rodata	000000e8 hci_vs_ble_qa_cmd_handler_tab
4010e39c l     F .text	0000003e hci_vendor_ble_qa_test_cmd_handler
4010e3e4 l     F .text	00000059 hci_vendor_bt_set_min_enc_key_size_cmd_handler
4010e444 l     F .text	0000004f hci_vendor_bt_write_dm1_enable_cmd_handler
4010e494 l     F .text	0000005c hci_vs_ble_qa_get_ctrl_status_cmd_handler
4010e4f0 l     F .text	00000063 hci_vs_ble_qa_set_scan_chan_cmd_handler
4010e554 l     F .text	0000007a hci_vs_ble_qa_set_adv_aa_cmd_handler
4010e5d0 l     F .text	0000007a hci_vs_ble_qa_set_scan_aa_cmd_handler
4010e64c l     F .text	00000042 hci_vs_ble_qa_get_txpwr_lvl_range_cmd_handler
4010e690 l     F .text	00000042 hci_vs_ble_qa_get_max_txpwr_cmd_handler
4010e6d4 l     F .text	00000044 hci_vs_ble_qa_clear_rand_addr_cmd_handler
4010e718 l     F .text	00000066 hci_vs_ble_qa_get_txpwr_lvl_cmd_handler
4010e780 l     F .text	00000078 hci_vs_ble_qa_set_txpwr_lvl_cmd_handler
4010e7f8 l     F .text	0000005c hci_vs_ble_qa_get_scan_rxed_cnt_cmd_handler
4010e854 l     F .text	0000005c hci_vs_ble_qa_get_adv_txed_cnt_cmd_handler
4010e8b0 l     F .text	0000004e hci_vs_ble_qa_set_scan_prefer_addr_cmd_handler
4010e900 l     F .text	0000004e hci_vs_ble_qa_scan_forever_cmd_handler
4010e950 l     F .text	0000004e hci_vs_ble_qa_dis_adv_delay_cmd_handler
4010e9a0 l     F .text	00000052 hci_vs_ble_qa_test_en_cmd_handler
4010e9f8 l     F .text	0000003b hci_vendor_ble_clear_adv_cmd_handler
4010ea3c l     F .text	00000050 hci_vendor_ble_update_adv_report_flow_control_cmd_handler
4010ea90 l     F .text	0000004d hci_vendor_ble_init_adv_flow_control_cmd_handler
4010eae4 l     F .text	000000ab hci_vendor_ble_update_duplicate_exceptional_list_cmd_handler
4010eb94 l     F .text	0000004a hci_vendor_ble_long_adv_cmd_handler
3f411fd8 l     O .rodata	00000050 vendor_hci_command_handler_tab_esp
4010ebe8 l     F .text	0000005c hci_command_handler_2
3f411fd0 l     O .rodata	00000008 dbg_default_state_2
00000000 l    df *ABS*	00000000 hci_msg.c
40165b34 l     F .text	00000007 hci_vendor_ble_qa_test_cmd_cmp_evt_pk
4010eeac l     F .text	0000004e hci_vendor_ble_qa_test_cmd_upk
00000000 l    df *ABS*	00000000 plf_funcs.c
00000000 l    df *ABS*	00000000 ecc_p256.c
00000000 l    df *ABS*	00000000 crypto_ops.c
4014bafc l     F .text	00000014 esp_supp_crc32
4014bb10 l     F .text	0000001d esp_aes_gmac
4014bb30 l     F .text	0000000e esp_aes_decrypt
4014bb40 l     F .text	0000000e esp_aes_encrypt
4014bb50 l     F .text	00000014 esp_aes_unwrap
4014bb64 l     F .text	00000014 esp_aes_wrap
00000000 l    df *ABS*	00000000 sha256-prf.c
3f413850 l     O .rodata	00000004 memset_func
00000000 l    df *ABS*	00000000 sha1-prf.c
3f413854 l     O .rodata	00000004 memset_func
00000000 l    df *ABS*	00000000 common.c
3f413858 l     O .rodata	00000004 memset_func
4014bd0c l     F .text	00000016 forced_memzero
401664b8 l     F .text	0000002c hex2num
00000000 l    df *ABS*	00000000 esp_hostap.c
3f41385c l     O .rodata	00000004 memset_func
00000000 l    df *ABS*	00000000 tlsv1_client_write.c
4014ed20 l     F .text	0000004c tls_write_client_change_cipher_spec
4014ed6c l     F .text	0000011b tls_write_client_finished
00000000 l    df *ABS*	00000000 tlsv1_common.c
3f4139a0 l     O .rodata	00000160 tls_cipher_suites
3f4138b0 l     O .rodata	000000f0 tls_ciphers
00000000 l    df *ABS*	00000000 aes-internal.c
00000000 l    df *ABS*	00000000 des-internal.c
40153a84 l     F .text	0000002b WPA_GET_BE32
40166908 l     F .text	0000001a WPA_PUT_BE32
3f41450c l     O .rodata	00000100 SP7
3f41440c l     O .rodata	00000100 SP8
3f41470c l     O .rodata	00000100 SP5
3f41490c l     O .rodata	00000100 SP3
3f414b0c l     O .rodata	00000100 SP1
3f41460c l     O .rodata	00000100 SP6
3f41480c l     O .rodata	00000100 SP4
3f414a0c l     O .rodata	00000100 SP2
40153ab0 l     F .text	000001de desfunc
3f414c4c l     O .rodata	00000038 pc1
3f414ce4 l     O .rodata	00000020 bytebit
3f414c3c l     O .rodata	00000010 totrot
3f414c0c l     O .rodata	00000030 pc2
3f414c84 l     O .rodata	00000060 bigbyte
40153c90 l     F .text	00000193 deskey
3f414d04 l     O .rodata	00000004 memset_func
00000000 l    df *ABS*	00000000 sha1-internal.c
3f414d0c l     O .rodata	00000004 memset_func
00000000 l    df *ABS*	00000000 sha1.c
3f414d10 l     O .rodata	00000004 memset_func
00000000 l    df *ABS*	00000000 sha256-internal.c
3f414d14 l     O .rodata	00000100 K
40155dd8 l     F .text	0000014f sha256_compress
00000000 l    df *ABS*	00000000 sha512-internal.c
3f414e18 l     O .rodata	00000280 K
401562f4 l     F .text	0000033c sha512_compress
00000000 l    df *ABS*	00000000 wpa_common.c
40158d40 l     F .text	0000002b WPA_GET_BE32
40158d6c l     F .text	0000006d rsn_selector_to_bitfield
40158ddc l     F .text	00000044 wpa_selector_to_bitfield
00000000 l    df *ABS*	00000000 sha1-tlsprf.c
3f4150a4 l     O .rodata	00000004 memset_func
40159a8c l     F .text	00000016 forced_memzero
00000000 l    df *ABS*	00000000 eap_peap.c
40166d28 l     F .text	00000014 eap_peap_isKeyAvailable
4015ac6c l     F .text	00000035 eap_peap_get_session_id
4015aca4 l     F .text	00000018 eap_peap_free_key
4015acbc l     F .text	0000005c eap_peap_init_for_reauth
4015ad18 l     F .text	0000001e eap_peap_deinit_for_reauth
4015ad38 l     F .text	00000026 eap_peap_has_reauth_data
4015ad60 l     F .text	00000032 eap_peap_get_status
4015ad94 l     F .text	0000002c eap_peap_get_emsk
4015adc0 l     F .text	0000005f eap_peap_getKey
4015ae20 l     F .text	00000012 wpabuf_put_u8
4015ae34 l     F .text	00000018 wpabuf_put_be16
4015ae4c l     F .text	0000003d peap_phase2_sufficient
4015ae8c l     F .text	00000048 eap_peap_deinit
4015aed4 l     F .text	0000001c wpabuf_put_data
4015aef0 l     F .text	00000145 eap_peap_init
4015b038 l     F .text	0000086a eap_peap_decrypt$constprop$0
4015b8a4 l     F .text	000001ca eap_peap_process
00000000 l    df *ABS*	00000000 base64.c
4016159c l     F .text	000000eb base64_gen_decode
3f4150aa l     O .rodata	00000041 base64_table
00000000 l    df *ABS*	00000000 ms_funcs.c
401670d4 l     F .text	0000009d utf8_to_ucs2$constprop$0
3f41525c l     O .rodata	00000027 magic1$6
3f415233 l     O .rodata	00000029 magic2$5
3f415218 l     O .rodata	0000001b magic1$4
3f41519c l     O .rodata	00000054 magic3$2
3f415148 l     O .rodata	00000054 magic2$1
3f4151f0 l     O .rodata	00000028 shs_pad1$3
3f415120 l     O .rodata	00000028 shs_pad2$0
00000000 l    df *ABS*	00000000 md4-internal.c
40163b50 l     F .text	00000456 MD4Transform
40163fa8 l     F .text	0000007f MD4Update
3f415283 l     O .rodata	00000040 PADDING
00000000 l    df *ABS*	00000000 sha1-tprf.c
3f4152c4 l     O .rodata	00000004 memset_func
00000000 l    df *ABS*	00000000 printf.c
4016718c l     F .text	00000010 _out_buffer
4016719c l     F .text	00000005 _out_null
401671a4 l     F .text	00000081 _out_rev
4016497c l     F .text	000000fa _ntoa_format
40164a78 l     F .text	0000008d _ntoa_long
40164b08 l     F .text	000000d0 _ntoa_long_long
40164bd8 l     F .text	000003b5 _etoa
40164f90 l     F .text	0000032b _ftoa
3f4152c8 l     O .rodata	00000050 pow10$0
401652bc l     F .text	00000010 _out_char
401652cc l     F .text	0000073b _vsnprintf
00000000 l    df *ABS*	00000000 compiler_builtins.9934aacee1796de6-cgu.0
00000000 l    df *ABS*	00000000 config_funcs.c
00000000 l    df *ABS*	00000000 hci.c
4010f234 l     F .text	0000003a ram_hci_fc_sync_buf_size_set
4010f270 l     F .text	00000038 ram_hci_fc_acl_buf_size_set
00000000 l    df *ABS*	00000000 lc_sco.c
00000000 l    df *ABS*	00000000 llc_task.c
401116f8 l     F .text	0000009d llc_auth_payl_real_to_ind_handler
40111798 l     F .text	00000054 llc_link_sup_to_ind_handler
00000000 l    df *ABS*	00000000 llc_util.c
401118fc l     F .text	00000042 llc_lsto_timer_restart
00000000 l    df *ABS*	00000000 lld_util.c
00000000 l    df *ABS*	00000000 llm_hci.c
4011592c l     F .text	000000c5 hci_le_wl_mngt_cmd_handler
401159f4 l     F .text	00000050 hci_le_create_con_cmd_handler
40115a44 l     F .text	00000079 hci_le_create_con_cancel_cmd_handler
40115ad8 l     F .text	0000017e hci_le_enh_privacy_mgmt_cmd_handler
40115c58 l     F .text	00000040 hci_le_set_adv_param_cmd_handler
40115c9c l     F .text	000000b6 hci_le_set_adv_data_cmd_handler
40115d54 l     F .text	00000086 hci_le_set_adv_en_cmd_handler
40115ddc l     F .text	00000038 hci_le_set_scan_rsp_data_cmd_handler
40115e14 l     F .text	00000040 hci_le_set_scan_param_cmd_handler
40115e54 l     F .text	0000005d hci_le_set_scan_en_cmd_handler
40115eb4 l     F .text	0000007c hci_le_set_host_ch_class_cmd_handler
40115f34 l     F .text	0000004e hci_le_wr_suggted_dft_data_len_cmd_handler
40115f8c l     F .text	00000064 hci_le_set_rand_add_cmd_handler
40115ff0 l     F .text	00000045 hci_le_generate_dhkey_cmd_handler
40116038 l     F .text	00000040 hci_le_tx_test_cmd_handler$part$1
40116038 l     F .text	00000040 hci_le_rx_test_cmd_handler$part$0
40116078 l     F .text	0000005a hci_le_rx_test_cmd_handler
401160d4 l     F .text	0000005a hci_le_tx_test_cmd_handler
40116134 l     F .text	00000098 hci_le_test_end_cmd_handler
00000000 l    df *ABS*	00000000 llm_task.c
4011861c l     F .text	00000091 llm_le_enh_priv_addr_renew_timer_handler
401186b0 l     F .text	0000008c lld_stop_ind_handler
00000000 l    df *ABS*	00000000 llm_util.c
00000000 l    df *ABS*	00000000 lm_task.c
00000000 l    df *ABS*	00000000 nvds.c
00000000 l    df *ABS*	00000000 osi.c
00000000 l    df *ABS*	00000000 vflash.c
3ffd91a4 l     O .bss	0000000c flash_env
00000000 l    df *ABS*	00000000 phy.c
00000000 l    df *ABS*	00000000 bt_bb.c
00000000 l    df *ABS*	00000000 rtc_analog.c
00000000 l    df *ABS*	00000000 esp_wpa_main.c
4014cc9c l     F .text	00000081 hostap_sta_join
4014cd20 l     F .text	00000053 wpa_sta_disconnected_cb
4014cd74 l     F .text	0000000a wpa_sta_connected_cb
00000000 l    df *ABS*	00000000 esp_wpas_glue.c
00000000 l    df *ABS*	00000000 esp_common.c
4014d134 l     F .text	0000001f ieee80211_handle_rx_frm
00000000 l    df *ABS*	00000000 esp_wps.c
3ffd9800 l     O .bss	00000004 s_wps_sm_cb
00000000 l    df *ABS*	00000000 tls_internal.c
3ffd9808 l     O .bss	00000004 tls_ref_count
00000000 l    df *ABS*	00000000 tlsv1_client.c
00000000 l    df *ABS*	00000000 tlsv1_client_read.c
40166668 l     F .text	0000001a WPA_GET_BE24
4014e07c l     F .text	00000057 tls_process_server_hello_done
4014e0d4 l     F .text	00000067 tls_process_certificate_request
4014e13c l     F .text	00000031 tls_process_certificate_status_ocsp_response
4014e170 l     F .text	00000361 tls_process_server_key_exchange
4014e4d4 l     F .text	00000344 tls_process_certificate
00000000 l    df *ABS*	00000000 tlsv1_cred.c
4014fad4 l     F .text	0000004b tlsv1_add_cert_der
4014fb20 l     F .text	00000034 search_tag
4014fb54 l     F .text	00000074 tlsv1_add_cert
00000000 l    df *ABS*	00000000 tlsv1_record.c
00000000 l    df *ABS*	00000000 tlsv1_client_ocsp.c
40166698 l     F .text	00000018 asn1_is_sequence
401501b0 l     F .text	00000049 ocsp_responder_id_match
401501fc l     F .text	0000009d ocsp_hash_data
00000000 l    df *ABS*	00000000 x509v3.c
401666b0 l     F .text	00000018 asn1_is_sequence
401666c8 l     F .text	0000005e x509_str_strip_whitespace
40150b9c l     F .text	00000044 x509_id_wfa_tod_oid
40166728 l     F .text	0000003a x509_id_kp_oid
40150be0 l     F .text	0000002b x509_rsadsi_oid
40166764 l     F .text	00000042 x509_sha2_oid
40150c0c l     F .text	00000030 parse_uint2
40150c3c l     F .text	00000140 x509_parse_ext_alt_name
40150d7c l     F .text	00000065 x509_str_compare
40150de4 l     F .text	000000c0 x509_name_string$part$0
401667a8 l     F .text	0000002c x509_valid_issuer
00000000 l    df *ABS*	00000000 aes-cbc.c
00000000 l    df *ABS*	00000000 aes-internal-dec.c
00000000 l    df *ABS*	00000000 aes-internal-enc.c
00000000 l    df *ABS*	00000000 aes-omac1.c
401668b4 l     F .text	00000039 gf_mulx
00000000 l    df *ABS*	00000000 aes-unwrap.c
00000000 l    df *ABS*	00000000 aes-wrap.c
00000000 l    df *ABS*	00000000 crypto_internal-cipher.c
00000000 l    df *ABS*	00000000 crypto_internal-modexp.c
00000000 l    df *ABS*	00000000 crypto_internal-rsa.c
00000000 l    df *ABS*	00000000 crypto_internal.c
00000000 l    df *ABS*	00000000 md5-internal.c
40153fe0 l     F .text	00000702 MD5Transform
00000000 l    df *ABS*	00000000 md5.c
00000000 l    df *ABS*	00000000 sha1-pbkdf2.c
00000000 l    df *ABS*	00000000 sha256.c
00000000 l    df *ABS*	00000000 sha384-internal.c
00000000 l    df *ABS*	00000000 os_xtensa.c
00000000 l    df *ABS*	00000000 eloop.c
40156bc8 l     F .text	0000000a eloop_run_wrapper
401568c8 l     F .text	0000001a eloop_run_timer
3ffd982c l     O .bss	00000004 eloop_data_lock
3ffd980c l     O .bss	00000020 eloop
401568e4 l     F .text	00000051 eloop_remove_timeout
40156938 l     F .text	00000013 os_timer_disarm$constprop$0
00000000 l    df *ABS*	00000000 ap_config.c
00000000 l    df *ABS*	00000000 wpa_auth.c
40166924 l     F .text	00000005 wpa_auth_pmksa_free_cb
3ffd9834 l     O .bss	00000040 s_sm_table
3ffd9830 l     O .bss	00000004 s_sm_valid_bitmap
40156cd8 l     F .text	00000052 wpa_free_sta_sm
40156d2c l     F .text	00000066 wpa_group_init_gmk_and_counter
40156d94 l     F .text	00000045 wpa_gmk_to_gtk
40156ddc l     F .text	00000026 wpa_replay_counter_valid
40156e04 l     F .text	00000025 wpa_replay_counter_mark_invalid
40156e2c l     F .text	00000080 wpa_verify_key_mic
40156eac l     F .text	0000006f ieee80211w_kde_add
40156f38 l     F .text	00000042 wpa_auth_set_key$part$0
40156f7c l     F .text	0000002b sm_WPA_PTK_DISCONNECT_Enter$constprop$0
40156fa8 l     F .text	00000077 wpa_gtk_update$isra$0
40157020 l     F .text	00000036 wpa_group_gtk_init
40157058 l     F .text	0000001c wpa_auth_get_psk$isra$0
40157074 l     F .text	00000142 sm_WPA_PTK_PTKCALCNEGOTIATING_Enter$constprop$0
401571b8 l     F .text	0000004e wpa_group_config_group_keys
40157208 l     F .text	00000050 sm_WPA_PTK_AUTHENTICATION2_Enter$constprop$0
40157258 l     F .text	00000073 wpa_group_sm_step$part$0
401572cc l     F .text	00000046 wpa_rekey_gtk
40157754 l     F .text	00000053 wpa_send_eapol
401577a8 l     F .text	000000a3 sm_WPA_PTK_PTKSTART_Enter$constprop$0
4015784c l     F .text	00000142 sm_WPA_PTK_PTKINITNEGOTIATING_Enter$constprop$0
40157990 l     F .text	000000e7 sm_WPA_PTK_GROUP_REKEYNEGOTIATING_Enter$constprop$0
40157ecc l     F .text	00000019 wpa_rekey_ptk
40157ab0 l     F .text	0000004a sm_WPA_PTK_INITIALIZE_Enter$constprop$0
40157afc l     F .text	000003ce wpa_sm_step
00000000 l    df *ABS*	00000000 wpa_auth_ie.c
4015844c l     F .text	0000002b WPA_GET_BE32
00000000 l    df *ABS*	00000000 pmksa_cache_auth.c
40158ac8 l     F .text	0000001f _pmksa_cache_free_entry
40158b88 l     F .text	00000030 pmksa_cache_expire
40158ae8 l     F .text	00000038 pmksa_cache_set_expiration
00000000 l    df *ABS*	00000000 sta_info.c
00000000 l    df *ABS*	00000000 ccmp.c
40159468 l     F .text	0000011f ccmp_aad_nonce
00000000 l    df *ABS*	00000000 aes-gcm.c
401596f0 l     F .text	0000002b WPA_GET_BE32
40166b50 l     F .text	00000031 WPA_PUT_BE64
4015971c l     F .text	00000021 inc32
40166b84 l     F .text	00000029 xor_block
40159740 l     F .text	00000027 aes_gcm_init_hash_subkey
40159768 l     F .text	0000006e aes_gctr$part$0
401597d8 l     F .text	0000008c shift_right_block
40159864 l     F .text	0000005a gf_mult
401598c0 l     F .text	0000007c ghash
4015993c l     F .text	00000046 aes_gcm_ghash
40159984 l     F .text	0000006f aes_gcm_prepare_j0
00000000 l    df *ABS*	00000000 sha256-tlsprf.c
00000000 l    df *ABS*	00000000 eap.c
3ffd9878 l     O .bss	00000004 eap_methods
3ffd9874 l     O .bss	00000004 config_methods
00000000 l    df *ABS*	00000000 eap_common.c
00000000 l    df *ABS*	00000000 eap_mschapv2.c
40166d0c l     F .text	00000019 eap_mschapv2_isKeyAvailable
4015a54c l     F .text	0000003f eap_mschapv2_getKey
4015a58c l     F .text	0000001e eap_mschapv2_deinit
4015a5ac l     F .text	00000051 eap_mschapv2_init
4015a600 l     F .text	0000062f eap_mschapv2_process
00000000 l    df *ABS*	00000000 eap_peap_common.c
00000000 l    df *ABS*	00000000 eap_tls.c
40166d3c l     F .text	0000000e eap_tls_isKeyAvailable
4015bb78 l     F .text	0000002b eap_tls_getKey
4015bba4 l     F .text	0000019f eap_tls_process
4015bd44 l     F .text	0000002c eap_tls_deinit
4015bd70 l     F .text	00000048 eap_tls_init
00000000 l    df *ABS*	00000000 eap_tls_common.c
4015bdf4 l     F .text	00000020 eap_tls_check_blob
4015be14 l     F .text	00000022 eap_tls_msg_alloc$constprop$0
4015c218 l     F .text	0000007c eap_peer_tls_data_reassemble
4015c2bc l     F .text	000000e5 eap_tls_process_output
00000000 l    df *ABS*	00000000 eap_ttls.c
40166d4c l     F .text	00000014 eap_ttls_isKeyAvailable
4015c660 l     F .text	0000002b eap_ttls_get_emsk
4015c68c l     F .text	00000035 eap_ttls_get_session_id
4015c6c4 l     F .text	00000031 eap_ttls_getKey
4015c6f8 l     F .text	00000017 eap_ttls_free_key
4015c710 l     F .text	00000050 eap_ttls_init_for_reauth
4015c760 l     F .text	0000001b eap_ttls_deinit_for_reauth
4015c77c l     F .text	0000001e eap_ttls_has_reauth_data
4015c79c l     F .text	00000086 eap_ttls_get_status
4015c824 l     F .text	0000002e eap_ttls_encrypt_response
4015c854 l     F .text	000000db eap_ttls_phase2_request_eap_method
4015c930 l     F .text	00000046 eap_ttls_deinit
4015c978 l     F .text	000000b5 eap_ttls_init
4015ca30 l     F .text	0000005c eap_ttls_avp_add$constprop$0
4015ca8c l     F .text	0000056b eap_ttls_phase2_request
4015cff8 l     F .text	0000008c eap_ttls_implicit_identity_request
4015d084 l     F .text	0000036d eap_ttls_decrypt
4015d3f4 l     F .text	000001f1 eap_ttls_process
00000000 l    df *ABS*	00000000 mschapv2.c
00000000 l    df *ABS*	00000000 eap_fast.c
40166d88 l     F .text	0000000f eap_fast_isKeyAvailable
4015d748 l     F .text	00000020 eap_fast_copy_buf
4015d768 l     F .text	0000001e eap_fast_get_emsk
4015d788 l     F .text	00000024 eap_fast_get_session_id
4015d7ac l     F .text	0000001f eap_fast_getKey
4015d7cc l     F .text	00000034 eap_fast_parse_hex
4015d800 l     F .text	000000a5 eap_fast_read_line
4015d8a8 l     F .text	00000129 eap_fast_write
4015d9d4 l     F .text	0000007f eap_fast_write_pac
4015da54 l     F .text	00000032 eap_fast_get_status
4015da88 l     F .text	00000053 eap_fast_tlv_result
4015dadc l     F .text	00000051 eap_fast_session_ticket_cb
4015db30 l     F .text	00000021 eap_fast_encrypt_response
4015db7c l     F .text	00000070 eap_fast_deinit
4015e298 l     F .text	0000010a eap_fast_init
4015e458 l     F .text	00000933 eap_fast_decrypt
4015ed8c l     F .text	00000388 eap_fast_process
00000000 l    df *ABS*	00000000 eap_fast_common.c
4015f158 l     F .text	00000016 wpabuf_put_data$part$0
00000000 l    df *ABS*	00000000 pmksa_cache.c
4015f288 l     F .text	0000001e pmksa_cache_free_entry
4015f2e0 l     F .text	00000037 pmksa_cache_expire
4015f2a8 l     F .text	00000036 pmksa_cache_set_expiration
00000000 l    df *ABS*	00000000 wpa.c
4015f6a8 l     F .text	00000027 is_wpa2_enterprise_connection
4015f6d0 l     F .text	00000060 wpa_sm_pmksa_free_cb
4015f730 l     F .text	0000003a wpa_sm_set_seq$constprop$0
4015f76c l     F .text	0000006a ieee80211w_set_keys$constprop$0
4015f87c l     F .text	00000115 wpa_sm_key_request
4015f994 l     F .text	0000000e wpa_sm_rekey_ptk
401600dc l     F .text	00000148 wpa_supplicant_install_gtk$constprop$0
40160224 l     F .text	00000082 wpa_supplicant_install_ptk$constprop$0
00000000 l    df *ABS*	00000000 wpa_ie.c
40161148 l     F .text	0000002b WPA_GET_BE32
00000000 l    df *ABS*	00000000 wpabuf.c
401616a0 l     F .text	0000001b wpabuf_put_data
00000000 l    df *ABS*	00000000 wpa_debug.c
40161828 l     F .text	00000049 _wpa_snprintf_hex$constprop$0
00000000 l    df *ABS*	00000000 asn1.c
40166f90 l     F .text	0000001c rotate_bits
00000000 l    df *ABS*	00000000 bignum.c
40166fb4 l     F .text	0000004a mp_cmp_mag
40161b38 l     F .text	00000029 mp_cmp
40161b64 l     F .text	0000001e mp_zero
40161b84 l     F .text	00000049 mp_rshd
40167000 l     F .text	00000025 mp_exch
40167028 l     F .text	0000002a mp_clamp
40167054 l     F .text	0000002a mp_count_bits
40161bd0 l     F .text	0000001a mp_clear
40161bec l     F .text	0000002a mp_init
40161c18 l     F .text	00000048 mp_init_size
40161c60 l     F .text	000000ef mp_sqr
40161d50 l     F .text	00000053 mp_grow
40161da4 l     F .text	00000068 mp_copy
40161e0c l     F .text	0000009a mp_mod_2d
40161ea8 l     F .text	000000da mp_div_2d
40161f84 l     F .text	00000059 mp_lshd
40161fe0 l     F .text	000000c5 mp_mul_2d
401620a8 l     F .text	000000cb s_mp_add
40162174 l     F .text	000000b1 s_mp_sub
40162228 l     F .text	00000041 mp_add
4016226c l     F .text	00000048 mp_sub
401622b4 l     F .text	00000137 fast_s_mp_mul_digs
401623ec l     F .text	000000ce s_mp_mul_digs
401624bc l     F .text	0000002d mp_mul
401624ec l     F .text	00000094 mp_init_multi
40162580 l     F .text	0000004c mp_clear_multi
401625cc l     F .text	00000145 mp_div
40162714 l     F .text	00000048 mp_mod
4016275c l     F .text	00000341 s_mp_exptmod$constprop$0
40162aa0 l     F .text	00000181 mp_reduce
00000000 l    df *ABS*	00000000 pkcs1.c
00000000 l    df *ABS*	00000000 pkcs8.c
00000000 l    df *ABS*	00000000 rsa.c
40163160 l     F .text	00000040 crypto_rsa_parse_integer
00000000 l    df *ABS*	00000000 aes-ccm.c
401670a8 l     F .text	00000029 xor_aes_block
401634ac l     F .text	00000053 aes_ccm_auth
40163500 l     F .text	00000079 aes_ccm_encr$constprop$0
4016357c l     F .text	0000009f aes_ccm_auth_start$constprop$0
00000000 l    df *ABS*	00000000 chap.c
00000000 l    df *ABS*	00000000 pkcs5.c
40167174 l     F .text	00000018 asn1_is_sequence
401641d8 l     F .text	0000002b oid_is_rsadsi
40164204 l     F .text	0000002f pkcs5_is_oid
40164234 l     F .text	00000182 pkcs12_key_gen
00000000 l    df *ABS*	00000000 ke.c
00000000 l    df *ABS*	00000000 syscntl.c
00000000 l    df *ABS*	00000000 emi.c
00000000 l    df *ABS*	00000000 led.c
00000000 l    df *ABS*	00000000 rc4.c
00000000 l    df *ABS*	00000000 ieee802_11.c
4011763c g     F .text	000002a8 r_llm_test_mode_start_tx
40145ee0 g     F .text	0000000f pp_register_michael_mic_failure_cb
3ff80000 g       *ABS*	00000000 _rtc_fast_persistent_start
401184f8 g     F .text	0000001b llm_ble_update_adv_flow_control
3ffd9430 g     O .bss	00000002 phy_freq_offset
40025b74 g       *ABS*	00000000 lmp_detach_handler
40033bb0 g       *ABS*	00000000 ld_acl_rsw_frm_cbk
4008faf4 g     F .rwtext.wifi	00000022 coex_timer_ts_start_disalarm
400ef7f4 g     F .text	00000024 main
3ffc1428  w    O .data	0000000a coex_schm_ble_mesh_traffic_wifi_conn
401183a0 g     F .text	00000036 llm_reset_scan_procedure
4015029c g     F .text	000008fd tls_process_ocsp_response
40162c44 g     F .text	00000013 bignum_deinit
40128c7c g     F .text	0000002f nan_parse_ndp_terminate
40143450 g     F .text	0000000a ic_get_G6M_sched
3ffc1c77 g     O .data	00000001 chan14_mic_most_power
40153f64 g     F .text	0000003a des3_encrypt
4013680c g     F .text	00000034 ieee80211w_get_igtk_from_keyidx
4008fd44 g     F .rwtext.wifi	0000002b coex_arbit_first
40084a64 g     F .rwtext.wifi	000000b9 rcGetSched
4013b450 g     F .text	00000065 wep_encap
40139214 g     F .text	00000071 cnx_rc_update_rssi
4010d808 g     F .text	0000000c r_rw_main
3ffc28b0 g     O .data.wifi	00000020 coex_env
40090e88 g     F .rwtext.wifi	00000024 bb_wdt_rst_enable
4014d724 g     F .text	0000001e tls_connection_decrypt2
401617ec g     F .text	0000003a wpabuf_concat
401278ac g     F .text	000000df nan_sched_construct_availability
4013f2e8 g     F .text	00000265 phy_get_romfunc_addr
3f4122b8 g     O .rodata	00000006 ieee80211_ethbroadcast
40166954 g     F .text	0000005a wpa_res_to_status_code
40081f38 g     F .rwtext	00000088 phy_exit_critical
4012c1c8 g     F .text	00000040 wifi_set_default_ssid
3ff80000 g       *ABS*	00000000 _rtc_fast_data_start
40127a30 g     F .text	0000002f nan_dp_send_terminated_event
401494cc g     F .text	00000038 mac_tx_set_duration
40147c74 g     F .text	00000046 rcAttach
40166484 g     F .text	00000005 wDev_SetAuthed
00000007 g     O .espressif.metadata	00000005 build_info.CHIP_NAME
40010218 g       *ABS*	00000000 r_bt_util_buf_acl_rx_alloc
4014976c g     F .text	0000002b hal_enable_mac
4000ca84 g     F *ABS*	00000037 .hidden __divdi3
4011c824 g     F .text	00000037 ieee80211_user_ie_init
401664e4 g     F .text	0000001a inc_byte_array
40150f5c g     F .text	00000064 x509_name_compare
40144cdc g     F .text	00000045 pm_is_in_wifi_slice_threshold
4000c988 g     F *ABS*	0000005a .hidden __floatdidf
3ffc141e  w    O .data	0000000a coex_schm_ble_mesh_standby_wifi_conn
40027574 g       *ABS*	00000000 lmp_pkt_type_tbl_req_handler
4011c9e4 g     F .text	00000057 wifi_destroy_nan
4000c260 g     F *ABS*	00000044 .hidden memcmp
4009079c g     F .rwtext.wifi	0000005d ram_pbus_force_test
40044778 g       *ABS*	00000000 r_llc_init
3ffdb57c g     O .bss	00000008 s_tx_cacheq
40127ec0 g     F .text	000000ef nan_dp_post_tx
40135d74 g     F .text	0000000e esp_wifi_sta_get_group_cipher_internal
40166bb0 g     F .text	00000026 eap_allowed_method
40122054 g     F .text	00000034 ieee80211_add_ie_vendor_esp_head
3ffd9c34 g     O .bss	00000054 le_scan_duplicate_option
40153294 g     F .text	0000013b crypto_cipher_encrypt
3ffc2a0c g     O .data.wifi	00000004 g_mesh_init_ps_type
40092014 g     F .rwtext.wifi	0000007f ram_set_txcap_reg
40091bdc g     F .rwtext.wifi	00000313 tx_pwctrl_cal
4014ddcc g     F .text	00000142 tlsv1_client_get_cipher
4012f0f0 g     F .text	000000e8 ieee80211_send_proberesp
4015d704 g     F .text	00000044 mschapv2_verify_auth_response
401602a8 g     F .text	00000939 wpa_sm_rx_eapol
4014a718 g     F .text	0000001b hal_enable_nan_tsf
4013ab20 g     F .text	0000006f ieee80211_recv_action_register
400466b4 g       *ABS*	00000000 lld_evt_deferred_elt_push
4014d0f4 g     F .text	00000018 wpa_sm_alloc_eapol
40119450 g     F .text	0000001a btdm_rf_bb_init_phase2
3ffdcd00 g     O .bss	0000000c s_fix_rate
400fa060 g     F .text	00000000 level6_interrupt
401254f8 g     F .text	000000b6 wifi_lmac_init
3ffc1360  w    O .data	0000000e coex_schm_ble_mesh_standby_bt_a2dp_paused_wifi_conn
4005427c g       *ABS*	00000000 btdm_r_modules_func_p_get
40156630 g     F .text	00000060 sha512_init
4009009c g     F .rwtext.wifi	00000043 phy_en_hw_set_freq
40125f44 g     F .text	00000017 wifi_register_mgmt_frame
4012fcfc g     F .text	00000046 ieee80211_pwrsave_txcb
4008e010 g     F .rwtext.wifi	00000036 btdm_rf_bb_init_phase1
40156838 g     F .text	00000040 sha512_vector
40147f04 g     F .text	00000028 trc_deinit
400928b4 g     F .rwtext.wifi	00000071 ieee80211_post_hmac_tx
4012c03c g     F .text	00000186 wifi_nvs_compare_cfg_diff
40086468 g     F .rwtext.wifi	00000005 pm_hmac_rx_data_process
400822e0 g     F .rwtext.wifi	0000051d ieee80211_encap_esfbuf
3ffd944c g     O .bss	00000002 phy_tx_pwr_error
401461f0 g     F .text	0000002a ppClearRxFragment
40026bcc g       *ABS*	00000000 lmp_timing_accu_res_handler
4013adfc g     F .text	00000094 ccmp_decap
400873e8 g     F .rwtext.wifi	0000009b pm_on_beacon_rx
3ffc1856 g     O .data	0000000b g_def_2g_channels
40015894 g       *ABS*	00000000 r_ea_time_get_halfslot_rounded
3ffd973c g     O .bss	00000001 g_wdev_last_desc_reset
4012ea00  w    F .text	00000276 ieee80211_beacon_construct
4011c2bc g     F .text	0000011e esp_wifi_ipc_internal
401460ec g     F .text	00000100 ppCalTkipMic
3ffb8d74 g       *ABS*	00000000 em_buf_env
4008fbac g     F .rwtext.wifi	00000129 coex_arbit_insert
40138604 g     F .text	0000006d cnx_remove_all_rc
4014a3e4 g     F .text	0000007c hal_attenna_init
4015f114 g     F .text	00000044 eap_peer_fast_register
400fa060 g     F .text	00000000 TG1_T0_LEVEL
40161874 g     F .text	00000014 wpa_snprintf_hex
4014d75c g     F .text	00000010 tls_connection_resumed
4003ab48 g       *ABS*	00000000 ld_inq_end
3ffc12c0 g     O .data	00000001 g_min_enc_key_size_required
401488ec g     F .text	0000000f wdev_nan_set_callbacks
40082ae4 g     F .rwtext.wifi	00000066 cnx_node_search
4013f550 g     F .text	000000a2 rf_cal_data_recovery
40154944 g     F .text	0000001d hmac_md5
3ffd9094 g     O .bss	00000018 g_qa_test_config
4012114c g     F .text	00000066 ieee80211_ht_node_init
40143750 g     F .text	000000ac lmacRetryTxFrame
4014c4b0 g     F .text	000001bb eap_sm_process_request
4011a864 g     F .text	00000025 coex_core_register_start_cb
401363dc g     F .text	0000012a ppInstallKey
40125470 g     F .text	0000002f wpa_crypto_funcs_init
40151354 g     F .text	0000001b x509_sha256_oid
4015df70 g     F .text	00000124 eap_fast_save_pac
40088f60 g     F .rwtext.wifi	000000ca bb_bss_cbw40
40135c40 g     F .text	00000040 wifi_ap_pmf_enabled
401562b0 g     F .text	00000041 sha384_vector
40126580 g     F .text	0000000a wifi_on_coex_schm_phase_process
3ffc2a00 g     O .data.wifi	00000004 g_osi_funcs_p
40100790 g     F .text	000000af realloc
40155ca4 g     F .text	00000113 hmac_sha1_vector
4000181c g       *ABS*	00000000 write
40165c0c g     F .text	0000000b r_wfi
4008ec28 g     F .rwtext.wifi	0000000b sdk_config_get_bt_sleep_mode
4008a46c g     F .rwtext.wifi	0000018c r_ea_finetimer_isr
401440ec g     F .text	0000003c lmac_stop_hw_txq
40144560 g     F .text	00000036 pm_wake_up
40119d4c g     F .text	000000ee vhci_send
40130568 g     F .text	00000042 scan_reset_default_app_params
4012cfd8 g     F .text	0000001f ieee80211_add_probe_resp_app_ies
400870c0 g     F .rwtext.wifi	0000016d pm_process_tim
4011290c g     F .text	0000002b btdm_disable_adv_delay
3ffdc814 g     O .bss	00000088 phy_rxrf_dc
4010cb50 g     F .text	000000f3 .hidden _ZN17compiler_builtins3int3mul3Mul3mul17h03f7bd69535e5bf8E
4008d250 g     F .rwtext.wifi	000000f7 lld_pdu_refresh_rem_proc_state
40110058 g     F .text	000000dd huart_write
3ffb8154 g       *ABS*	00000000 hci_tl_env
4014a6dc g     F .text	0000001b hal_enable_sta_tsf
40122088 g     F .text	00000046 ieee80211_add_ie_vendor_esp_manufacturer
40081ed0 g     F .rwtext	00000068 phy_enter_critical
40082044 g     F .rwtext	00000000 Timer1
3ffd9093 g     O .bss	00000001 g_scan_forever
3ffd9ca8 g     O .bss	00000800 vflash_mem
4002c7a4 g       *ABS*	00000000 lmp_io_cap_req_handler
40002d78 g       *ABS*	00000000 __mulvdi3
4014dcd0 g     F .text	0000004a tlsv1_client_deinit
4014c90c g     F .text	0000001c esp_eap_client_set_ca_cert
40143294 g     F .text	00000037 ic_set_interrupt_handler
40124d68 g     F .text	0000002e wifi_get_macaddr
40121a3c g     F .text	0000003c ieee80211_add_htcap
401332e0 g     F .text	0000000f sta_recv_ctl
40118788 g     F .text	00000008 config_llm_task_funcs_reset
3ffc14ca  w    O .data	0000000e coex_schm_ble_mesh_standby_bt_a2dp_paused_wifi_connecting
401238b0 g     F .text	00000088 ieee80211_parse_wapi
40082044 g     F .rwtext	00000000 Timer0
3ffb96d0 g       *ABS*	00000000 llc_env
401521a8 g     F .text	0000007d aes_128_cbc_decrypt
3ffd9764 g     O .bss	00000004 wpa_cb
40127c04 g     F .text	0000006f nan_dp_get_peer_ndl
400276e8 g       *ABS*	00000000 lmp_rmv_esco_link_req_handler
4006387c g       *ABS*	00000000 __absvdi2
40080400 g       *ABS*	00000000 _init_end
3ffdb588 g     O .bss	0000011c gScanStruct
3ffd9194 g     O .bss	00000004 g_coex_swisr_queue
40103304 g     F .text	00000025 pp_printf
3ffd989c g     O .bss	00000004 g_wpa_password
4011b964 g     F .text	00000029 wifi_deinit_in_caller_task
3ffc174a  w    O .data	0000000a coex_schm_bt_a2dp_paused_wifi_scan
3ffae6e0 g       *ABS*	00000000 r_btdm_option_data
4013b8d0 g     F .text	00000096 chip_v7_rxmax_ext_ana
401194cc g     F .text	000001c4 r_rwip_init
40080b84 g     F .rwtext	000000bf __user_exception
40125984 g     F .text	0000000d wifi_set_ps_process
40166550 g     F .text	00000007 tls_get_errors
40127210 g     F .text	00000067 nan_transmit_action
4006342c g     F *ABS*	00000049 .hidden __ltsf2
40124140 g     F .text	000001b7 ieee80211_set_phy_bw
4014c88c g     F .text	00000046 esp_eap_client_set_certificate_and_key
400894cc g     F .rwtext.wifi	00000124 rx_11b_opt
4014cb44 g     F .text	00000095 esp_eap_client_set_fast_params
40127fbc g     F .text	00000097 nan_ndp_resp_timeout_process
3ffc229c g     O .data	0000009c rc11GSchedTbl
4010fa68 g     F .text	00000036 hci_tl_tx_hw_err_evt
40082044 g     F .rwtext	00000000 Timer2
40091018 g     F .rwtext.wifi	0000005e ram_set_noise_floor
401419ec g     F .text	000001ec ram_rfcal_txcap
40002cf8 g       *ABS*	00000000 __subvsi3
40146ed4 g     F .text	00000068 rcGet11NHighestRateIdx
4015bacc g     F .text	000000a9 peap_prfplus
4016111c g     F .text	0000002a wpa_sm_notify_disassoc
3ffbdb28 g       *ABS*	00000000 rwip_rf
4014dfe8 g     F .text	00000034 tlsv1_client_get_random
4012e3bc g     F .text	000001b1 ieee80211_encap_amsdu
3ffc16fa  w    O .data	0000000e coex_schm_ble_mesh_config_bt_conn_wifi_scan
4011a694 g     F .text	000000e8 coex_core_enable
4012ac20 g     F .text	00000048 nan_send_discovery_result
40086c08 g     F .rwtext.wifi	0000005e pm_enable_beacon_monitor_timer
3ffd9108 g     O .bss	00000004 r_plf_funcs_p
40166314 g     F .text	00000007 RC_SetBasicRate
4015c200 g     F .text	00000015 eap_peer_tls_reset_input
4014d834 g     F .text	0000013b tls_derive_keys
4013f8e4 g     F .text	0000001c get_phy_version_str
3ffd98b8 g     O .bss	00000004 g_wpa_client_cert_len
4008c428 g     F .rwtext.wifi	00000011 lld_elt_prog_is_empty
40143dec g     F .text	000000a9 lmacProcessTxRtsError
4012d140 g     F .text	00000077 ieee80211_add_extcap
40142c70 g     F .text	0000008e ic_set_key
4012c8b8 g     F .text	00000036 is_wapi_alloc_tx_buf
3ffd944e g     O .bss	00000001 phy_in_vdd33_offset
40162edc g     F .text	0000007f pkcs1_decrypt_public_key
4002c13c g       *ABS*	00000000 lmp_unitkey_handler
40119470 g     F .text	00000010 config_rf2_espressif_funcs_reset
4008ff3c g     F .rwtext.wifi	0000004c phy_dis_hw_set_freq
401359a4 g     F .text	00000029 esp_wifi_sta_update_ap_info_internal
4015e0d8 g     F .text	000001be eap_fast_load_pac_bin
401380c0 g     F .text	0000001a cnx_get_authtype_strength
40086bf4 g     F .rwtext.wifi	00000013 pm_beacon_monitor_tbtt_stop
400809f4 g     F .rwtext	00000000 __default_naked_level_3_interrupt
4015362c g     F .text	00000018 crypto_public_key_encrypt_pkcs1_v15
3ffc1652  w    O .data	0000000e coex_schm_ble_mesh_standby_bt_conn_wifi_scan
4014500c g     F .text	00000074 pm_tx_data_done_process
4014794c g     F .text	00000059 TRC_AMPDU_PER_UP_THRESHOLD
4014cf94 g     F .text	00000053 wpa_alloc_eapol
40146794 g     F .text	00000056 ppTxqEmpty
4013a5dc g     F .text	0000011d cnx_obss_scan_done_cb
3ffdc7f4 g     O .bss	0000000b freq_i2c_addr
401218e0 g     F .text	000000b9 ieee80211_setup_htrates
4012d23c g     F .text	0000006d ieee80211_setup_robust_mgmtframe
40063374 g     F *ABS*	00000049 .hidden __eqsf2
40154704 g     F .text	00000086 MD5Update
401120d4 g     F .text	000001bc r_lld_evt_update_create
40026aac g       *ABS*	00000000 lmp_max_slot_req_handler
4002354c g       *ABS*	00000000 lc_setup_sync_param_check
4014ca48 g     F .text	0000003a esp_eap_client_set_new_password
3f413b0a g     O .rodata	00000100 Td4s
3ffdb6b8 g     O .bss	00000228 gChmCxt
4008f214 g     F .rwtext.wifi	00000011 coex_bt_release
40161174 g     F .text	00000035 wpa_parse_wpa_ie
40037110 g       *ABS*	00000000 r_ld_sco_start
3ffc139e  w    O .data	0000000e coex_schm_ble_mesh_traffic_bt_a2dp_wifi_conn
400fdb50 g     F .text	0000013a ets_timer_disarm
3ffc1726  w    O .data	0000000a coex_schm_ble_mesh_config_wifi_scan
401433b0 g     F .text	00000016 ic_set_rx_policy
40130164 g     F .text	00000014 ieee80211_regdomain_update_in_connect
4012cf28 g     F .text	00000030 ieee80211_add_rates
3ffc15f0  w    O .data	0000000a coex_schm_ble_default_bt_default_wifi_scan
400fa060 g     F .text	00000000 TG0_T0_LEVEL
4015c4b8 g     F .text	0000003b eap_peer_tls_decrypt
3ffd9100 g     O .bss	00000004 r_ip_funcs_p
40011eec g       *ABS*	00000000 lm_n192_mod_sub
40089b9c g     F .rwtext.wifi	00000063 ram_en_pwdet
4010dc24 g     F .text	00000008 btdm_controller_get_compile_version
4000c978 g     F *ABS*	00000033 .hidden __floatundidf
4011dd4c g     F .text	00000153 hostap_handle_timer_process
40091694 g     F .rwtext.wifi	00000076 get_chan_pwr_index
3ffc287b g     O .data.wifi	00000029 coex_prio_tab
4011dae0 g     F .text	0000019a ieee80211_hostap_attach
40166568 g     F .text	0000000e tls_alert
40151d34 g     F .text	00000289 x509_check_signature
4010313c g     F .text	0000004b gettimeofday
3ffc1526  w    O .data	0000000e coex_schm_ble_mesh_traffic_bt_a2dp_paused_wifi_connecting
4002bda0 g       *ABS*	00000000 lmp_aurand_handler
40026480 g       *ABS*	00000000 lmp_pwr_ctrl_res_handler
401271fc g     F .text	0000000e nan_post_event
3ffd9248 g     O .bss	00000004 s_wifi_task_hdl
40118798 g     F .text	0000011f r_llm_end_evt_defer
40132214 g     F .text	00000bf3 scan_parse_beacon
40019af0 g       *ABS*	00000000 btdm_r_ip_func_p_get
40114930 g     F .text	0000044a r_lld_move_to_slave_hack
40129000 g     F .text	000000d5 nan_dp_schedule_next_faw
4014a4e0 g     F .text	00000085 hal_sniffer_enable
40093b50 g     F .rwtext.wifi	000000a7 ppAMPDU2Normal
400f9d64 g     F .text	0000009f ESP32Reset
4014cc08 g     F .text	0000002d wpa_ap_get_wpa_ie
401546e4 g     F .text	0000001f MD5Init
401371cc g     F .text	000000e7 chm_set_current_channel
40149528 g     F .text	00000024 hal_mac_set_txq_invalid
40087f50 g     F .rwtext.wifi	00000078 wDevCheckBlockError
4013a9d4 g     F .text	0000001c offchan_recv_action
4012c224 g     F .text	00000038 wifi_nvs_validate_ap_password
4000c870 g     F *ABS*	0000002f .hidden __floatsisf
40153fa0 g     F .text	00000040 des3_decrypt
40054268 g       *ABS*	00000000 lm_default_state_tab_p_get
4014337c g     F .text	00000010 ic_get_trc
40111b40 g     F .text	00000441 r_lld_evt_move_to_slave
400250bc g       *ABS*	00000000 lmp_name_res_handler
4011cbbc g     F .text	000000c8 wifi_create_softap
401455c4 g     F .text	00000066 pm_on_coex_schm_status_config
40085c44 g     F .rwtext.wifi	0000002e ppProcessRxPktHdr
3ffc1c7a g     O .data	00000002 bt_tx_pa_gain
40159c74 g     F .text	0000001b eap_peer_get_methods
4013e568 g     F .text	00000016 bt_index_to_bb
40111ae4 g     F .text	0000003d config_llc_util_funcs_reset
4013b314 g     F .text	0000009f tkip_decap
4002b74c g       *ABS*	00000000 lmp_temprand_handler
3ffc14f0  w    O .data	00000016 coex_schm_ble_mesh_traffic_bt_default_wifi_connecting
40165fec g     F .text	0000001b ieee80211_set_shortslottime
401611ac g     F .text	00000296 wpa_gen_wpa_ie
40150ea4 g     F .text	0000006b x509_free_name
40054288 g       *ABS*	00000000 btdm_r_plf_func_p_set
4011ba20 g     F .text	00000045 wifi_osi_funcs_register
40166434 g     F .text	0000004f rcUpdateAckSnr
4014786c g     F .text	000000db rcAmpduLowerRate
40142c20 g     F .text	00000011 ic_get_addr
40136038 g     F .text	00000024 esp_wifi_get_spp_attrubute_internal
4014bc58 g     F .text	00000020 sha256_prf
4014f79c g     F .text	0000006a tls_verify_hash_free
401663b8 g     F .text	00000026 trcAmpduSetState
400081d4 g       *ABS*	00000000 rtc_get_reset_reason
40133498 g     F .text	00000025 sta_is_wpa3_enabled
40167080 g     F .text	00000026 bignum_cmp_d
401610a4 g     F .text	0000004e wpa_sm_drop_sa
40138de4 g     F .text	00000031 cnx_auth_timeout_process
40145750 g     F .text	0000003b pm_disconnected_stop
401482f8 g     F .text	0000006e wdev_pop_promis_misc_buf
4014cae8 g     F .text	0000005a esp_eap_client_set_pac_file
40111848 g     F .text	00000008 config_llc_task_funcs_reset
4014f060 g     F .text	000005c3 tlsv1_client_handshake_write
400262f8 g       *ABS*	00000000 lmp_decr_pwr_req_handler
3ffc1c2c g     O .data	00000018 sms4
40027468 g       *ABS*	00000000 lmp_clk_adj_handler
40139bf4 g     F .text	00000296 cnx_sta_leave
400820c4 g     F .rwtext	0000003e __default_double_exception
40165f08 g     F .text	00000034 nan_all_wildcard_filter
3ffd98ac g     O .bss	00000004 g_wpa_private_key_passwd
40132098 g     F .text	00000081 scan_get_owe_channel_info
3ffd931d g     O .bss	00000001 g_wifi_improve_contention_ability
40142ed0 g     F .text	0000000c ic_register_nan_callbacks
4012fd48 g     F .text	00000023 ieee80211_proto_attach
4008d860 g     F .rwtext.wifi	00000063 lld_retry_tx_prog
4010f8d8 g     F .text	00000062 r_hci_tl_send
4014d4d4 g     F .text	0000001b tls_deinit
3ff9914c g       *ABS*	00000000 rwip_coex_cfg
40140894 g     F .text	00000187 ram_txiq_cover
4011c928 g     F .text	0000000f ieee80211_ifdetach
4011c4e8 g     F .text	0000007a esp_mesh_map_deauth
4008b054 g     F .rwtext.wifi	0000002e r_ke_timer_set_hack
3ffd9452 g     O .bss	00000001 s_is_6m
4014579c g     F .text	000001c2 pm_start
40149ee0 g     F .text	00000059 hal_mac_tsf_set_time
400874a8 g     F .rwtext.wifi	0000005f pm_coex_pwr_update
40091fe4 g     F .rwtext.wifi	00000017 ram_get_rf_gain_qdb
3ffc15ea  w    O .data	00000006 coex_schm_bt_idle_wifi_connecting
4014caac g     F .text	0000000b wifi_sta_get_enterprise_disable_time_check
4002cec4 g       *ABS*	00000000 lc_cmd_cmp_bd_addr_send
3ffd98b0 g     O .bss	00000004 g_wpa_private_key_len
40165a74 g     F .text	00000030 snprintf
400867ac g     F .rwtext.wifi	000000ae pm_scale_listen_interval
4015c3a4 g     F .text	000000f7 eap_peer_tls_process_helper
3ffc16a0  w    O .data	0000000e coex_schm_ble_mesh_traffic_bt_a2dp_paused_wifi_scan
400041a4 g       *ABS*	00000000 rom_i2c_writeReg
401224dc g     F .text	0000013c ieee80211_set_max_rate
400636dc g     F *ABS*	0000004d .hidden __gtdf2
40023420 g       *ABS*	00000000 lm_get_auth_method
4012b368 g     F .text	00000030 cleanup_peer_list
4011187c g     F .text	0000007e r_llc_util_bw_mgt
401446ec g     F .text	0000029f pm_coex_separate_connectionless_window
3ffc171c  w    O .data	0000000a coex_schm_ble_mesh_traffic_wifi_scan
40159aa4 g     F .text	0000012a tls_prf_sha1_md5
400899b4 g     F .rwtext.wifi	0000009e phy_wakeup_init
4001ca28 g       *ABS*	00000000 r_lc_start
4010c930 g     F .text	0000002e .hidden _ZN83_$LT$$RF$mut$u20$I$u20$as$u20$core..iter..traits..exact_size..ExactSizeIterator$GT$3len17h748e6601cc771210E
3ffd9890 g     O .bss	00000004 g_wpa_new_password_len
40093a24 g     F .rwtext.wifi	00000092 ppSelectNextQueue
4008a794 g     F .rwtext.wifi	0000001a hci_tl_inc_nb_h2c_cmd_pkts
40091928 g     F .rwtext.wifi	00000297 set_chan_dig_gain
40064b7c g       *ABS*	00000000 __clrsbdi2
4002fbec g       *ABS*	00000000 ld_acl_rx_sync
401180fc g     F .text	000002a2 r_llm_con_req_ind
4010f2bc g     F .text	00000048 config_hci_funcs_reset
4008f49c g     F .rwtext.wifi	0000001c coex_timer_ts_end_handler
40145220 g     F .text	000000dc pm_go_to_wake
4003c714 g       *ABS*	00000000 r_ld_reset
3ffb9350 g       *ABS*	00000000 hci_env
40118bc4 g     F .text	0000002a lm_reset_btdm_hci_cmd_handler_tab
4015f318 g     F .text	00000064 pmksa_cache_flush
40159e3c g     F .text	00000021 eap_peer_register_methods
4008a110 g     F .rwtext.wifi	0000029c r_ea_elt_insert
401302a8 g     F .text	0000001c ieee80211_rfid_locp_recv
4012091c g     F .text	00000076 ampdu_alloc_rx_ba_index
401265bc g     F .text	0000001f ieee80211_ioctl_init
401205bc g     F .text	000001c2 ieee80211_ht_attach
401639a4 g     F .text	0000003f get_master_key
3ffc1a4c g     O .data	00000100 g_timer_info
40088204 g     F .rwtext.wifi	00000053 pm_handle_tbtt_interval
4002ccb0 g       *ABS*	00000000 lmp_feats_req_ext_handler
4002f270 g       *ABS*	00000000 lc_acl_disc_ind_handler
40143f64 g     F .text	0000006d lmacDisableTransmit
40142e70 g     F .text	00000014 ic_register_config_cb
4011b518 g     F .text	00000046 wifi_api_lock
4014f808 g     F .text	000000ba tls_verify_hash_init
40128438 g     F .text	00000066 nan_send_ndp_resp
401490bc g     F .text	00000146 hal_crypto_set_key_entry
3ffd96c0 g     O .bss	00000070 wDevMacSleep
4010cf24 g     F .text	00000152 btdm_rom_ref_init
40093280 g     F .rwtext.wifi	00000150 lmacProcessTxComplete
4010d284 g     F .text	00000583 btdm_controller_task
40161758 g     F .text	00000024 wpabuf_alloc_ext_data
4008be7c g     F .rwtext.wifi	0000058e r_lld_evt_schedule
40026a10 g       *ABS*	00000000 lmp_rmv_sco_link_req_handler
4012ffc0 g     F .text	00000024 ieee80211_update_phy_country
400873c8 g     F .rwtext.wifi	0000001b pm_beacon_monitor_tbtt_timeout_process
40082ea0 g     F .rwtext.wifi	0000006f lmacTxDone
4008fef8 g     F .rwtext.wifi	00000040 bb_rst_en_set
4010ef78 g     F .text	00000016 hci_look_for_le_evt_desc_esp
40089a60 g     F .rwtext.wifi	00000032 phy_set_bbfreq_init
40087e54 g     F .rwtext.wifi	000000e7 wdevProcessRxSucDataAll
3ffb8364 g       *ABS*	00000000 nvds_env
3ffc14b4  w    O .data	00000016 coex_schm_ble_mesh_standby_bt_a2dp_wifi_connecting
4011a500 g     F .text	0000000a coex_init
40153644 g     F .text	00000018 crypto_private_key_sign_pkcs1
40140a1c g     F .text	000001dd rfcal_txiq
40089adc g     F .rwtext.wifi	000000af pwdet_sar2_init
4014f6dc g     F .text	0000003f tls_parse_cert
40044678 g       *ABS*	00000000 r_llc_llcp_recv_handler
40063790 g     F *ABS*	0000004d .hidden __ltdf2
401639e4 g     F .text	00000065 get_asymetric_start_key
4008b0bc g     F .rwtext.wifi	00000028 ld_acl_rsw_start_error_handle
4011bf88 g     F .text	0000006a esp_wifi_set_config
4013600c g     F .text	0000002b esp_wifi_deauthenticate_internal
3ffd9438 g     O .bss	00000001 bt_dig_gain_force
4014aae4 g     F .text	000001f6 bt_bb_init_cmplx
40092710 g     F .rwtext.wifi	00000047 hal_mac_rx_get_end_info
4002b620 g       *ABS*	00000000 lmp_feats_req_handler
40136508 g     F .text	00000060 esp_wifi_set_sta_key_internal
4008b4ac g     F .rwtext.wifi	0000002c llc_peer_conn_param_req_not_support_set
4010c960 g     F .text	000001f0 .hidden _ZN17compiler_builtins5float3div3div17heda295e2dcc7b110E
401286a8 g     F .text	000000b2 nan_dp_parse_time_bitmap
4013dd9c g     F .text	000003ae set_rx_gain_cal_dc
4014954c g     F .text	00000019 hal_mac_is_txq_valid
40129dcc g     F .text	000000f0 nan_nmns_event_hdlr
401211c4 g     F .text	0000011c ieee80211_parse_htcap
4014acdc g     F .text	00000089 bt_bb_init_cmplx_reg
40159a64 g     F .text	00000025 aes_gmac
40086a38 g     F .rwtext.wifi	00000024 pm_disable_sleep_delay_timer
40086124 g     F .rwtext.wifi	0000004e rc_get_trc
40001274 g       *ABS*	00000000 strcmp
4013bc38 g     F .text	0000006f wr_rf_freq_mem
40087608 g     F .rwtext.wifi	00000025 ppDequeueRxq_Locked
400633c0 g     F *ABS*	00000049 .hidden __lesf2
4014cdb0 g     F .text	00000023 wpa_install_key
40162d90 g     F .text	00000018 bignum_sub
4008facc g     F .rwtext.wifi	00000026 coex_timer_ts_start_alarm
3ffc12c8 g     O .data	00000004 libcoexist_reversion_git
40130774 g     F .text	00000011 scan_set_act_duration
4013bf18 g     F .text	00000570 bt_i2c_write_set
40002ed0 g       *ABS*	00000000 __popcountsi2
400fa060 g     F .text	00000000 TG0_T1_EDGE
40155b98 g     F .text	00000031 sha1_vector
401443b4 g     F .text	0000005e pm_noise_check
4010c898 g     F .text	00000025 default_post_init
40128578 g     F .text	000000dd nan_dp_parse_elem_container
40153038 g     F .text	000000e9 aes_unwrap
40156204 g     F .text	0000001d hmac_sha256
4013d494 g     F .text	000000ea ram_check_noise_floor
40090574 g     F .rwtext.wifi	0000006e btpwr_tsens_track
4002b548 g       *ABS*	00000000 lmp_feats_res_handler
40082ccc g     F .rwtext.wifi	000001c2 lmacTxFrame
4011c85c g     F .text	000000cb ieee80211_ifattach
401669b0 g     F .text	0000001e wpa_mic_len
4002c414 g       *ABS*	00000000 lmp_inrand_handler
40088bac g     F .rwtext.wifi	0000005d ram_cbw2040_cfg
3ffd91b8 g     O .bss	00000004 mesh_rxcb
401111c4 g     F .text	00000066 r_llc_common_nb_of_pkt_comp_evt_send
40119ca0 g     F .text	0000002a r_flash_write
40090804 g     F .rwtext.wifi	000000a5 force_txrxoff
40166c08 g     F .text	0000000f eap_sm_request_password
3ffd9309 g     O .bss	00000001 s_avail_seq
40144fc0 g     F .text	00000022 pm_sleep_delay_timeout_process
40093d34 g     F .rwtext.wifi	00000087 rcGetRate
4012d208 g     F .text	00000032 ieee80211_vnd_lora_ie_set
40148508 g     F .text	00000072 wDev_SnifferRxAmpdu
40163af0 g     F .text	00000022 nt_password_hash_encrypted_with_block
40155f60 g     F .text	00000093 sha256_process
4015fe24 g     F .text	0000004d wpa_sm_init
4014db54 g     F .text	00000119 tlsv1_client_decrypt
3ffc2a11 g     O .data.wifi	00000001 g_sta_connected_flag
4012456c g     F .text	000007f5 wifi_softap_set_config
40101030 g     F .text	0000008f WIFI_MAC
40147bc4 g     F .text	000000ae rcReachRetryLimit
4008f9c4 g     F .rwtext.wifi	0000005d coex_unforce_wifi_mode
40145538 g     F .text	00000059 pm_active_timeout_process
400fa060 g     F .text	00000000 SPI1_DMA
40166634 g     F .text	0000000b tlsv1_client_set_session_ticket_cb
401631ac g     F .text	0000011b crypto_rsa_exptmod
4010ce8c g     F .text	00000010 r_get_stack_usage
4011b998 g     F .text	00000079 wifi_init_in_caller_task
3ffd93f3 g     O .bss	00000001 g_in_blacklist_flag
4008506c g     F .rwtext.wifi	00000089 ampdu_dispatch_as_many_as_possible
40117d74 g     F .text	000000fe esp_ble_controller_status_check
401632c8 g     F .text	00000038 crypto_rsa_free
40090ca4 g     F .rwtext.wifi	000001b0 set_most_pwr_reg
4008672c g     F .rwtext.wifi	0000000a ic_mac_deinit
4012a3c0 g     F .text	00000371 nan_scan_event_hdlr
4003274c g       *ABS*	00000000 ld_acl_rx
40137194 g     F .text	00000022 chm_get_chan_info
40166900 g     F .text	00000005 crypto_global_deinit
4011e044 g     F .text	0000011f hostap_recv_ctl
40112530 g     F .text	00000020 r_lld_evt_init_wrapper
40142dd8 g     F .text	00000014 ic_ebuf_alloc
40126928 g     F .text	0000000e nan_get_tsf
4004ed34 g       *ABS*	00000000 r_lm_init
3ffb8d60 g       *ABS*	00000000 ecc_env
3ffc1446  w    O .data	00000006 coex_schm_bt_sniff_wifi_conn
3ffc1c79 g     O .data	00000001 phy_in_most_power
40030ab0 g       *ABS*	00000000 ld_acl_evt_start_cbk
4012cf58 g     F .text	00000026 ieee80211_add_dsparams
4010ed68 g     F .text	00000048 config_ea_funcs_reset
3ffb9508 g       *ABS*	00000000 lc_state
4016602c g     F .text	00000031 scan_fill_wps_scan_ie
401464f8 g     F .text	0000001e ppRecordBarRRC
4000c44c g     F *ABS*	00000031 .hidden memset
400939c8 g     F .rwtext.wifi	00000055 ppProcessWaitingQueue
40155ff4 g     F .text	000000d4 sha256_done
4011ca3c g     F .text	00000064 wifi_destroy_softap
400184c4 g       *ABS*	00000000 r_hci_look_for_dbg_evt_desc
4011874c g     F .text	0000003c llm_task_default_state_tab_reset
40063768 g     F *ABS*	0000004d .hidden __gedf2
40159c90 g     F .text	0000002b eap_peer_get_type
4013cb48 g     F .text	0000009c set_chan_freq_hw_init
4016722c g     F .coexsleepiram.26	0000000a coex_core_status_get
4000c8c0 g     F *ABS*	00000031 .hidden __floatdisf
4014bed0 g     F .text	00000026 dup_binstr
4014f71c g     F .text	0000007e tls_verify_hash_add
4014bdc8 g     F .text	00000108 printf_decode
40152b54 g     F .text	0000001a aes_encrypt_deinit
4014bef8 g     F .text	000000e2 wpa_config_parse_string
40156898 g     F .text	00000011 os_get_random
40010004 g       *ABS*	00000000 btdm_r_btdm_option_data_p_get
3ffdb8e0 g     O .bss	00000ef8 g_cnxMgr
4000ca50 g     F *ABS*	00000031 .hidden __clzdi2
4000c584 g       *ABS*	00000000 strlcpy
3ffd98cc g     O .bss	00000004 g_wpa_anonymous_identity
3ffd987d g     O .bss	00000001 g_wpa_suiteb_certification
40149310 g     F .text	0000001b hal_crypto_mgmt_rx_enabled
4012e0dc g     F .text	00000058 ieee80211_disassoc_construct
40027120 g       *ABS*	00000000 lmp_encaps_hdr_handler
40119bb8 g     F .text	00000016 btdm_task_recycle
4016641c g     F .text	00000018 rcGetDefaultHigestRateIdx
4008d8d0 g     F .rwtext.wifi	000003aa lld_pdu_tx_prog_llcp
40166140 g     F .text	00000023 phy_byte_to_word
40158fec g     F .text	00000143 wpa_parse_wpa_ie_wpa
3ffc12cc g     O .data	00000014 g_coex_param
4014cab8 g     F .text	00000030 esp_eap_client_set_ttls_phase2_method
4008e180 g     F .rwtext.wifi	0000087a r_rwble_isr
40136854 g     F .text	00000048 esp_wifi_register_mgmt_frame_internal
40143438 g     F .text	0000000a ic_create_wifi_task
401332f8 g     F .text	000000a2 wifi_station_start
3ffd9804 g     O .bss	00000004 global_hapd
40103304 g     F .text	00000025 net80211_printf
40135a4c g     F .text	00000056 esp_wifi_get_pmf_config_internal
401433e4 g     F .text	0000000f ic_trc_set_per_pkt_rate
40126ae4  w    F .text	000002d8 nan_input
4014ce78 g     F .text	0000003a wpa_sta_connect
40018454 g       *ABS*	00000000 r_hci_look_for_cmd_desc
40135c80 g     F .text	0000000d esp_wifi_sta_get_prof_password_internal
40149f58 g     F .text	0000013d hal_mac_tsf_reset
40026cc8 g       *ABS*	00000000 lmp_slot_off_handler
4010dc84 g     F .text	0000000b coex_schm_wifi_channel_changed_flag_get
4015c2a4 g     F .text	00000017 eap_peer_tls_ssl_deinit
40137de0 g     F .text	0000000e cnx_assoc_timeout
40080c44 g     F .rwtext	0000002d __level_4_interrupt
4013d3a8 g     F .text	00000076 ram_start_tx_tone
40093f74 g     F .rwtext.wifi	00000020 coex_schm_interval_set
4002b4c4 g       *ABS*	00000000 lmp_use_semi_perm_key_handler
40103304 g     F .text	00000025 coexist_printf
401445d0 g     F .text	000000b9 pm_off_channel
401535fc g     F .text	0000002e crypto_private_key_import
40144cac g     F .text	0000002d pm_beacon_timestamp_statistic
40080140 g     F .vectors	00000000 _WindowUnderflow12
40002c34 g     F *ABS*	00000031 .hidden __extendsfdf2
40130a0c g     F .text	00000170 scan_update_scan_history
40145ef8 g     F .text	00000019 pp_default_event_handler
3ffd9420 g     O .bss	00000001 bt_pwr_track_num
4014fea4 g     F .text	0000004b tlsv1_record_change_read_cipher
4002ca18 g       *ABS*	00000000 lmp_ch_class_handler
4008ec18 g     F .rwtext.wifi	0000000b sdk_config_get_bt_mode
40166d98 g     F .text	000000f9 eap_fast_parse_tlv
4003ae4c g       *ABS*	00000000 ld_inq_frm_cbk
3ffd8fc0 g     O .bss	00000004 g_misc_nvs
401190cc g     F .text	00000139 r_rf_rw_bt_init
40156108 g     F .text	000000f9 hmac_sha256_vector
4000ca14 g       *ABS*	00000000 __negdi2
40159610 g     F .text	000000df ccmp_encrypt
40165f3c g     F .text	0000001f nan_service_type_diff
4014a750 g     F .text	0000001b hal_disable_softap_tsf
4014ca84 g     F .text	00000018 esp_eap_client_clear_new_password
401270d4 g     F .text	00000127 nan_alloc_action
40130c18 g     F .text	00000015 scan_set_desChan
40166ea0 g     F .text	0000000c pmksa_cache_clear_current
400836b0 g     F .rwtext.wifi	0000017d ppMapTxQueue
4008fe14 g     F .rwtext.wifi	000000e2 pll_correct_dcap
4014ae9c g     F .text	000000fb coex_bt_high_prio
3ffd988c g     O .bss	00000004 g_wpa_ttls_phase2_type
3ffd944a g     O .bss	00000001 phy_pwdet_onetime_flag
400ff354 g     F .text	000000d1 malloc
400930b0 g     F .rwtext.wifi	000000a6 lmacDiscardFrameExchangeSequence
4013ae90 g     F .text	00000070 ieee80211_decrypt_espnow_pkt
40145634 g     F .text	0000003b pm_on_coex_start
3ffd9424 g     O .bss	00000002 bt_pwr_cap_sum
3ffdc89c g     O .bss	00000001 phy_dcur_org
40090f08 g     F .rwtext.wifi	0000008b bt_tx_gain_cal
3ffc155a  w    O .data	0000000a coex_schm_ble_mesh_config_bt_sniff_wifi_connecting
400926c0 g     F .rwtext.wifi	00000010 hal_mac_interrupt_clr_event
40145f94 g     F .text	0000001b ppCheckTxQIdle
4013aa9c g     F .text	0000006e ieee80211_send_action
50000000 g       *ABS*	00000000 _rtc_slow_bss_start
40002ac4 g     F *ABS*	00000033 .hidden __fixdfdi
4016385c g     F .text	00000040 generate_nt_response
40087230 g     F .rwtext.wifi	00000098 pm_rx_beacon_process
40156690 g     F .text	0000009b sha512_process
40086dec g     F .rwtext.wifi	000001ba pm_sleep
400908ac g     F .rwtext.wifi	0000001b ram_disable_agc
40144998 g     F .text	00000060 pm_go_to_sleep
3ffdcd0c g       *ABS*	00000000 _stack_end
40119adc g     F .text	0000000a sdk_config_set_mask
3ffc144c  w    O .data	0000000a coex_schm_bt_a2dp_wifi_conn
4010ee8c g     F .text	0000001f r_eif_flow_off
4013fcc8 g     F .text	0000028b register_chipv7_phy
4014fbc8 g     F .text	00000011 tlsv1_cred_alloc
40084f90 g     F .rwtext.wifi	00000012 trc_isTxAmpduOperational
4004a760 g       *ABS*	00000000 lld_pdu_tx_flush_list
4008dc8c g     F .rwtext.wifi	000001dc r_lld_pdu_tx_prog
401011e0 g     F .text	0000008f BT_BB
40166528 g     F .text	00000005 wpa_sm_disassociate
3ffc136e  w    O .data	0000000e coex_schm_ble_mesh_standby_bt_conn_wifi_conn
40084b90 g     F .rwtext.wifi	00000057 wdev_mac_reg_store
40127394  w    F .text	00000076 nan_stop
400542b0 g       *ABS*	00000000 nvds_null_erase
40141054 g     F .text	00000064 rxdc_est_min
40163a4c g     F .text	00000076 encrypt_pw_block_with_password_hash
40167240 g     F .wifiorslpiram.27	0000002b wDev_GetNoiseFloor
400633a0 g     F *ABS*	00000049 .hidden __gtsf2
4013a9c8 g     F .text	0000000b offchan_in_progress
40055ab8 g       *ABS*	00000000 r_rwip_reset
40117e8c g     F .text	0000000a ble_ll_get_scan_rxed_cnt
4014807c g     F .text	0000001d wDev_SetCurChannel
40091778 g     F .rwtext.wifi	00000107 correct_rf_ana_gain_new
4011cef4 g     F .text	00000071 ieee80211_crypto_encap
400817e8 g     F .rwtext	00000068 random
40148f68 g     F .text	00000081 hal_ba_session_restore_by_hw_index
40166f80 g     F .text	0000000f wpabuf_put
4014dc70 g     F .text	0000000a tlsv1_client_global_init
40149018 g     F .text	0000008c hal_crypto_clr_key_entry
4014448c g     F .text	0000000b pm_mac_sleep
40120fec g     F .text	000000aa ampdu_process_multicast_address_qos_frame
401161f4 g     F .text	00000036 ble_ll_reset_rand_addr
40082ba8 g     F .rwtext.wifi	00000011 GetAccess
40148cd4 g     F .text	000000f5 hal_agreement_add_rx_ba
40112c80 g     F .text	0000034c r_lld_con_update_after_param_req
40146e1c g     F .text	000000b2 rcUpdateAMPDUParam
40080c74 g     F .rwtext	0000002d __level_5_interrupt
40158478 g     F .text	0000019a wpa_write_rsn_ie
401332b8 g     F .text	00000026 ieee80211_parse_obss_scan_param
4013e65c g     F .text	00000025 chip_sleep_prot_dis
401129d0 g     F .text	0000008b coex_schm_ble_scan_start
401589c4 g     F .text	00000104 wpa_parse_kde_ies
4014d16c g     F .text	0000001a esp_supplicant_common_deinit
4000c3c0 g     F *ABS*	00000031 .hidden memmove
3ffc28ac g     O .data.wifi	00000004 coex_fwm_mux
3ffc1564  w    O .data	0000000e coex_schm_ble_mesh_config_bt_a2dp_wifi_connecting
400901c8 g     F .rwtext.wifi	000000a3 ram_chip_i2c_writeReg
4012e580  w    F .text	0000029e ieee80211_alloc_proberesp
4015d644 g     F .text	000000c0 mschapv2_derive_response
3ffc1864 g     O .data	00000004 g_wifi_nvs
40166368 g     F .text	0000001c rcLoRaRate2SchedIdx
3ffd98c0 g     O .bss	00000004 g_wpa_username_len
40134558 g     F .text	00000086 sta_retry_assoc
40026844 g       *ABS*	00000000 lmp_qos_req_handler
40137bf8 g     F .text	00000036 ieee80211_cnx_attach
40063374 g     F *ABS*	00000049 .hidden __nesf2
4013f820 g     F .text	000000af fe_reg_init
401259a8 g     F .text	00000190 wifi_set_country
3ffb9424 g       *ABS*	00000000 lb_env
3ffd9340 g     O .bss	00000001 rssi_index
4000ab7c g       *ABS*	00000000 roundup2
4008b75c g     F .rwtext.wifi	000000e7 r_lld_evt_end_isr
40148ec0 g     F .text	0000003e hal_ba_session_store
40129cb0 g     F .text	00000119 nan_nms_event_hdlr
401213a4 g     F .text	00000372 ieee80211_update_channel
4013b978 g     F .text	0000004f phy_freq_correct_opt
40126938 g     F .text	0000001d nan_update_tsf
40166c40 g     F .text	0000000d eap_get_config_password
40148c1c g     F .text	00000037 wDev_remove_KeyEntry
401535e8 g     F .text	00000011 crypto_public_key_import
4013ad4c g     F .text	0000002c ieee80211_action_vendor_spec_attach
40089fb8 g     F .rwtext.wifi	00000010 hardware_error_event_pending
40141db4 g     F .text	0000024a ram_rfcal_pwrctrl
4000c518 g       *ABS*	00000000 strcat
4012a054 g     F .text	00000078 nan_fill_dynamic_attr
4015a3ec g     F .text	00000031 eap_get_config_blob
4012d1b8 g     F .text	00000038 ieee80211_vnd_ie_set
40091248 g     F .rwtext.wifi	0000015a write_txrate_power_offset
40111230 g     F .text	00000018 r_llc_stop_hack
40088080 g     F .rwtext.wifi	00000013 pm_disable_dream_timer
401643b8 g     F .text	000005c2 pkcs5_decrypt
40122700 g     F .text	00000070 ieee80211_setup_lr_rates
40150f10 g     F .text	0000002e x509_certificate_free
4010ee38 g     F .text	00000026 r_eif_recv
4014d388 g     F .text	0000004a hostapd_cleanup
40087784 g     F .rwtext.wifi	00000117 wDev_AppendRxBlocks
40157f50 g     F .text	000003a7 wpa_receive
4011f87c g     F .text	000006b7 hostap_input
40092d78 g     F .rwtext.wifi	000001ca esf_buf_alloc_dynamic
4000c5f4 g       *ABS*	00000000 strncmp
4014d744 g     F .text	00000015 tls_connection_decrypt
40119340 g     F .text	0000010a r_rf_rw_init
401404a4 g     F .text	0000001a ram_index_to_txbbgain
40124de4 g     F .text	00000050 wifi_reset_mac
4014964c g     F .text	00000054 hal_mac_enable_low_rate
401265dc g     F .text	0000000f ieee80211_ioctl_deinit
40135a3c g     F .text	0000000e esp_wifi_sta_get_prof_authmode_internal
401422fc g     F .text	00000175 tx_pwctrl_init_cal
401616bc g     F .text	0000001a wpabuf_alloc
4014a568 g     F .text	00000087 hal_sniffer_disable
40136dcc g     F .text	0000008a ieee80211_timer_do_process
400fa060 g     F .text	00000000 GPIO
4011e6cc g     F .text	00000169 ap_try_sa_query_process
3ffc1783 g     O .data	00000001 s_ndp_id
400860a0 g     F .rwtext.wifi	00000080 rcUpdateRxDone
4002fa94 g       *ABS*	00000000 ld_acl_sco_rsvd_check
40159e18 g     F .text	00000024 eap_sm_allowMethod
400938cc g     F .rwtext.wifi	000000f2 ppMapWaitTxq
3ffd9344 g     O .bss	00000008 rssi_saved
40080ae4 g     F .rwtext	00000000 __naked_level_6_interrupt
40124524 g     F .text	0000001a wifi_softap_max_support_num
40128e80 g     F .text	0000004d nan_dp_init
3ffd91bc g     O .bss	00000004 s_wifi_api_lock
4012658c g     F .text	00000025 wifi_mesh_ps_duty_cycle_get_process
4011b088 g     F .text	00000037 coex_schm_register_callback
40163978 g     F .text	0000002a nt_challenge_response
401495f0 g     F .text	00000057 hal_mac_disable_low_rate
40112570 g     F .text	000002d1 r_lld_evt_deffered_elt_handler
401455a8 g     F .text	00000012 pm_send_wake_null_cb
40149568 g     F .text	00000043 hal_now
4013d424 g     F .text	00000024 ram_bb_tx_ht20_cen
40081078 g     F .rwtext	000001a0 __level_3_interrupt
40093e58 g     F .rwtext.wifi	00000024 hal_mac_txq_disable
400013ac g       *ABS*	00000000 strcpy
40100fa0 g     F .text	0000008f Software0
4014436c g     F .text	00000047 pm_enable_disconnected_sleep_delay_timer
40135f7c g     F .text	00000013 esp_wifi_register_wpa_cb_internal
4008dec8 g     F .rwtext.wifi	0000000b ble_dfl_txpwr_get_inter
40166520 g     F .text	00000007 wpa_sm_mlme_setprotection
40100de8 g     F .text	00000099 Software1
40166560 g     F .text	00000007 tls_connection_get_failed
4001a430 g       *ABS*	00000000 ke_handler_search
40087638 g     F .rwtext.wifi	00000129 ppRxPkt
4015138c g     F .text	0000001c x509_sha512_oid
400270a4 g       *ABS*	00000000 lmp_enc_key_size_mask_res_handler
4012ae64 g     F .text	00000052 nan_sd_parse_availability
40148f00 g     F .text	00000067 hal_ba_session_restore
4010c898 g     F .text	00000025 DefaultPreInit
4002b840 g       *ABS*	00000000 lmp_sres_handler
4011a4c8 g     F .text	00000015 coex_wifi_request
40159cfc g     F .text	00000081 eap_get_phase2_types
40064ae0 g     F *ABS*	00000043 .hidden __bswapsi2
3ffb8258 g       *ABS*	00000000 ld_acl_env
400160b8 g       *ABS*	00000000 MultiplyBigHexModP256
4011cb88 g     F .text	0000002e ieee80211_setup_pmf
4002f494 g       *ABS*	00000000 lc_default_state_tab_p_get
40093f4c g     F .rwtext.wifi	00000026 coex_schm_unlock
40153f04 g     F .text	0000000e des_block_decrypt
4010edf0 g     F .text	0000001c r_eif_finish_transfers
40136624 g     F .text	00000052 esp_wifi_sta_wpa2_ent_enable_internal
4013a72c g     F .text	00000296 cnx_auth_done
4014cd80 g     F .text	0000002d wpa_ap_rx_eapol
401112a4 g     F .text	00000038 r_llc_common_cmd_status_send_hack
4002c670 g       *ABS*	00000000 lmp_io_cap_res_handler
40153ec0 g     F .text	0000001a des_key_setup
40125e14 g     F .text	0000012e wifi_send_mgmt_frame
4014f668 g     F .text	0000002b tls_get_cipher_suite
4014d7a0 g     F .text	0000001a tls_get_cipher
40093e90 g     F .rwtext.wifi	00000067 hal_get_tsf_time
40051838 g       *ABS*	00000000 lm_cmd_cmp_send
40145ecc g     F .text	0000000f pp_register_timer_cb
40080810 g     F .rwtext	00000000 restore_context
4008f234 g     F .rwtext.wifi	0000000a coex_bb_reset_unlock
4000d280 g     F *ABS*	0000003a .hidden __umoddi3
401161d0 g     F .text	00000021 ble_ll_rand_addr_state_check
401430b4 g     F .text	0000000a ic_get_next_tbtt
401101ec g     F .text	00000028 ld_acl_all_in_sniff
3ffc1c9e g     O .data	00000001 rfcal_bb_atten_init
40130248 g     F .text	0000001e ieee80211_regdomain_chan_in_range
4012c8f0 g     F .text	00000050 ieee80211_wapi_alloc_tx_buf
40111850 g     F .text	0000002a r_llc_util_set_auth_payl_to_margin
401495b0 g     F .text	00000023 hal_mac_tx_set_cca
4010dc68 g     F .text	0000000b coex_schm_wakeup_flag_get
3ffc16ec  w    O .data	0000000e coex_schm_ble_mesh_config_bt_a2dp_paused_wifi_scan
401306cc g     F .text	0000007a scan_cancel
40103188 g     F .text	00000023 strrchr
3ff96544 g       *ABS*	00000000 __popcount_tab
4008a7f4 g     F .rwtext.wifi	0000000e huart_flow_on
40010078 g       *ABS*	00000000 btdm_r_btdm_rom_version_get
4011cb0c g     F .text	00000050 ieee80211_find_elem_match
4012ec80 g     F .text	0000013c ieee80211_send_nulldata
3ffc1598  w    O .data	0000000a coex_schm_ble_mesh_standby_wifi_connecting
40026d94 g       *ABS*	00000000 lmp_supv_to_handler
40143e98 g     F .text	00000012 lmacProcessTxseckiderr
40156c30 g     F .text	0000003d hostapd_setup_wpa_psk
3ffd91a0 g     O .bss	00000004 g_rw_init_sem
40084b38 g     F .rwtext.wifi	00000057 wdev_mac_reg_load
4013ffac g     F .text	000000e6 chan14_mic_cfg
40149730 g     F .text	0000003a hal_disable_mac
40146868 g     F .text	0000002f ppDisableQueue
4012a764  w    F .text	0000000f nan_sm_handle_event
4013e5b4 g     F .text	00000027 set_chanfreq_nomac
4014d6d8 g     F .text	00000014 tls_connection_handshake
40152e9c g     F .text	00000166 omac1_aes_vector
40120f4c g     F .text	000000a0 ieee80211_ampdu_age_all
40125c08 g     F .text	0000005b wifi_ipc_process
400fa060 g     F .text	00000000 I2C_EXT0
401183dc g     F .text	000000e8 llm_set_long_adv_data
401480d0 g     F .text	00000031 wDev_Get_Next_TBTT
40010268 g       *ABS*	00000000 r_bt_util_buf_acl_tx_alloc
3ffc1778 g     O .data	00000004 g_wifi_event_mask
4012e14c g     F .text	000000d2 ieee80211_search_node
40125924 g     F .text	0000005d wifi_set_chan_range
4011af14 g     F .text	00000082 coex_schm_status_bit_set
4012ff88 g     F .text	00000036 ieee80211_regdomain_get_country
3ffc249c g     O .data	00000038 wDevCtrl
40080cd4 g     F .rwtext	0000002d __level_7_interrupt
4013f77c g     F .text	0000008f i2cmst_reg_init
401480a0 g     F .text	0000000d wDev_Set_Beacon_Int
4014d7d8 g     F .text	00000014 tls_connection_set_session_ticket_cb
40093cac g     F .rwtext.wifi	00000078 ppRegressAmpdu
4015c49c g     F .text	0000001a eap_peer_tls_reauth_init
401616d8 g     F .text	0000007e wpabuf_resize
3ff80000 g       *ABS*	00000000 _rtc_dummy_end
40080a44 g     F .rwtext	00000000 __default_naked_level_4_interrupt
4012da0c  w    F .text	00000316 ieee80211_assoc_resp_construct
4012dd30 g     F .text	00000312 ieee80211_auth_construct
40090ed8 g     F .rwtext.wifi	0000001b bb_wdt_timeout_clear
40139354 g     F .text	0000001e cnx_update_bss
4004ab14 g       *ABS*	00000000 lld_pdu_pack
40137500 g     F .text	0000001f cnx_sta_connect_led_timer_cb
4011cd74 g     F .text	00000178 wifi_mode_set
4008c4d0 g     F .rwtext.wifi	0000002a coex_ble_lld_last_terminate_evt_wait_set
40088260 g     F .rwtext.wifi	000002ae pm_update_next_tbtt
40119f08 g     F .text	0000040a r_ecc_generate_key256_with_check
40131860 g     F .text	0000005b clear_bss_queue
40142e94 g     F .text	00000014 ic_register_pm_tx_null_cb
40100840 g     F .text	0000002d esp_wifi_free_internal_heap
3ffc148a  w    O .data	0000000a coex_schm_ble_default_bt_idle_wifi_connecting
4012cb18 g     F .text	00000135 ieee80211_send_setup
3ffd906a g     O .bss	00000028 lld_con_term_info
3ffd943b g     O .bss	00000001 lr_enable
40144598 g     F .text	00000035 pm_send_probe_start
3ffd900c g     O .bss	0000001c lc_lmp_msg_stored_num
40159cbc g     F .text	0000003e eap_get_phase2_type
40166a98 g     F .text	0000005b rsn_cipher_put_suites
40163784 g     F .text	00000039 challenge_hash
4015c530 g     F .text	000000e5 eap_peer_select_phase2_methods
4010dc2c g     F .text	0000000b btdm_controller_set_sleep_mode
400fa060 g     F .text	00000000 TIMER2
4012bfd4 g     F .text	00000064 ieee80211_adjust_2nd_chan
4011a4b0 g     F .text	00000011 coex_event_duration_get
40084c10 g     F .rwtext.wifi	00000014 wdev_mac_special_reg_store
40166164 g     F .text	000000ca phy_rfcal_data_check
401254b4 g     F .text	00000024 wifi_hmac_init
4012be18 g     F .text	00000038 wifi_nvs_commit
40136ffc g     F .text	00000030 chm_end_op
400926ac g     F .rwtext.wifi	0000000d hal_mac_interrupt_get_event
4013d580 g     F .text	00000022 ram_bb_bss_bw_40_en
4013ce54 g     F .text	000000c5 set_channel_rfpll_freq
3ff80000 g       *ABS*	00000000 _rtc_fast_bss_end
4011a514 g     F .text	0000000a coex_enable
40166238 g     F .text	00000005 pm_force_scan_unlock
4011b560 g     F .text	00000021 wifi_api_unlock
4002e4c8 g       *ABS*	00000000 lc_set_encap_pdu_data_p192
4015f198 g     F .text	0000001e eap_fast_put_tlv_buf
4012a7a4 g     F .text	0000000f nan_dw_end_process
40145978 g     F .text	000001c6 pm_stop
4000cd4c g     F *ABS*	00000092 .hidden __moddi3
4012aeb8 g     F .text	0000024c nan_sd_receive_ctrl
4014d1bc g     F .text	0000000a wps_get_wps_sm_cb
40153020 g     F .text	00000018 omac1_aes_128
4010067c g     F .text	00000038 strnlen
4013f91c g     F .text	000002f7 phy_rfcal_data_check_value
3ffc2194 g     O .data	00000060 g_pp_timer_info
4012b1fc g     F .text	0000008a nan_sdf_txcb
401487e8 g     F .text	00000100 wDev_IndicateCtrlFrame
40111800 g     F .text	00000048 llc_defalut_state_tab_reset
4008aadc g     F .rwtext.wifi	00000022 r_huart_trans_isr
4010093c g     F .text	0000002f fclose
3ffd942d g     O .bss	00000001 phy_sw_set_chan_en
4010ddd0 g     F .text	000000e7 coex_schm_wifi_channel_change_btdm_set_afh
401267c0 g     F .text	000000c8 is_esp_mesh_assoc
40160df4 g     F .text	0000004e wpa_sm_set_ap_rsnxe
401430fc g     F .text	00000008 ic_reset_tbtt
4014d490 g     F .text	00000042 tls_init
400fa060 g     F .text	00000000 TIMER1
4011a82c g     F .text	00000035 coex_core_register_cb
4003ebe4 g       *ABS*	00000000 ld_pscan_frm_cbk
4008f1b8 g     F .rwtext.wifi	0000001e r_rwbtdm_isr
40135a0c g     F .text	00000010 esp_wifi_ap_get_prof_authmode_internal
40088834 g     F .rwtext.wifi	00000096 i2c_bt_filter_set
401112e0 g     F .text	00000046 llc_peer_conn_param_req_not_support_clear
4014d10c g     F .text	0000000a wpa_sm_free_eapol
3ffd9ca0 g     O .bss	00000004 btdm_pwr_state
4014f624 g     F .text	00000043 tlsv1_client_send_alert
40148e54 g     F .text	0000006c hal_agreement_del_rx_ba
40119b18 g     F .text	0000000e sdk_config_set_bt_sleep_mode
40138254 g     F .text	0000005f cnx_clear_blacklist
4001c948 g       *ABS*	00000000 r_lc_init
40142e64 g     F .text	0000000c ic_register_pp_tx_done_cb
3ffc2a04 g     O .data.wifi	00000004 g_intr_lock_mux
401148cc g     F .text	00000042 r_lld_scan_stop_hack
3ffc1c9c g     O .data	00000001 wifi_txband_ht40
3ffdb584 g     O .bss	00000001 he_dcm_max_constellation_tx
40128894 g     F .text	0000013d nan_dp_parse_availability
40166538 g     F .text	00000005 supplicant_sta_disconn_handler
401122a8 g     F .text	00000283 r_lld_evt_elt_delete
401277c4 g     F .text	00000030 nan_sched_avail_entries_len
4000c7e8 g     F *ABS*	0000002f .hidden __clzsi2
40032bc0 g       *ABS*	00000000 ld_acl_rsw_end
3ffc176a  w    O .data	0000000a coex_schm_all_default
40165bc0 g     F .text	00000005 config_ble_lm_task_funcs_reset
40142dc0 g     F .text	00000011 ic_tx_pkt
40135b48 g     F .text	00000016 esp_wifi_sta_disable_sae_pk_internal
40145de8 g     F .text	00000016 pm_coex_reconnect_policy
40084d7c g     F .rwtext.wifi	0000002c hal_mac_tx_config_timeout
401380dc g     F .text	0000002c cnx_check_bssid_in_blacklist
3ffaff10 g       *ABS*	00000000 _data_end_btdm
3ffc247c g     O .data	0000001c trc_ctl
4014d1c8 g     F .text	0000000a hostapd_get_hapd_data
401531e8 g     F .text	000000ac crypto_cipher_init
40080000 g       *ABS*	00000000 _init_start
40138490 g     F .text	00000039 cnx_rc_search
40114894 g     F .text	00000032 r_lld_adv_stop_hack
3ffb8d5d g       *ABS*	00000000 dbg_state
3ffd9218 g     O .bss	00000001 g_beacon_idx
40138b38 g     F .text	00000220 cnx_sta_connect_cmd
4012cae4 g     F .text	00000025 ieee80211_output_init
40092848 g     F .rwtext.wifi	00000062 ieee80211_align_eb
3ffc1c7c g     O .data	00000004 tx_rf_ana_gain
4014338c g     F .text	0000000a ic_get_pp_hdl
4012fb94 g     F .text	000000c9 pwrsave_flushq
40138a00 g     F .text	00000052 cnx_start_handoff_cb
4010096c g     F .text	00000094 strdup
3ffb94ec g       *ABS*	00000000 lc_env
40119220 g     F .text	000000e8 r_rf_rw_le_init
40161a00 g     F .text	00000079 asn1_parse_oid
3ffc13d2  w    O .data	0000000e coex_schm_ble_mesh_config_bt_default_wifi_conn
40119aec g     F .text	00000012 sdk_config_set_opts
40154964 g     F .text	000010eb SHA1Transform
4015fbb8 g     F .text	0000026b wpa_supplicant_process_1_of_4
4000c804 g       *ABS*	00000000 __ffssi2
401375ec g     F .text	0000000e cnx_connect_timeout
3ffb824c g       *ABS*	00000000 ld_sco_env
40166508 g     F .text	00000016 wpa_ap_get_peer_spp_msg
4004c9f8 g       *ABS*	00000000 r_llm_init
40153004 g     F .text	00000019 omac1_aes_128_vector
40114d7c g     F .text	000001f2 r_lld_move_to_master_hack
4013ff60 g     F .text	0000003d phy_set_most_tpw
4015f9a4 g     F .text	00000103 wpa_supplicant_send_2_of_4
4015f248 g     F .text	0000001d eap_fast_derive_eap_msk
4010edb0 g     F .text	00000019 r_eif_init
401006b4 g     F .text	0000006e sleep
4014a390 g     F .text	00000050 hal_mac_get_txq_pmd
4013d718 g     F .text	0000015b ram_gen_rx_gain_table
40154804 g     F .text	00000031 md5_vector
3ffd9244 g     O .bss	00000004 g_wifi_global_lock
4000c938 g     F *ABS*	00000066 .hidden __floatunsidf
4011b584 g     F .text	00000023 wifi_init_completed
40146b94 g     F .text	0000000a ppGetTaskHdl
400fa060 g     F .text	00000000 I2C_EXT1
40026930 g       *ABS*	00000000 lmp_sco_link_req_handler
3ffb82e4 g       *ABS*	00000000 ld_inq_env
400900f0 g     F .rwtext.wifi	000000d8 ram_chip_i2c_readReg
4000c8b0 g     F *ABS*	00000092 .hidden __floatundisf
4000178c g       *ABS*	00000000 open
3ffd9160 g     O .bss	00000004 g_waking_sleeping_sem
4012e35c g     F .text	00000060 ieee80211_amsdu_encap_check
3ffc15b6  w    O .data	0000000a coex_schm_bt_default_wifi_connecting
4012c834 g     F .text	00000081 ieee80211_empty_txq
40148180 g     F .text	000000fb wdev_csi_rx_process
4014cf78 g     F .text	0000001a esp_supplicant_deinit
4008ec38 g     F .rwtext.wifi	0000000b sdk_config_get_bt_sleep_enable
40119cfc g     F .text	00000042 vhci_notify_host_send_available
40135ae0 g     F .text	0000001b esp_wifi_sta_get_rsnxe
3ffdc8a0 g     O .bss	0000005e chip7_phy_init_ctrl
40002c98 g       *ABS*	00000000 __addvsi3
40084eb0 g     F .rwtext.wifi	00000023 hal_mac_is_low_rate_enabled
40148284 g     F .text	00000070 wdev_set_promis_misc_pkt
4014c9f4 g     F .text	0000003a esp_eap_client_set_password
40093590 g     F .rwtext.wifi	0000004d ppRecycleRxPkt
40033944 g       *ABS*	00000000 ld_acl_evt_canceled_cbk
4000244c g     F *ABS*	00000031 .hidden __fixsfdi
40148b98 g     F .text	00000082 wDev_Insert_KeyEntry
400933d4 g     F .rwtext.wifi	000001a8 pm_tx_data_process
40082b54 g     F .rwtext.wifi	0000004d cnx_node_is_existing
401493d4 g     F .text	0000003c hal_crypto_disable
40146d20 g     F .text	00000049 RC_GetCtsTime
4014dc7c g     F .text	00000008 tlsv1_client_global_deinit
40162da8 g     F .text	00000018 bignum_mul
3ffc1534  w    O .data	0000000e coex_schm_ble_mesh_traffic_bt_conn_wifi_connecting
401410b8 g     F .text	00000679 pbus_rx_dco_cal_1step
40091080 g     F .rwtext.wifi	00000072 phy_close_rf
400017f4 g       *ABS*	00000000 sbrk
4002657c g       *ABS*	00000000 lmp_pref_rate_handler
401101b8 g     F .text	00000030 lc_sco_get_sync_type
400024ac g     F *ABS*	00000059 .hidden __fixunssfsi
400468e4 g       *ABS*	00000000 lld_evt_elt_wait_get
3ffc1dc4 g     O .data	00000004 pTxRx
40163ac4 g     F .text	0000002c new_password_encrypted_with_old_nt_password_hash
4010c898 g     F .text	00000000 __pre_init
4012c80c g     F .text	00000024 ieee80211_recycle_cache_eb
4014342c g     F .text	0000000a ic_txq_empty
4015dbec g     F .text	0000002d eap_fast_get_pac
3ffd8fd0 g     O .bss	00000001 g_sleep_exception
3ff80000 g       *ABS*	00000000 _rtc_fast_persistent_end
4013ad78 g     F .text	00000083 ccmp_encap
400101ec g       *ABS*	00000000 r_bt_util_buf_lmp_tx_free
40166548 g     F .text	00000005 esp_set_assoc_ie
40002e78 g       *ABS*	00000000 __negvsi2
4010ee60 g     F .text	00000023 r_eif_send
400fa060 g     F .text	00000000 TG1_T1_LEVEL
40149204 g     F .text	00000017 hal_crypto_is_key_valid
4011af98 g     F .text	00000082 coex_schm_status_bit_clear
401665b4 g     F .text	00000011 tlsv1_client_established
400906f8 g     F .rwtext.wifi	0000006f i2c_write_master
400632c8 g     F *ABS*	00000031 .hidden __mulsf3
40125880 g     F .text	00000042 wifi_connect_process
4015faa8 g     F .text	0000006c wpa_supplicant_pairwise_gtk
40142e00 g     F .text	0000000e ic_ebuf_recycle_rx
4012fd70 g     F .text	0000003a ieee80211_wme_updateparams
400101d0 g       *ABS*	00000000 r_bt_util_buf_lmp_tx_alloc
3ffda4ac g     O .bss	000002a8 g_ic
40137dd0 g     F .text	0000000e cnx_auth_timeout
4000c674 g       *ABS*	00000000 strstr
4008abb0 g     F .rwtext.wifi	00000058 ke_lmp_rx_flooding_detect
40126560 g     F .text	0000001e wifi_on_coex_start_process
401301e0 g     F .text	00000026 ieee80211_regdomain_max_chan
4015fe74 g     F .text	00000076 wpa_sm_notify_assoc
40160dd4 g     F .text	0000001f wpa_sta_clear_curr_pmksa
3ffc1414  w    O .data	0000000a coex_schm_ble_mesh_config_bt_iscan_wifi_conn
40142c48 g     F .text	00000028 ic_disable_crypto
40145f48 g     F .text	00000049 ppRegisterTxCallback
3ffdc900 g     O .bss	00000010 phy_rxbb_dc
401636c8 g     F .text	000000bb aes_ccm_ad
3ffdc910 g     O .bss	00000004 adc_ana_conf_org
40139a8c g     F .text	00000090 cnx_beacon_timeout_process
401227d0 g     F .text	000005d2 ieee80211_parse_beacon
40161af4 g     F .text	00000042 asn1_bit_string_to_long
40130788 g     F .text	0000000f scan_set_pas_duration
40128bfc g     F .text	0000007f nan_parse_ndp_confirm
40140c10 g     F .text	00000097 ram_iq_est_enable
4013d100 g     F .text	000002a3 ram_set_pbus_mem
40138d60 g     F .text	0000007c cnx_connect_timeout_process
4015c618 g     F .text	00000047 eap_peer_tls_phase2_nak
400875e8 g     F .rwtext.wifi	0000001e ppEnqueueRxq
3ffc1c75 g     O .data	00000001 phy_wifi_pll_track_en
401591f4 g     F .text	00000032 wpa_compare_rsn_ie
40092094 g     F .rwtext.wifi	0000000f lmacProcessCollisions
3ffc1c44 g     O .data	00000018 tkip
401582f8 g     F .text	00000038 hostap_eapol_resend_process
3ffd9054 g     O .bss	00000001 lld_scan_to_connected
401366d0 g     F .text	00000010 esp_wifi_set_wpa2_ent_state_internal
4014d5fc g     F .text	00000028 tls_connection_export_key
40091ffc g     F .rwtext.wifi	00000018 wifi_11g_rate_chg
4014d678 g     F .text	0000005e tls_connection_handshake2
401305bc g     F .text	000000a3 ieee80211_scan_attach
40130220 g     F .text	0000001c ieee80211_regdomain_min_chan
40166f10 g     F .text	00000055 cipher_type_map_public_to_supp
4015ffa8 g     F .text	000000a8 wpa_set_passphrase
4016361c g     F .text	000000a9 aes_ccm_ae
40118aa4 g     F .text	000000a1 hci_host_nb_cmp_pkts_cmd_handler
4014d970 g     F .text	000001b8 tlsv1_client_handshake
40165bd0 g     F .text	0000001a ble_txpwr_lvl_range_get
40128cc0 g     F .text	00000138 nan_rx_naf
4015a018 g     F .text	0000019f eap_peer_config_init
4014349c g     F .text	0000001d lmacIsLongFrame
3ffd9734 g     O .bss	00000004 g_wdev_csi_rx
40166c7c g     F .text	00000046 eap_hdr_len_valid
4013a008  w    F .text	000001e0 cnx_node_leave
40135aa8 g     F .text	00000038 esp_wifi_get_config_sae_pwe_h2e_internal
401442f4 g     F .text	00000013 pm_noise_check_enable
3ffd9c88 g     O .bss	0000000c llm_elt
40135ca0 g     F .text	00000016 esp_wifi_sta_set_reset_param_internal
400fa060 g     F .text	00000000 level5_interrupt
40156284 g     F .text	0000002b sha384_done
401668f8 g     F .text	00000007 crypto_global_init
40049190 g       *ABS*	00000000 r_lld_scan_stop
3ffd98a8 g     O .bss	00000004 g_wpa_private_key_passwd_len
4008ec68 g     F .rwtext.wifi	00000043 btdm_task_post_from_isr
40157a78 g     F .text	00000036 wpa_remove_ptk
4012f6ac g     F .text	0000005d ieee80211_phy_mode_show
40135970 g     F .text	00000023 wifi_sta_connect_internal_process
401128ec g     F .text	0000001a lld_evt_adv_delay_time
3ffb9510 g       *ABS*	00000000 ld_env
4014ced0 g     F .text	00000008 wpa_neg_complete
40080280 g     F .vectors	00000000 _Level6InterruptVector
4010deb8 g     F .text	00000033 config_ble_funcs_reset
3ffc1c74 g     O .data	00000001 dreg_1p2_set
40111f94 g     F .text	0000013e r_lld_evt_schedule_next
40083994 g     F .rwtext.wifi	0000005b ppCalFrameTimes
3ff9912a g       *ABS*	00000000 nvds_magic_number
4008f43c g     F .rwtext.wifi	0000001c coex_timer_ts_start_handler
4008f228 g     F .rwtext.wifi	0000000a coex_bb_reset_lock
4000d4f4 g       *ABS*	00000000 _data_start_btdm_rom
4010dc74 g     F .text	0000000e coex_schm_wifi_channel_changed_flag_set
4014a480 g     F .text	00000059 hal_mac_rate_autoack_init
40086580 g     F .rwtext.wifi	0000004a sta_reset_beacon_timeout
40092934 g     F .rwtext.wifi	00000178 ieee80211_output_do
40112848 g     F .text	0000000e btdm_enable_scan_forever
401430c0 g     F .text	0000000b ic_del_rx_ba
40143a8c g     F .text	0000017f lmacProcessLongRetryFail
40126790 g     F .text	00000021 config_get_wifi_task_stack_size
40135b64 g     F .text	00000037 esp_wifi_enable_sae_pk_only_mode_internal
40165e04  w    F .text	00000007 adc2_wifi_acquire
4000c864 g     F *ABS*	0000005b .hidden __floatunsisf
4013ef50 g     F .text	000000b8 bb_init
4008ab10 g     F .rwtext.wifi	00000097 r_huart_isr
4008d220 g     F .rwtext.wifi	0000000e lld_pdu_is_retry_set
40015e8c g       *ABS*	00000000 SubtractBigHexMod256
40162d64 g     F .text	00000011 bignum_cmp
3ffdc914 g     O .bss	00000001 set_most_tpw
4010cc78  w    F .text	00000052 .hidden __multi3
40159274 g     F .text	0000017b wpa_pmk_to_ptk
40142d00 g     F .text	00000050 ic_get_key
40130760 g     F .text	00000013 scan_hidden_ssid
4012110c g     F .text	00000035 ieee80211_ht_node_cleanup
40121bf4 g     F .text	0000003c ieee80211_add_htinfo
4008ee68 g     F .rwtext.wifi	00000053 vhci_flow_on
400fb598 g     F .text	00000100 __assert_func
4008a09c g     F .rwtext.wifi	0000003d r_co_nb_good_channels
401269d0 g     F .text	00000011 nan_action_frames_queued
400fa060 g     F .text	00000000 TG0_LACT_EDGE
401430cc g     F .text	00000014 ic_reset_rx_ba
3ffb976c g       *ABS*	00000000 llm_le_env
4014a0a0 g     F .text	00000088 mac_tx_set_plcp1
40002e98 g       *ABS*	00000000 __negvdi2
4008d378 g     F .rwtext.wifi	000004e5 r_lld_pdu_rx_handler
4000c7d0 g     F *ABS*	00000031 .hidden __umodsi3
4012f848 g     F .text	000000a0 ieee80211_phy_init
401111a8 g     F .text	00000018 config_llc_llcp_funcs_reset
40146d08 g     F .text	00000017 RC_GetAckTime
40145b74 g     F .text	00000115 pm_attach
4014a13c g     F .text	0000006a mac_tx_set_plcp2
4015c054 g     F .text	000000a3 eap_peer_tls_derive_session_id
40145594 g     F .text	00000012 pm_send_sleep_null_cb
4005cfec g       *ABS*	00000000 crc32_le
3ffc13ba  w    O .data	0000000e coex_schm_ble_mesh_traffic_bt_conn_wifi_conn
3ffc223c g     O .data	00000060 rcP2P11GSchedTbl
4014a898 g     F .text	00000204 BT_init_rx_filters
40137e20 g     F .text	000000d4 cnx_csa_fn_process
40088e10 g     F .rwtext.wifi	0000008a set_chan_rxcomp
40142e4c g     F .text	0000000c ic_register_timer_post_cb
40002d20 g       *ABS*	00000000 __subvdi3
40165f5c  w    F .text	00000058 ieee80211_is_bufferable_mmpdu
4015f47c g     F .text	000000d3 pmksa_cache_add
401475cc g     F .text	00000008 rc_get_G6M_sched
40143314 g     F .text	0000001b ic_disable_rx
4008872c g     F .rwtext.wifi	00000106 bb_bss_cbw40_ana
401366e0 g     F .text	0000000e esp_wifi_sta_pmf_enabled
40149428 g     F .text	000000a0 mac_tx_set_plcp0
40166008 g     F .text	00000024 scan_check_hidden
3ffc131c  w    O .data	0000000a coex_schm_ble_default_bt_default_wifi_conn
4011deb0 g     F .text	0000001e ap_rx_cb
4002b170 g       *ABS*	00000000 lmp_sp_cfm_handler
4015124c g     F .text	00000013 x509_name_string
40166240 g     F .text	00000023 getle32
4008c530 g     F .rwtext.wifi	00000b93 r_lld_evt_restart
40165de4 g     F .text	00000018 ieee80211_is_lr_only
4008865c g     F .rwtext.wifi	0000001a wdev_csi_len_align
3ffd9c94 g     O .bss	0000000a host_ch_class
4010c908 g     F .text	00000027 default_mem_hook
400fa060 g     F .text	00000000 UHCI1
40086508 g     F .rwtext.wifi	00000078 wifi_rf_phy_disable
40163b14 g     F .text	0000003b old_nt_password_hash_encrypted_with_new_nt_password_hash
4012c340 g     F .text	0000001d wifi_nvs_validate_ap_num
4013708c g     F .text	00000035 chm_acquire_lock
4014ad84 g     F .text	0000008e force_wifi_mode
4011b46c g     F .text	0000006f esp_wifi_set_inactive_time_local
3ffc13f8  w    O .data	0000000e coex_schm_ble_mesh_config_bt_a2dp_paused_wifi_conn
3ffb93cc g       *ABS*	00000000 ke_env
4011b0c0 g     F .text	0000003a coex_wifi_channel_set
4012c944 g     F .text	00000089 ieee80211_copy_eb_header
401265fc g     F .text	0000017e ieee80211_ioctl
40084fa4 g     F .rwtext.wifi	00000017 trc_tid_isTxAmpduOperational
40137ef4 g     F .text	00000108 cnx_validate_owe_bss
4008e074 g     F .rwtext.wifi	00000077 ble_master_soft_rst
40083eb0 g     F .rwtext.wifi	0000012d ppProcessTxQ
40146ba0 g     F .text	00000012 dbg_lmac_ps_statis_reset
4012abc0 g     F .text	0000005f nan_insert_peer_svc_record
40080950 g     F .rwtext	00000000 __naked_double_exception
40026354 g       *ABS*	00000000 lmp_max_pwr_handler
4013d098 g     F .text	0000001f chip_v7_set_chan_ana
4012f624 g     F .text	0000000a ieee80211_phy_deinit
4012d018 g     F .text	0000001e ieee80211_add_assoc_resp_ies
400fdb18 g     F .text	00000035 ets_timer_arm
40158330 g     F .text	0000002b wpa_deinit
40146c68 g     F .text	0000000f pp_timer_register_post_cb
40026b54 g       *ABS*	00000000 lmp_timing_accu_req_handler
4014cc38 g     F .text	00000024 wpa_deattach
40063c90 g       *ABS*	00000000 __muldc3
4014d54c g     F .text	00000010 tls_connection_shutdown
401219a8 g     F .text	0000008c ieee80211_setup_basic_htrates
4014c928 g     F .text	00000011 esp_eap_client_clear_ca_cert
400920b4 g     F .rwtext.wifi	0000000f lmacPostTxComplete
4014430c g     F .text	00000037 pm_enable_sleep_delay_timer
4011c93c g     F .text	000000a8 wifi_create_nan
40088678 g     F .rwtext.wifi	00000020 wDev_DiscardFrame
4008932c g     F .rwtext.wifi	00000107 bb_reg_init
4010ef98 g     F .text	0000001e config_hci_msg_funcs_reset
3ffd9c2c g     O .bss	00000007 is_acl_u_dm1_enabled
401617b4 g     F .text	0000001c wpabuf_free
40159e60 g     F .text	0000005f eap_sm_build_identity_resp
4011bd3c g     F .text	0000002a esp_wifi_get_mode
3ffc1460  w    O .data	0000000a coex_schm_bt_conn_wifi_conn
3ff99159 g       *ABS*	00000000 rwip_priority
401223f4 g     F .text	000000dc ieee80211_setup_rates
4002b6b0 g       *ABS*	00000000 lmp_tempkey_handler
4013c49c g     F .text	000000e2 bt_i2c_set_wifi_data
40147fb4 g     F .text	000000c8 rc_enable_trc
40130298 g     F .text	00000010 ieee80211_rfid_locp_recv_reset
40166fac g     F .text	00000005 asn1_unexpected
401665d8 g     F .text	0000001e tlsv1_client_get_keyblock_size
40139704 g     F .text	0000037f cnx_update_bss_more
3ffdabb4 g     O .bss	000004c4 s_sd
40125b68 g     F .text	0000000b wifi_wps_is_started
40155a50 g     F .text	00000024 SHA1Init
4008bd58 g     F .rwtext.wifi	00000062 r_lld_evt_init_evt
400fa060 g     F .text	00000000 UHCI0
40089fa0 g     F .rwtext.wifi	00000014 btdm_controller_is_enabled
4000c53c g       *ABS*	00000000 strchr
40085c28 g     F .rwtext.wifi	0000001c pm_on_data_rx
3ffdb078 g     O .bss	00000504 s_wifi_nvs
3ffdc7d8 g     O .bss	00000014 sta_con_timer
40156994 g     F .text	000000f5 eloop_register_timeout
40090fcc g     F .rwtext.wifi	00000039 phy_wifi_enable_set
40115054 g     F .text	000003e3 r_lld_scan_start
4013b9cc g     F .text	0000002f i2c_bias_init
40136288 g     F .text	00000150 esp_wifi_set_ap_key_internal
40002504 g     F *ABS*	0000007a .hidden __fixunssfdi
40143670 g     F .text	000000c7 lmacDiscardMSDU
4012775c g     F .text	00000066 nan_sched_reset_avail_flags_sdf
40128ed0 g     F .text	00000068 nan_dp_deinit
4013ca6c g     F .text	000000d4 write_wifi_chan_data
3ffc1624  w    O .data	0000000a coex_schm_ble_mesh_standby_bt_sniff_wifi_scan
401533d0 g     F .text	0000015b crypto_cipher_decrypt
40112a60 g     F .text	0000009a coex_schm_ble_scan_stop
4015f170 g     F .text	00000026 eap_fast_put_tlv_hdr
3ffc2a14 g     O .data.wifi	00000080 eb_txdesc_space
400fa060 g     F .text	00000000 RTC_CORE
40115034 g     F .text	00000015 esp_ble_scan_channel_setting
4015dd04 g     F .text	0000026a eap_fast_load_pac
40117418 g     F .text	000001fa r_llm_set_adv_en
40119ed8 g     F .text	00000018 API_vhci_host_register_callback
4002fb40 g       *ABS*	00000000 ld_acl_tx_packet_type_select
4011e630 g     F .text	00000086 ap_sa_query_timeout_process
4013fc20 g     F .text	00000076 reset_rf_dig
3ffdcd0c g       *ABS*	00000000 _bss_end
4008eb2c g     F .rwtext.wifi	00000072 r_rwip_wakeup
40083860 g     F .rwtext.wifi	00000124 ppProcTxSecFrame
401663a4 g     F .text	00000011 trc_calc_duration
40146544 g     F .text	0000015d pp_create_task
40090eac g     F .rwtext.wifi	0000002a bb_wdt_int_enable
401255b0 g     F .text	00000022 wifi_deinit
40159168 g     F .text	00000036 wpa_use_aes_key_wrap
40080b34 g     F .rwtext	00000000 __default_naked_level_7_interrupt
40084ee0 g     F .rwtext.wifi	00000033 hal_mac_deinit
40142e10 g     F .text	0000000e esp_wifi_internal_free_rx_buffer
40146258 g     F .text	000000f2 ppFillAMPDUBar
3f412380 g     O .rodata	00000006 NAN_STANDARD_BSSID
40165e1c g     F .text	00000056 nan_dp_alloc_ndp
50000000 g       *ABS*	00000000 _rtc_slow_data_end
4008f6e8 g     F .rwtext.wifi	000002d8 coex_force_wifi_mode
40093bf8 g     F .rwtext.wifi	00000049 ppDirectRecycleAmpdu
40091510 g     F .rwtext.wifi	00000132 get_rate_fcc_index
4014449c g     F .text	00000031 pm_disconnected_wake
400850fc g     F .rwtext.wifi	00000089 ampdu_dispatch_all
40162c58 g     F .text	0000001e bignum_get_unsigned_bin_len
401432cc g     F .text	0000002c ic_clear_interrupt_handler
40130540 g     F .text	00000024 ieee80211_scan_deattach
3ff98b68 g       *ABS*	00000000 lld_pdu_llcp_pk_desc_tab
3ffda7c8 g     O .bss	00000068 g_wifi_menuconfig
40166264 g     F .text	00000020 putle32
401479b4 g     F .text	000001f2 rcUpdateRate
400020e8 g     F *ABS*	00000031 .hidden __addsf3
3ffd942a g     O .bss	00000002 rfpll_offset_delta
40127c74 g     F .text	00000084 nan_dp_alloc_ndl
40119e3c g     F .text	00000074 r_vhci_init
4014d1d4 g     F .text	000001b2 hostap_init
40089a98 g     F .rwtext.wifi	00000025 ram_tx_pwctrl_bg_init
40026790 g       *ABS*	00000000 lmp_qos_handler
400265f0 g       *ABS*	00000000 lmp_ver_req_handler
3ff80000 g       *ABS*	00000000 _rtc_fast_data_end
40148368 g     F .text	00000088 wdev_process_misc_pkt
40165aac g     F .text	00000007 slv_ana_v7_init_empty
4011017c g     F .text	00000010 config_ke_task_funcs_reset
4012c2f4 g     F .text	0000004b wifi_nvs_validate_ap_chan
4011bd00 g     F .text	0000003c esp_wifi_set_mode
40083a04 g     F .rwtext.wifi	000001db ppTxPkt
401433c8 g     F .text	0000000b ic_set_sta_auth_flag
4012f5ec g     F .text	00000037 ieee80211_pm_tx_null_process
4015f618 g     F .text	0000006f pmksa_cache_set_current
40139424 g     F .text	0000011c mgd_probe_send_timeout_process
4008345c g     F .rwtext.wifi	00000023 ppResumeTxAMPDU
3ffc16d4  w    O .data	0000000a coex_schm_ble_mesh_config_bt_sniff_wifi_scan
4014d188 g     F .text	00000031 esp_supplicant_common_init
4013b568 g     F .text	00000010 phy_change_channel_nomac
40122ed4 g     F .text	00000025 ieee80211_better_rsn_pairwise_cipher
401496c0 g     F .text	0000005e mac_rxbuf_init
40144250 g     F .text	00000022 pm_is_sleeping
40102ffc g     F .text	00000060 misc_nvs_deinit
4011c194 g     F .text	000000ae esp_wifi_vnd_lora_enable
400902f4 g     F .rwtext.wifi	00000087 wifi_track_pll_cap
400fa060 g     F .text	00000000 GPIO_NMI
4014d5e4 g     F .text	00000016 tls_connection_get_random
40147d1c g     F .text	0000001e rc_disable_trc_by_interface
4014c8d4 g     F .text	00000035 esp_eap_client_clear_certificate_and_key
4013667c g     F .text	00000052 esp_wifi_sta_wpa2_ent_disable_internal
4004c920 g       *ABS*	00000000 llm_hci_cmd_handler_tab_p_get
40145d1c g     F .text	0000009c pm_set_sleep_type
40093160 g     F .rwtext.wifi	000000ea lmacProcessTxSuccess
40143174 g     F .text	000000a8 ic_set_trc
3ffd919c g     O .bss	00000004 g_rw_schd_queue
4014bff4 g     F .text	00000065 os_mktime
401367e8 g     F .text	0000001a ieee80211w_get_active_igtk_key_id
3ffc2498 g     O .data	00000004 BcnInterval
40165dfc g     F .text	00000007 ieee80211_setup_rateset
400fa060 g     F .text	00000000 TWAI0
4008fa7c g     F .rwtext.wifi	00000026 coex_timer_ts_end_alarm
3ffc1326  w    O .data	0000000a coex_schm_ble_default_bt_a2dp_wifi_conn
40151fe0 g     F .text	00000123 x509_certificate_chain_validate
4010df54 g     F .text	0000002a r_dbg_init
401154f0 g     F .text	0000008d config_lld_funcs_reset
4014a6ac g     F .text	0000002b hal_sniffer_rx_clr_statistics
3ffd9318 g     O .bss	00000004 s_netstack_free
401407c4 g     F .text	000000d0 ram_txiq_get_mis_pwr
40054358 g       *ABS*	00000000 nvds_init_memory
40158770 g     F .text	00000048 wpa_add_kde
40129f2c g     F .text	00000126 nan_master_event_hdlr
40165c3c g     F .text	00000007 coex_core_init
4008df5c g     F .rwtext.wifi	00000071 r_rf_rw_le_bb_reg_init
401492d8 g     F .text	00000035 hal_crypto_init
40132f0c g     F .text	0000000d wifi_sta_reg_rxcb
40115588 g     F .text	0000025a r_lld_pdu_check
400185bc g       *ABS*	00000000 r_hci_send_2_host
40135fe4 g     F .text	00000014 ieee80211_sta_is_connected
40088698 g     F .rwtext.wifi	00000029 pp_hdrsize
40143414 g     F .text	00000016 ic_stop_sw_txq
40158c58 g     F .text	00000025 ap_get_sta
4015f220 g     F .text	00000028 eap_fast_derive_key
400fa060 g     F .text	00000000 TG1_T1_EDGE
40086750 g     F .rwtext.wifi	00000054 pm_sleep_for
3ffd943a g     O .bss	00000001 corr_cca_thr
4010ef0c g     F .text	00000046 r_hci_look_for_cmd_desc_hack
40158c80 g     F .text	00000073 ap_free_sta
3ffc137c  w    O .data	0000000a coex_schm_ble_mesh_standby_bt_iscan_wifi_conn
4012fff0 g     F .text	00000160 ieee80211_regdomain_update
40135ba4 g     F .text	00000046 esp_wifi_sta_disable_owe_trans_internal
40152120 g     F .text	0000001a x509_certificate_self_signed
400fa060 g     F .text	00000000 SDIO_HOST
40163810 g     F .text	0000004a challenge_response
40159d80 g     F .text	0000001b eap_peer_method_alloc
40088028 g     F .rwtext.wifi	00000010 hal_mac_rx_is_dscr_reload
40087484 g     F .rwtext.wifi	00000020 pm_coex_schm_overall_period_get
4014d784 g     F .text	0000001a tls_get_version
4011e8b4 g     F .text	00000fae hostap_recv_mgmt
401638c8 g     F .text	0000007d generate_authenticator_response_pwhash
40110154 g     F .text	00000022 r_ke_task_init
40166808 g     F .text	000000a9 rc4_skip
4011c568 g     F .text	00000049 esp_mesh_get_running_active_duty_cycle
40151260 g     F .text	000000f3 x509_parse_time
3ffdcd0c g       *ABS*	00000000 _stack_end_cpu0
400865d4 g     F .rwtext.wifi	00000138 esf_buf_alloc
40082034 g     F .rwtext	00000000 __exception
40115904 g     F .text	00000013 config_lld_util_funcs_reset
40116418 g     F .text	00000008 config_llm_hci_funcs_reset
40130800 g     F .text	0000002d scan_remove_probe_ssid
40143104 g     F .text	0000000d ic_del_key_all
40123884 g     F .text	00000027 ieee80211_is_ht_cipher
4001c18c g       *ABS*	00000000 lb_hci_cmd_handler_tab_p_get
4011b238 g     F .text	00000036 coex_timer_init
4014c05c g     F .text	0000001c os_memdup
4012a818 g     F .text	00000013 nan_ndc_start_process
40166af4 g     F .text	0000005a wpa_cipher_put_suites
400274f4 g       *ABS*	00000000 lmp_clk_adj_ack_handler
3ffc173a  w    O .data	00000006 coex_schm_bt_sniff_wifi_scan
40165a08 g     F .text	00000035 printf
4015ac30 g     F .text	0000003b eap_peer_mschapv2_register
40126a1c g     F .text	00000013 nan_disc_enable_rx
4014ced8 g     F .text	0000009f esp_supplicant_init
4014d434 g     F .text	0000005b esp_send_assoc_resp
40159228 g     F .text	0000004a rsn_pmkid
3ffd9326 g     O .bss	00000002 scannum
4008fa28 g     F .rwtext.wifi	0000000b coex_ts_end_timer_dislarmed
40149b00 g     F .text	00000059 hal_deinit
400fa060 g     F .text	00000000 RSA
40149b64 g     F .text	00000066 hal_mac_set_addr
40151010 g     F .text	0000023c x509_parse_name
40088c30 g     F .rwtext.wifi	000001ce ram_spur_coef_cfg
40090a0c g     F .rwtext.wifi	0000005d enable_wifi_agc
4012be0c g     F .text	0000000a wifi_nvs_get
4013b7d0 g     F .text	00000096 ram_rfpll_set_freq
40135e64 g     F .text	0000002c ieee80211_get_spp
4012f8e8 g     F .text	00000019 ieee80211_psq_init
4002de30 g       *ABS*	00000000 lmp_stop_enc_req_handler
3ffc1c76 g     O .data	00000001 phy_bt_pll_track_en
3ffb81d4 g       *ABS*	00000000 ke_task_env
40160078 g     F .text	00000062 wpa_sm_set_key
3ffd98b4 g     O .bss	00000004 g_wpa_private_key
3ffd9738 g     O .bss	00000004 g_wdev_is_nan_pkt_in_valid_slot_cb
3ffd943d g     O .bss	00000001 re_entry
40122f04 g     F .text	000000b6 ieee80211_amsdu_negotiate
4000c830 g     F *ABS*	00000035 .hidden __ashrdi3
4008ec48 g     F .rwtext.wifi	0000000b sdk_config_get_bt_pll_track_enable
400449ac g       *ABS*	00000000 r_llc_stop
40034414 g       *ABS*	00000000 ld_acl_frm_cbk
40162e30 g     F .text	000000a9 pkcs1_encrypt
4010fa4c g     F .text	0000001c hci_tl_tx_trigger_on_acl_fc
40084e40 g     F .rwtext.wifi	0000004f hal_mac_tx_get_blockack
4014c108 g     F .text	00000036 esp_wifi_sta_enterprise_disable
40113818 g     F .text	00000b38 r_lld_con_start
40156bd4 g     F .text	0000005a eloop_destroy
40132fa4 g     F .text	0000009c ieee80211_parse_wmeparams
40125fe4 g     F .text	00000477 wifi_set_config_process
3f412118 g     O .rodata	00000008 bt_esp_vs_evt_desc
40136254 g     F .text	00000028 wifi_init_key
40100870 g     F .text	0000004f fwrite
40147450 g     F .text	00000072 rcTxUpdatePer
400909b4 g     F .rwtext.wifi	00000056 disable_wifi_agc
4014f6bc g     F .text	0000001e tls_server_key_exchange_allowed
3ff98d8a g       *ABS*	00000000 LLM_AA_CT1
40144a0c g     F .text	00000238 pm_set_next_tbtt
40136d94 g     F .text	00000030 ieee80211_register_hostap_timer
40165c98 g     F .text	00000005 ieee80211_crypto_attach
40110afc g     F .text	000002bc llcp_length_rsp_pre_handler
40136f68 g     F .text	00000050 chm_mhz2num
3ffc162e  w    O .data	00000016 coex_schm_ble_mesh_standby_bt_a2dp_wifi_scan
40134ca8 g     F .text	0000006a sta_sa_query_process_timeout
3ff98d88 g       *ABS*	00000000 LLM_AA_CT2
3f4121d8 g     O .rodata	0000006c r_plf_funcs_ro
40122eac g     F .text	00000026 ieee80211_rsn_cipher_priority
4012cc58 g     F .text	00000152 ieee80211_tx_mgt_cb
4010c8c0 g     F .text	00000045 Reset
4016648c g     F .text	0000002c wDev_RxSecError
401375fc g     F .text	0000000e cnx_handshake_timeout
4012f2ec g     F .text	000001ee ieee80211_beacon_alloc
3ffc12a8 g     O .data	00000010 eif_api
40093700 g     F .rwtext.wifi	00000142 ppProcTxDone
40130850 g     F .text	000001a9 scan_prefer_chan
4002859c g       *ABS*	00000000 lc_pwr_decr_ind_handler
4011d6ac  w    F .text	00000049 ieee80211_free_beacon_eb
40002cbc g       *ABS*	00000000 __addvdi3
4012cdc0 g     F .text	00000166 ieee80211_classify
40014f88 g       *ABS*	00000000 ea_prog_timer
400fde4c g     F .text	00000150 ets_timer_setfn
4011c494 g     F .text	0000004a esp_wifi_set_inactive_time
400832dc g     F .rwtext.wifi	00000068 ppProcTxCallback
3ffd9445 g     O .bss	00000001 phy_set_most_tpw_disbg
4013cbf4 g     F .text	0000007e rf_init
40143d28 g     F .text	000000b4 lmacProcessAckTimeout
3ffd9448 g     O .bss	00000001 sw_scan_mode
40126fa0 g     F .text	00000127 nan_alloc_sdf
4014350c g     F .text	0000003d lmacInitAc
3ffc1a34 g     O .data	00000004 g_scan
40155bcc g     F .text	000000d7 pbkdf2_sha1
401637c0 g     F .text	00000034 nt_password_hash
4012ac68 g     F .text	0000002f nan_send_replied_event
4014e818 g     F .text	00000506 tlsv1_client_process_handshake
4014766c g     F .text	0000013c rssi_margin
3ffd93f0 g     O .bss	00000001 g_rssi_threshold_failure
4014bfdc g     F .text	00000016 bin_clear_free
4012e2b8 g     F .text	000000a3 ieee80211_amsdu_send_check
40121718 g     F .text	00000031 ieee80211_ht_updatehtcap
40084fdc g     F .rwtext.wifi	0000001e wdev_bank_load
400020c0 g       *ABS*	00000000 __negsf2
40092760 g     F .rwtext.wifi	0000004a chnl_map_check
3ffd942e g     O .bss	00000001 phy_force_wifi_chan_en
4011b058 g     F .text	00000030 coex_schm_curr_phase_get
40092758  w    F .rwtext.wifi	00000008 r_assert
3ffb8348 g       *ABS*	00000000 lm_sync_conf
40140d68 g     F .text	000002eb ram_pbus_rx_dco_cal
400ff4d0 g     F .text	00000097 esp_fill_random
4008fa38 g     F .rwtext.wifi	0000000b coex_ts_start_timer_dislarmed
400fa060 g     F .text	00000000 SPI2_DMA
3ffc28a8 g     O .data.wifi	00000004 coex_bb_rst_mux
40064b08 g     F *ABS*	00000060 .hidden __bswapdi2
4011a330 g     F .text	00000122 r_intc_init
3ffc15d0  w    O .data	0000000a coex_schm_bt_a2dp_paused_wifi_connecting
40164100 g     F .text	000000aa sha1_t_prf
3ff97220 g       *ABS*	00000000 dbg_default_state
4011a78c g     F .text	0000009e coex_core_disable
40149d44 g     F .text	000000ba hal_init
40085a4c g     F .rwtext.wifi	000000ef esf_buf_recycle
4002751c g       *ABS*	00000000 lmp_clk_adj_req_handler
3ffc0000 g       *ABS*	00000000 _sidata
3ffd9426 g     O .bss	00000001 btpwr_atten_offset
4012a7c8 g     F .text	00000013 nan_send_sync_bcn_process
4008d240 g     F .rwtext.wifi	0000000e lld_evt_end_run_flag_set
4014db28 g     F .text	0000002a tlsv1_client_encrypt
4013bcac g     F .text	00000096 write_freq_mem_all
4012d2b0 g     F .text	00000217 ieee80211_mgmt_output
40165d9c g     F .text	00000048 ieee80211_is_support_rate
4013a500 g     F .text	000000c8 cnx_start_obss_scan
4013b4b8 g     F .text	0000003f ieee80211_getmgtframe
40165c4c g     F .text	0000004a ieee80211_is_robust_mgmt_frm
40120784 g     F .text	00000033 ampdu_free_rx_ba_index
40046b3c g       *ABS*	00000000 r_lld_evt_init
4014afac g     F .text	000000ad temprature_sens_read
4014334c g     F .text	0000000d ic_set_bssid
400924a0 g     F .rwtext.wifi	00000182 wDev_ProcessFiq
40142a60 g     F .text	00000015 esf_buf_setdown
400926d0 g     F .rwtext.wifi	0000001b hal_mac_interrupt_clr_watchdog
3ffdca18 g     O .bss	00000011 phy_chan_pwr_index
400fa060 g     F .text	00000000 UART1
40142ebc g     F .text	00000014 ic_register_timer_cb
40083484 g     F .rwtext.wifi	00000023 ppCalSubFrameLength
40081fc0 g     F .rwtext	00000071 rtc_get_xtal
40159da8 g     F .text	0000004a eap_peer_method_register
40141d58 g     F .text	00000055 ram_meas_tone_pwr_db
3ffc13e0  w    O .data	0000000a coex_schm_ble_mesh_config_bt_sniff_wifi_conn
4011b370 g     F .text	000000f2 coex_arbit_deinit
40144ed4 g     F .text	00000010 pm_coex_schm_process_restart
400809f4 g     F .rwtext	00000000 __naked_level_3_interrupt
40137474 g     F .text	0000003e chm_start_op
4010df84 g     F .text	00000010 config_dbg_funcs_reset
4014297c g     F .text	0000004a esf_buf_setup_static
401333a0 g     F .text	00000082 wifi_station_stop
4014ca30 g     F .text	00000018 esp_eap_client_clear_password
40161a7c g     F .text	0000002e asn1_get_oid
4013cc94 g     F .text	000001b3 set_chan_freq_sw_start
3ffc1604  w    O .data	0000000a coex_schm_ble_default_bt_idle_wifi_scan
4015672c g     F .text	0000010a sha512_done
400fa060 g     F .text	00000000 UART0
4012a844 g     F .text	00000012 nan_sm_deinit
40145468 g     F .text	000000d0 pm_coex_tbtt_process
4015d5e8 g     F .text	0000005c eap_peer_ttls_register
4012691c g     F .text	0000000b nan_get_random_byte
400015d4 g       *ABS*	00000000 strncpy
400fa060 g     F .text	00000000 PCNT
4011a54c g     F .text	00000065 coex_core_event_duration_get
40135a00 g     F .text	0000000c esp_wifi_sta_get_prof_ssid_internal
40119720 g     F .text	00000359 r_rwip_sleep
4010faa8 g     F .text	0000001e config_hci_tl_funcs_reset
4010ddb8 g     F .text	00000010 coex_wifi_channel_change_btdm_callback
3ffc2338 g     O .data	00000078 rcP2P11NSchedTbl
40121a78 g     F .text	00000034 ieee80211_add_htcap_vendor
401470cc g     F .text	00000294 rcUpdatePhyMode
401513a8 g     F .text	0000098b x509_certificate_parse
3ffd8fe8 g     O .bss	00000010 coex_schm_btdm_env
40085008 g     F .rwtext.wifi	0000005c ampdu_dispatch
4015e3a4 g     F .text	000000b1 eap_fast_save_pac_bin
400910f8 g     F .rwtext.wifi	00000046 get_target_power_offset
400638e4 g     F *ABS*	00000035 .hidden __powidf2
3f400120 g       *ABS*	00000000 _rodata_start
40080b34 g     F .rwtext	00000000 __naked_level_7_interrupt
4008a92c g     F .rwtext.wifi	000000f8 r_huart_finish_transfers
400fa060 g     F .text	00000000 TG0_T0_EDGE
4008fa58 g     F .rwtext.wifi	00000020 coex_time_is_in_time
401463d0 g     F .text	00000126 ppReSendBar
40090fbc g     F .rwtext.wifi	00000010 bt_tx_gain_cal_set
40123938 g     F .text	000000b2 ieee80211_parse_action
401258cc g     F .text	00000055 wifi_disconnect_process
40081318 g     F .rwtext	00000173 __level_1_interrupt
3ffddd0c g       *ABS*	00000000 __stack_chk_guard
4015694c g     F .text	00000048 eloop_init
400809a4 g     F .rwtext	00000000 __default_naked_level_2_interrupt
4012a7b4 g     F .text	00000013 nan_send_disc_bcn_process
40063868 g       *ABS*	00000000 __absvsi2
40125bc8 g     F .text	0000003c wifi_wpa2_ent_disable_process
40119c0c g     F .text	00000066 r_flash_identify
401255e4 g     F .text	00000105 wifi_init_process
4008fde8 g     F .rwtext.wifi	0000001a get_i2c_read_mask
3ffc1542  w    O .data	0000000a coex_schm_ble_mesh_traffic_bt_iscan_wifi_connecting
40139ea8 g     F .text	0000014e cnx_sta_associated
401389c0 g     F .text	00000038 cnx_connect_next_ap
401365b4 g     F .text	00000052 esp_wifi_set_appie_internal
4015a1b8 g     F .text	0000003b eap_peer_config_deinit
4004291c g       *ABS*	00000000 llcp_channel_map_req_handler
3ffc2458 g     O .data	00000018 rcLoRaSchedTbl
401312bc g     F .text	00000556 scan_profile_check
3ffd9198 g     O .bss	00000004 g_rw_controller_task_handle
401480b0 g     F .text	0000000a wDev_Reset_TBTT
40139b1c g     F .text	000000c6 ic_set_sta
40144428 g     F .text	0000004d pm_send_nullfunc
3ffdc918 g     O .bss	0000000f chip7_phy_api_ctrl
40132e0c g     F .text	000000af sta_eapol_txdone_cb
40131c94 g     F .text	0000001c scan_enter_oper_channel_process
401254a0 g     F .text	0000000c wifi_crypto_init
40126dd4 g     F .text	00000082 nan_transmit_bcn
40159ec0 g     F .text	00000155 eap_sm_build_nak
3ffd9434 g     O .bss	00000004 g_phyFuns
3ffc12e0 g     O .data	0000003c coex_schm_env
4010cea4 g     F .text	0000001a r_platform_reset
400835a0 g     F .rwtext.wifi	00000108 ppSearchTxframe
4013f600 g     F .text	00000176 rf_cal_data_backup
40166530 g     F .text	00000005 supplicant_sta_conn_handler
4012f1e0 g     F .text	000000f4 ieee80211_send_deauth_no_bss
3ffc24dc g       *ABS*	00000000 _data_end
4015385c g     F .text	00000039 crypto_hash_update
4008f4bc g     F .rwtext.wifi	00000066 coex_core_request
4012d038 g     F .text	0000001e ieee80211_add_assoc_req_ies
40082ab8 g     F .rwtext.wifi	0000001a chm_is_at_home_channel
40137d08 g     F .text	00000066 cnx_obss_scan
4008a63c g     F .rwtext.wifi	00000156 r_hci_acl_tx_data_alloc
401433f4 g     F .text	0000000f ic_trc_update_ifx_phy_mode
4012ad6c g     F .text	00000078 nan_send_solicited_publish
40127e64 g     F .text	00000051 nan_dp_confirm_peer
3ffd9450 g     O .bss	00000002 phy_tx_power_out
40083230 g     F .rwtext.wifi	00000016 pp_process_hmac_waiting_txq
40117248 g     F .text	000001be r_llm_con_req_tx_cfm
40135f90 g     F .text	0000004e esp_wifi_get_assoc_bssid_internal
40151fc0 g     F .text	0000001e x509_certificate_check_signature
40027610 g       *ABS*	00000000 lmp_esco_link_req_handler
3ffd920c g     O .bss	00000004 ap_rxcb
40118ee8 g     F .text	00000065 ble_txpwr_set
40166cf8 g     F .text	00000013 eap_get_type
4013e154 g     F .text	000001d7 wr_rx_gain_mem
40126e6c g     F .text	00000126 nan_alloc_beacon
40166cc4 g     F .text	0000001e eap_update_len
40135a2c g     F .text	00000010 esp_wifi_ap_get_prof_pairwise_cipher_internal
40145eb8 g     F .text	0000000f pp_register_config_cb
4013ac5c g     F .text	000000ea ieee80211_recv_action_vendor_spec
4014f9d8 g     F .text	000000f9 tls_verify_signature
40138008 g     F .text	000000b2 cnx_bss_init
40143eb4 g     F .text	00000094 lmacProcessTxError
4012a7f0 g     F .text	00000013 nan_faw_start_process
4014cc5c g     F .text	0000003e wpa_parse_wpa_ie_wrapper
40112afc g     F .text	0000008e coex_schm_ble_scan_restart
40111128 g     F .text	0000007a llcp_defalut_state_tab_reset
4013b708 g     F .text	0000005e ram_restart_cal
400fa060 g     F .text	00000000 TG1_WDT_LEVEL
4008a3b0 g     F .rwtext.wifi	000000a8 r_ea_alarm_set
4015a4bc g     F .text	00000090 eap_msg_alloc
400fa060 g     F .text	00000000 EFUSE
4011b19c g     F .text	00000028 coex_schm_flexible_period_set
3ffd9900 g     O .bss	0000032c gWpaSm
40092be8 g     F .rwtext.wifi	00000188 sta_rx_eapol
4008ea14 g     F .rwtext.wifi	00000114 r_rwbt_sleep_wakeup
4012c6c8 g     F .text	00000047 wifi_nvs_deinit
4010c908 g     F .text	00000000 __zero_bss
40118b50 g     F .text	00000063 coex_schm_set_afh_ch_class
40087068 g     F .rwtext.wifi	00000046 pm_beacon_monitor_timeout_process
4002df90 g       *ABS*	00000000 lmp_pause_enc_req_handler
4011c418 g     F .text	00000033 esp_wifi_internal_on_coex_schm_phase
4013ba00 g     F .text	0000006f rfpll_1p2_opt
40162f5c g     F .text	00000162 pkcs8_key_import
4016630c g     F .text	00000005 dbg_lmac_init
400fb184 g     F .text	000000ce _embassy_time_schedule_wake
4014f940 g     F .text	00000097 tls_key_x_server_params_hash
400542a0 g       *ABS*	00000000 nvds_null_read
40154838 g     F .text	0000010b hmac_md5_vector
401370c4 g     F .text	0000000d chm_get_current_channel
40101150 g     F .text	0000008f RWBLE
4012d580 g     F .text	00000478 ieee80211_assoc_req_construct
4014bd48 g     F .text	00000026 hexstr2bin
400466dc g       *ABS*	00000000 lld_evt_deferred_elt_pop
3ffc1781 g     O .data	00000001 g_phy_cap_rx_stbc
40144280 g     F .text	00000060 pm_allow_tx
4014221c g     F .text	000000d3 cal_rf_ana_gain
400935e0 g     F .rwtext.wifi	0000005b pp_coex_tx_release
40166284 g     F .text	00000050 ppCheckIsConnTraffic
3ffd9310 g     O .bss	00000004 s_netstack_ref
40135d64 g     F .text	0000000e esp_wifi_sta_get_pairwise_cipher_internal
400fa060 g     F .text	00000000 WIFI_NMI
40135f20 g     F .text	00000022 esp_wifi_unregister_wpa2_cb_internal
4011b4f0 g     F .text	0000000a wifi_get_init_state
4010c898 g     F .text	00000000 __post_init
3ffae6e0 g       *ABS*	00000000 _data_start_btdm
40165bfc g     F .text	00000005 r_led_init
3ffd943f g     O .bss	00000001 phy_init_flag
40125770 g     F .text	00000106 wifi_stop_process
401630c0 g     F .text	0000009f pkcs8_enc_key_import
3ffc166a  w    O .data	00000016 coex_schm_ble_mesh_traffic_bt_default_wifi_scan
3ffd9429 g     O .bss	00000001 btpwr_tsen_init
4015f1e8 g     F .text	00000037 eap_fast_derive_master_secret
4008d0c8 g     F .rwtext.wifi	00000037 r_lld_get_mode
3ffb8340 g       *ABS*	00000000 lm_nego_pkt_used
3ffc1330  w    O .data	0000000a coex_schm_ble_default_bt_idle_wifi_conn
4013b594 g     F .text	000000ca ram_pbus_force_mode
40166540 g     F .text	00000005 esp_set_scan_ie
401374b8 g     F .text	00000045 chm_return_home_channel
401272d8  w    F .text	000000b4 nan_start
401610f4 g     F .text	00000027 wpa_sm_deinit
400908f8 g     F .rwtext.wifi	00000059 ram_write_gain_mem
40137e00 g     F .text	00000013 wl_clear_ap_no_lr
4002e454 g       *ABS*	00000000 lc_set_encap_pdu_data_p256
40137d80 g     F .text	0000004d cnx_obss_scan_timeout
40082044 g     F .rwtext	00000000 NMI
40086a60 g     F .rwtext.wifi	00000095 pm_get_tbtt_count
401442e0 g     F .text	00000013 pm_noise_check_disable
3ffd9894 g     O .bss	00000004 g_wpa_new_password
40090acc g     F .rwtext.wifi	000000f6 wr_bt_tx_gain_mem
4008dee0 g     F .rwtext.wifi	0000006f r_rf_rw_bt_bb_reg_init
40135e0c g     F .text	0000003d ieee80211_set_gtk
40014e9c g       *ABS*	00000000 ea_conflict_check
3ffb8230 g       *ABS*	00000000 LM_Sniff
401404d0 g     F .text	000001af ram_txdc_cal_v70
40136a4c  w    F .text	0000002a ieee80211_ap_sa_query_timeout
400312b4 g       *ABS*	00000000 ld_acl_sniff_exit
3ffdcb30 g     O .bss	000001d0 g_pm
40088eb0 g     F .rwtext.wifi	000000a6 tx_delay_cfg
3ffc16de  w    O .data	0000000e coex_schm_ble_mesh_config_bt_a2dp_wifi_scan
40084d00 g     F .rwtext.wifi	00000078 wdev_mac_sleep
40142e20 g     F .text	00000015 ic_register_tx_cb
3ffb8284 g       *ABS*	00000000 ld_fm_env
40082f14 g     F .rwtext.wifi	00000014 lmacDiscardAgedMSDU
401184c4 g     F .text	00000034 llm_init_ble_adv_report_flow_contol
4000c818 g     F *ABS*	00000035 .hidden __ashldi3
3ffc1456  w    O .data	0000000a coex_schm_bt_a2dp_paused_wifi_conn
40002ef8 g       *ABS*	00000000 __popcountdi2
4008d188 g     F .rwtext.wifi	00000094 ram_lld_pdu_tx_flush
40080ae4 g     F .rwtext	00000000 __default_naked_level_6_interrupt
40015c98 g       *ABS*	00000000 AddBigHexModP256
3ffd98a0 g     O .bss	00000004 g_wpa_ca_cert_len
3ffdc928 g     O .bss	000000c4 chip7_sleep_params
4012a794 g     F .text	0000000f nan_dw_start_process
40135b04 g     F .text	00000042 esp_wifi_sta_disable_wpa2_authmode_internal
4013306c g     F .text	0000021c sta_rx_csa
40080950 g     F .rwtext	00000000 __default_naked_double_exception
40130150 g     F .text	00000012 ieee80211_regdomain_update_in_scan
400808dc g     F .rwtext	00000000 __naked_kernel_exception
40148464 g     F .text	00000031 wdev_set_promis_ctrl_pkt
3ffe0000 g       *ABS*	00000000 _stack_start
40132128 g     F .text	00000080 scan_validate_owe_scenarios
40159d9c g     F .text	0000000a eap_peer_method_free
40127cfc g     F .text	000000e7 nan_dp_delete_peer
40137c34 g     F .text	0000005c _cnx_start_connect_without_scan
40166eac g     F .text	00000062 cipher_type_map_supp_to_public
401456f4 g     F .text	0000005a pm_disconnected_start
4008eba4 g     F .rwtext.wifi	00000053 r_rwip_wakeup_end
40135bec g     F .text	0000001c esp_wifi_ap_is_sta_sae_reauth_node
4014c850 g     F .text	0000003a esp_wifi_sta_enterprise_enable
4008f524 g     F .rwtext.wifi	00000074 coex_core_release
3ffb8bd4 g       *ABS*	00000000 bt_util_buf_env
4015e094 g     F .text	00000042 eap_fast_pac_list_truncate
4013b870 g     F .text	0000005c get_lna_vga_dcap_val
4008e0f0 g     F .rwtext.wifi	00000046 btdm_bb_rst
40138574 g     F .text	0000008a cnx_add_rc
400885d4 g     F .rwtext.wifi	00000082 pp_timer_do_process
401162ac g     F .text	0000016c llm_hci_cmd_handler_tab_reset
4014e02c g     F .text	00000010 tlsv1_client_set_flags
3ffc1d68 g     O .data	00000030 lmacConfMib
4012c644 g     F .text	0000000d wifi_nvs_get_sta_listen_interval
401130d0 g     F .text	00000689 r_lld_init
3ffb8346 g       *ABS*	00000000 lm_nb_sync_active
401129b0 g     F .text	0000000e coex_ble_scan_abort_set
4011285c g     F .text	0000001a ble_ll_qa_test_enable
40128fa4 g     F .text	0000005a nan_dp_indicate_faw_start
4011dea0 g     F .text	0000000d wifi_ap_reg_rxcb
401631a0 g     F .text	0000000c crypto_rsa_get_modulus_len
4012875c g     F .text	0000002c nan_dp_parse_ndca
401400a0 g     F .text	00000056 phy_enable_low_rate
3ffdb6a4 g     O .bss	00000010 app_scan_params
4012f4e4 g     F .text	00000107 ieee80211_encap_null_data
40135e4c g     F .text	00000018 ieee80211_get_ptk
4015478c g     F .text	00000076 MD5Final
4002e084 g       *ABS*	00000000 lmp_resume_enc_req_handler
4014d810 g     F .text	00000024 tls_derive_pre_master_secret
4011b104 g     F .text	00000066 coex_wifi_channel_get
4014ceb4 g     F .text	00000019 wpa_config_assoc_ie
401444d8 g     F .text	0000007e pm_disconnected_sleep
50000000 g       *ABS*	00000000 _rtc_slow_bss_end
40136a18  w    F .text	0000002a ieee80211_ap_try_sa_query
40165d38 g     F .text	00000021 addba_timeout_process
401343dc g     F .text	0000017b sta_auth_sae
40136060 g     F .text	00000174 wifi_set_rx_policy
400809a4 g     F .rwtext	00000000 __naked_level_2_interrupt
40140ca8 g     F .text	00000034 ram_iq_est_disable
400927e8 g     F .rwtext.wifi	0000005e ieee80211_alloc_tx_buf
3ffc1782 g     O .data	00000001 g_mesh_self_organized
4013b0d8 g     F .text	000000e6 ieee80211_ccmp_encrypt
3ffd93f2 g     O .bss	00000001 g_authmode_incompatible
4008b1fc g     F .rwtext.wifi	00000108 llc_hci_acl_data_tx_handler
3ffd9888 g     O .bss	00000004 g_wpa_phase1_options
40089f80 g     F .rwtext.wifi	0000001e r_assert_warn
40112940 g     F .text	0000003e coex_ble_lld_last_active_evt_counter_set
4012e878 g     F .text	00000188 ieee80211_output_raw_process
4014f8c4 g     F .text	00000030 tls_prf
3ffda4a8 g     O .bss	00000004 net80211_funcs
40141748 g     F .text	0000029a rc_cal
4002e894 g       *ABS*	00000000 lmp_accepted_handler
40144c44 g     F .text	00000062 pm_mesh_set_next_tbtt
40161aac g     F .text	00000047 asn1_oid_to_str
40080a44 g     F .rwtext	00000000 __naked_level_4_interrupt
400927d4 g     F .rwtext.wifi	00000008 r_global_int_stop
40002b30 g     F *ABS*	00000081 .hidden __fixunsdfsi
40163300 g     F .text	00000088 crypto_rsa_import_public_key
4013760c g     F .text	00000010 cnx_csa_fn
40159588 g     F .text	00000087 ccmp_decrypt
4011a53c g     F .text	0000000c coex_register_start_cb
4001aac0 g       *ABS*	00000000 r_ke_timer_set
4011cc8c g     F .text	000000d0 wifi_create_sta
40086888 g     F .rwtext.wifi	000001aa pm_parse_beacon
40142ea8 g     F .text	00000014 ic_register_net80211_tx_cb
4013d898 g     F .text	0000033b set_rx_gain_cal_iq
40026e7c g       *ABS*	00000000 lmp_test_activate_handler
401008f8 g     F .text	00000044 fgets
40140710 g     F .text	0000009d ram_get_fm_sar_dout
4013d450 g     F .text	0000003e ram_phy_get_noisefloor
4014df64 g     F .text	00000082 tlsv1_client_hello_ext
40135c08 g     F .text	00000015 esp_wifi_sta_is_ap_notify_completed_rsne_internal
40158e20 g     F .text	0000002c wpa_parse_wpa_ie_rsnxe
3ffd98c4 g     O .bss	00000004 g_wpa_username
4015f5bc g     F .text	00000059 pmksa_cache_get_opportunistic
40166c28 g     F .text	00000008 eap_get_config
4008dfdc g     F .rwtext.wifi	0000002c r_rf_btdm_bb_intc_init
4008faa4 g     F .rwtext.wifi	00000022 coex_timer_ts_end_disalarm
401334d0 g     F .text	0000000e sta_is_wifi_ent_enabled
401669d0 g     F .text	00000022 wpa_cipher_valid_mgmt_group
3ffc1754  w    O .data	0000000a coex_schm_bt_conn_wifi_scan
4012c71c g     F .text	00000069 wifi_nvs_init
4012f978  w    F .text	0000007f ieee80211_set_tim
40122da4 g     F .text	00000104 ieee80211_parse_wpa
40129edc g     F .text	0000004e nan_schedule_disc_bcn
400802c0 g     F .vectors	00000000 _Level7InterruptVector
400914dc g     F .rwtext.wifi	0000002a ram_read_sar_dout
4008518c g     F .rwtext.wifi	000000d3 ampdu_dispatch_upto
40157ee8 g     F .text	00000067 wpa_auth_sta_associated
40152308 g     F .text	00000418 aes_decrypt
4013af0c g     F .text	000001c5 ieee80211_ccmp_decrypt
40141be0 g     F .text	00000178 tx_cap_init
4014a338 g     F .text	00000053 hal_mac_clr_txq_state
40121c38 g     F .text	00000052 ieee80211_add_htinfo_vendor
40155ae8 g     F .text	000000b0 SHA1Final
40126910 g     F .text	0000000a nan_get_random_word
40159bd0 g     F .text	00000083 tls_prf_sha256
400fb118 g     F .text	0000006a _embassy_time_now
40103304 g     F .text	00000025 phy_printf
40080ca4 g     F .rwtext	0000002d __level_6_interrupt
40082230 g     F .rwtext.wifi	00000060 nan_dp_search_node
40111584 g     F .text	00000018 llc_hci_pending_pkts_inc
4015feec g     F .text	00000064 wpa_set_profile
4003340c g       *ABS*	00000000 ld_acl_sniff_sched
3ffc1572  w    O .data	0000000e coex_schm_ble_mesh_config_bt_a2dp_paused_wifi_connecting
401455bc g     F .text	00000008 pm_on_coex_schm_process_restart
40008534 g       *ABS*	00000000 ets_delay_us
3ffd9768 g     O .bss	00000004 wifi_funcs
4008ed40 g     F .rwtext.wifi	000000f1 vhci_recv
3ffc160e  w    O .data	00000016 coex_schm_ble_mesh_standby_bt_default_wifi_scan
40054334 g       *ABS*	00000000 nvds_erase
3ffd9740 g     O .bss	00000004 force_wifi_mode_on
4000c7b0 g       *ABS*	00000000 __mulsi3
4014d154 g     F .text	00000017 esp_supplicant_unset_all_appie
4000240c g     F *ABS*	0000002f .hidden __fixsfsi
400263bc g       *ABS*	00000000 lmp_pwr_ctrl_req_handler
40148b88 g     F .text	0000000d wDev_is_low_rate_enable
40026d4c g       *ABS*	00000000 lmp_page_scan_mode_req_handler
3ffda754 g     O .bss	00000074 wpa_crypto_funcs
40130208 g     F .text	00000018 ieee80211_regdomain_ap_max_chan
400880d4 g     F .rwtext.wifi	00000126 pm_update_by_connectionless_status
40030cf8 g       *ABS*	00000000 ld_acl_clk_isr
40146fd8 g     F .text	00000042 rcGetHighestRateIdx
401275d8 g     F .text	00000066 nan_sched_get_chan_bitmap
4004b414 g       *ABS*	00000000 r_lld_pdu_tx_flush
3f411fc8 g     O .rodata	00000008 dbg_default_handler_2
40092374 g     F .rwtext.wifi	0000000e wdev_record_rx_linked_list
40135a1c g     F .text	00000010 esp_wifi_ap_get_max_sta_conn
40091140 g     F .rwtext.wifi	00000034 ram_txbbgain_to_index
40086cac g     F .rwtext.wifi	00000136 pm_dream
40086738 g     F .rwtext.wifi	00000012 pm_is_waked
40142a9c g     F .text	0000017f esf_buf_setup
40124f78 g     F .text	00000028 wifi_stop_sw_txq
401256ec g     F .text	0000000a wifi_deinit_process
4012308c g     F .text	000007f8 ieee80211_parse_rsn
40119b2c g     F .text	0000008c btdm_task_post
40092388 g     F .rwtext.wifi	00000065 wdev_push_promis_misc_buf
401242f8 g     F .text	00000062 wifi_station_save_ap_channel
3ffd987c g     O .bss	00000001 g_wpa_default_cert_bundle
4008fd70 g     F .rwtext.wifi	00000033 coex_arbit_next
40148108 g     F .text	0000006a wdev_csi_hw_bug_check
4011c244 g     F .text	00000045 esp_wifi_vnd_lora_disable
3f413b00 g     O .rodata	0000000a rcons
3ffd9004 g     O .bss	00000007 is_lc_lmp_rx_flooding
40136e68 g     F .text	000000a0 ieee80211_timer_process
400fa060 g     F .text	00000000 TG0_LACT_LEVEL
40146b2c g     F .text	00000068 pp_stop_sw_txq
4014d624 g     F .text	00000054 tls_connection_get_eap_fast_key
4000c7c0 g     F *ABS*	0000003b .hidden __modsi3
3ffd9421 g     O .bss	00000001 bt_pwr_freq_old
3ffb830c g       *ABS*	00000000 ld_sched_env
40080380 g     F .vectors	00000000 _DoubleExceptionVector
40159c54 g     F .text	0000001d eap_peer_get_eap_method
40091414 g     F .rwtext.wifi	00000084 force_txrx_off
4014d3f0 g     F .text	00000041 esp_wifi_build_rsnxe
4012c2a0 g     F .text	00000054 wifi_nvs_validate_country
401637f4 g     F .text	0000001c hash_nt_password_hash
401466a4 g     F .text	00000036 pp_deattach
3ffc2a08 g     O .data.wifi	00000001 g_mesh_is_root
4012caac g     F .text	00000029 ieee80211_amsdu_length_check
40158e4c g     F .text	0000019d wpa_parse_wpa_ie_rsn
4010dd84 g     F .text	00000026 coex_schm_btdm_callback_v2
40166a68 g     F .text	0000002e wpa_cipher_valid_pairwise
40147d9c g     F .text	000000d4 trc_init
40166500 g     F .text	00000005 __hide_aliasing_typecast
4014cbdc g     F .text	00000021 wpa_attach
4014a2ec g     F .text	0000003d hal_mac_get_txq_state
4014d6ec g     F .text	00000037 tls_connection_encrypt
40001778 g       *ABS*	00000000 close
4010ddac g     F .text	0000000a coex_schm_btdm_callback_v1
40002f3c g       *ABS*	00000000 __paritysi2
401475e8 g     F .text	00000080 rcGetAmpduSched
4014ae1c g     F .text	00000076 unforce_wifi_mode
40123ff4 g     F .text	0000001f current_task_is_wifi_task
4011cf6c g     F .text	00000099 ieee80211_crypto_decap
4010ec4c g     F .text	000000af r_ea_interval_duration_req
4000c1f4 g       *ABS*	00000000 bzero
40093ef8 g     F .rwtext.wifi	00000011 coex_wifi_release
40142934 g     F .text	00000019 esf_buf_alloc_default_handler
40118cf8 g     F .text	0000003e btdm_osi_funcs_register
40140680 g     F .text	0000005b txcal_debuge_mode
4011e4c8 g     F .text	00000160 wifi_softap_stop
4011c15c g     F .text	00000037 wifi_mesh_event_post
400913ac g     F .rwtext.wifi	00000065 get_phy_target_power
4012c9d4 g     F .text	000000d7 ieee80211_amsdu_adjust_head
4010d150 g     F .text	000000ba r_rw_schedule
4012e224 g     F .text	00000019 ieee80211_output
4012878c g     F .text	000000f6 nan_sched_parse_avail_entries
40135c30 g     F .text	0000000d wifi_sta_get_prof_password
401484a0 g     F .text	00000066 wdev_set_promis
40165ca0 g     F .text	0000002a ieee80211_get_cipher_mic_len
40110194 g     F .text	0000001e config_ke_timer_funcs_reset
401591a0 g     F .text	00000054 wpa_eapol_key_mic
400fa060 g     F .text	00000000 TG0_T1_LEVEL
40157440 g     F .text	00000314 __wpa_send_eapol
400923f0 g     F .rwtext.wifi	0000007b wdev_process_panic_watchdog
400021d0 g     F *ABS*	00000038 .hidden __subsf3
4010ef5c g     F .text	00000016 patch_hci_look_for_dbg_evt_desc
3ffd9660 g     O .bss	00000004 s_fix_rate_mask
40142ee8 g     F .text	0000000a ic_disable_sniffer
4011bdc8 g     F .text	0000016f esp_wifi_stop
40143cd4 g     F .text	00000044 lmacProcessCollisions_task
40083348 g     F .rwtext.wifi	00000114 pp_coex_tx_request
3ffd95a8 g     O .bss	000000b4 g_lmac_cnt
40147050 g     F .text	00000033 rcClearCurAMPDUSched
4011bb30 g     F .text	000000ea esp_wifi_init_internal
40120ca8 g     F .text	00000012 ieee80211_ampdu_enable
4013aa38 g     F .text	0000005f ieee80211_send_action_register
401662d4 g     F .text	00000005 ppSetInterface
40126960 g     F .text	0000001e nan_is_in_dw
40127414 g     F .text	0000009c nan_set_config_local
401179e0 g     F .text	000000f4 r_llm_set_scan_param
400645a4 g       *ABS*	00000000 __divdc3
3ff96544 g       *ABS*	00000000 __nsau_data
40135d84 g     F .text	00000018 ieee80211_get_key
40122234 g     F .text	000001bf ieee80211_decap
4002b3d8 g       *ABS*	00000000 lmp_host_con_req_handler
40087ff4 g     F .rwtext.wifi	0000001d hal_mac_init
400542a8 g       *ABS*	00000000 nvds_null_write
40142914 g     F .text	00000019 esf_buf_alloc_dynamic_default_handler
40160050 g     F .text	00000027 set_assoc_ie
40125c6c g     F .text	0000017b ieee80211_set_appie
4006340c g     F *ABS*	00000049 .hidden __gesf2
400806f8 g     F .rwtext	00000000 save_context
4008a818 g     F .rwtext.wifi	0000010c huart_flow_off
40153f14 g     F .text	0000004e des3_key_setup
4003f9c4 g       *ABS*	00000000 r_ld_sched_sniff_add
3ff971f8 g       *ABS*	00000000 one_bits
40142c34 g     F .text	00000014 ic_get_ptk_alg
400fdc8c g     F .text	000001c0 ets_timer_done
40135d9c g     F .text	0000003c ieee80211_set_key
401284a4 g     F .text	000000b5 nan_dp_parse_ndpa
400fa060 g     F .text	00000000 RWBT_NMI
400888d0 g     F .rwtext.wifi	000002a7 phy_i2c_init
4008b5f0 g     F .rwtext.wifi	00000162 r_lld_evt_schedule_next_instant_hack
40166c50 g     F .text	00000019 eap_get_config_password2
4008618c g     F .rwtext.wifi	000002da wDev_IndicateAmpdu
3ffb9704 g       *ABS*	00000000 lld_evt_env
40142520 g     F .text	000001da bt_tx_pwctrl_init
40046058 g       *ABS*	00000000 llc_default_state_tab_p_get
4011857c g     F .text	0000009d config_llm_funcs_reset
4012c25c g     F .text	00000041 wifi_nvs_validate_sta_password
40118cdc g     F .text	00000010 config_nvds_funcs_reset
3ffc1c9d g     O .data	00000001 wifi_txband
3ffd9427 g     O .bss	00000001 btpwr_tsen_flag
4013bd44 g     F .text	00000036 get_rfrx_dcap_bt
3f413c0c g     O .rodata	00000400 Td0
40153688 g     F .text	000001d4 crypto_hash_init
4014c154 g     F .text	00000097 wpa2_post
4012fcc4 g     F .text	00000037 ieee80211_pwrsave_node_cleanup
4008ee34 g     F .rwtext.wifi	00000032 vhci_flow_off
40119484 g     F .text	00000013 config_rwble_funcs_reset
40166f68 g     F .text	00000016 wpa_supplicant_gtk_tx_bit_workaround
4011bd6c g     F .text	00000034 esp_wifi_start
4000681c g       *ABS*	00000000 intr_matrix_set
40156a8c g     F .text	00000058 eloop_cancel_timeout
400fa060 g     F .text	00000000 ETH_MAC
4012cf80 g     F .text	00000056 ieee80211_add_xrates
40153898 g     F .text	000001eb crypto_hash_finish
40138e20 g     F .text	00000024 cnx_assoc_timeout_process
4014c468 g     F .text	00000046 eap_sm_send_eapol
40149e10 g     F .text	000000be hal_mac_tsf_get_time
400fa060 g     F .text	00000000 TG0_WDT_EDGE
40147f34 g     F .text	00000075 rc_set_per_conn_fix_rate
40092aac g     F .rwtext.wifi	00000019 esp_wifi_internal_tx
400fa060 g     F .text	00000000 TG0_WDT_LEVEL
4015f550 g     F .text	0000002e pmksa_cache_deinit
400637f4 g     F *ABS*	00000069 .hidden __unorddf2
3ffc1940 g     O .data	000000e6 country_info_24ghz
400426f0 g       *ABS*	00000000 llcp_con_up_req_handler
3ffc0e68 g     O .data	00000004 WIFI_EVENT
3ffb8343 g       *ABS*	00000000 lm_nego_max_cnt
40142478 g     F .text	00000098 tx_pwctrl_init
4012faec g     F .text	00000035 ieee80211_psq_is_buff_pkt
40165b44 g     F .text	0000001d r_lld_util_instant_get
400ff428 g     F .text	000000a6 calloc
40042358 g       *ABS*	00000000 llc_hci_cmd_handler_tab_p_get
4012f908 g     F .text	0000003a ieee80211_gpsq_init
4015a370 g     F .text	0000003a eap_peer_blob_deinit
4015c118 g     F .text	0000002c eap_peer_tls_status
40092630 g     F .rwtext.wifi	00000076 wdev_dump_rx_linked_list
4011b038 g     F .text	00000020 coex_schm_curr_period_get
40165aa4 g     F .text	00000007 register_chipv7_phy_empty
4014a6fc g     F .text	0000001b hal_disable_sta_tsf
4013ed9c g     F .text	000000d8 txiq_cal_init
3ffd9449 g     O .bss	00000001 force_tx_gain_en
401432f8 g     F .text	0000001b ic_enable_rx
40033870 g       *ABS*	00000000 ld_acl_evt_stop_cbk
40156ca8 g     F .text	0000001b hostapd_config_clear_wpa_psk
4012ad20 g     F .text	00000047 nan_send_static_sdfs
4011dc8c g     F .text	0000009e hostap_deliver_data
4012b298 g     F .text	000000ce nan_update_static_sdfs
4010dc3c g     F .text	00000026 r_rwip_eif_get
401466dc g     F .text	00000062 ppInitTxq
40127a84 g     F .text	000000c8 nan_dp_alloc_node
40026670 g       *ABS*	00000000 lmp_ver_res_handler
40143f4c g     F .text	00000018 lmacRxDone
40166094 g     F .text	0000001b cnx_rc_update_age
3ffc1480  w    O .data	0000000a coex_schm_ble_default_bt_a2dp_wifi_connecting
3ffc12be g     O .data	00000002 SCAN_CHANNEL_SELECT_CONFIG
3ffc0ee8 g     O .data	00000008 g_wifi_feature_caps
400fa060 g     F .text	00000000 BT_BB_NMI
40149bdc g     F .text	00000093 hal_mac_set_bssid
4014ee88 g     F .text	000001d7 tls_send_client_hello
3ffd9ca4 g     O .bss	00000004 btdm_slp_err
400fa060 g     F .text	00000000 WIFI_BB
3ffc27c8 g     O .data.wifi	00000004 g_coa_funcs_p
4014621c g     F .text	00000035 ppDequeueTxQ
4002f488 g       *ABS*	00000000 lc_hci_cmd_handler_tab_p_get
4001ab90 g       *ABS*	00000000 r_ke_timer_clear
400936c8 g     F .rwtext.wifi	00000025 ppDequeueTxDone_Locked
40111278 g     F .text	00000025 r_llc_reset_hack
400349dc g       *ABS*	00000000 ld_sco_frm_cbk
40027c5c g       *ABS*	00000000 lmp_ping_res_handler
40148918 g     F .text	0000005d wDev_Rxbuf_Deinit
40089434 g     F .rwtext.wifi	0000006a mac_enable_bb
40084f74 g     F .rwtext.wifi	0000001c ppSubFromAMPDU
3ffc29fc g     O .data.wifi	00000004 g_wifi_mac_time_delta
4008fda4 g     F .rwtext.wifi	00000040 coex_arbit_clean_overtime
4008c40c g     F .rwtext.wifi	00000019 lld_con_llcp_ind_init
40142e38 g     F .text	00000012 ic_register_rx_cb
3ffc1c80 g     O .data	00000001 wifi_bbgain_max
401467f0 g     F .text	00000077 pp_delete_task
4014fef0 g     F .text	0000012d tlsv1_record_send
40139288 g     F .text	00000072 cnx_rc_update_state_metric
4009149c g     F .rwtext.wifi	0000003b phy_pwdet_onetime_en
40026548 g       *ABS*	00000000 lmp_auto_rate_handler
40120cd0 g     F .text	00000150 ieee80211_ampdu_request
3ffd91c4 g     O .bss	00000001 s_wifi_stop_in_progress
3ffd944b g     O .bss	00000001 phy_dis_pwdet_one
3ffd9730 g     O .bss	00000004 g_wdev_csi_rx_ctx
401473dc g     F .text	0000006e rcUpSched
4002ffdc g       *ABS*	00000000 ld_acl_tx
4002ab48 g       *ABS*	00000000 lmp_dhkey_chk_handler
3f41238a g     O .rodata	00000004 NAN_STANDARD_OUI
40080340 g     F .vectors	00000000 _UserExceptionVector
4006358c g     F *ABS*	00000037 .hidden __muldf3
4013a9f0 g     F .text	00000037 offchan_send_action_tx_status
4015c4f4 g     F .text	0000003b eap_peer_tls_encrypt
40166640 g     F .text	00000026 tlsv1_client_set_cb
4014335c g     F .text	0000000c ic_set_current_channel
4012d104 g     F .text	00000034 ieee80211_add_csa
40090e5c  w    F .rwtext.wifi	00000029 set_xpd_sar
3ffb9340 g       *ABS*	00000000 hci_fc_env
40145c8c g     F .text	00000085 pm_deattach
40026ee4 g       *ABS*	00000000 lmp_test_ctrl_handler
401277f4 g     F .text	000000ac nan_sched_add_entry
4014017c g     F .text	00000321 phy_dig_reg_backup
4014333c g     F .text	0000000d ic_set_mac
3ffc13ea  w    O .data	0000000e coex_schm_ble_mesh_config_bt_a2dp_wifi_conn
40157410 g     F .text	00000030 wpa_auth_sta_deinit
40093844 g     F .rwtext.wifi	00000087 ppGetTxframe
4012d1f0 g     F .text	00000018 ieee80211_vnd_lora_ie_size
40124f50 g     F .text	00000024 wifi_txq_empty
4015c144 g     F .text	000000bb eap_peer_tls_process_init
400906c8 g     F .rwtext.wifi	00000030 get_i2c_write_data
4010efc0 g     F .text	0000007f r_hci_bt_acl_bdaddr_unregister_hack
40160d88 g     F .text	00000026 wpa_sta_in_4way_handshake
40080080 g     F .vectors	00000000 _WindowOverflow8
400898e0 g     F .rwtext.wifi	00000057 i2c_master_reset
400fa060 g     F .text	00000000 MCPWM0
40064bec g       *ABS*	00000000 __udiv_w_sdiv
4014314c g     F .text	0000001d ic_ampdu_op
400fa060 g     F .text	00000000 MCPWM2
4010ce34 g     F .text	00000055 r_dump_data
400fa060 g     F .text	00000000 FROM_CPU_INTR2
401116a4 g     F .text	00000054 config_llc_funcs_reset
4014d7bc g     F .text	0000001a tls_connection_client_hello_ext
40144348 g     F .text	00000024 pm_disable_disconnected_sleep_delay_timer
400017dc g       *ABS*	00000000 read
40147020 g     F .text	0000002d rcClearCurSched
400fa060 g     F .text	00000000 MCPWM1
3ffd96bc g     O .bss	00000004 BcnSendTick
4015f7d8 g     F .text	000000a3 wpa_eapol_key_send
400fa060 g     F .text	00000000 FROM_CPU_INTR1
40080240 g     F .vectors	00000000 _Level5InterruptVector
3ffd9324 g     O .bss	00000001 connect_scan_flag
4015365c g     F .text	0000000a crypto_public_key_free
40112878 g     F .text	0000000a ble_ll_get_adv_txed_cnt
4012b104 g     F .text	000000b9 nan_rx_sdf
40080000 g     F .vectors	00000000 _WindowOverflow4
40116730 g     F .text	00000192 r_llm_set_scan_en
4015ba70 g     F .text	0000005c eap_peer_peap_register
4011a468 g     F .text	00000045 esp_coex_adapter_register
3ffc2b4c g     O .data.wifi	00000084 s_record_list
40143fd4 g     F .text	0000003e lmacProcessTxTimeout
4011dee0 g     F .text	00000155 hostap_auth_open
3ffc1708  w    O .data	0000000a coex_schm_ble_mesh_config_bt_iscan_wifi_scan
50000000 g       *ABS*	00000000 _rtc_slow_persistent_end
4014d528 g     F .text	00000014 tls_connection_deinit
4015be38 g     F .text	000001ec eap_peer_tls_ssl_init
4012fb24  w    F .text	0000006e ieee80211_pwrsave
401168fc g     F .text	0000094a r_llm_le_adv_report_ind
4012fa3c g     F .text	0000004f ieee80211_psq_drop_one_pkt
4014dd1c g     F .text	000000b0 tlsv1_client_prf
40142edc g     F .text	0000000a ic_enable_sniffer
4012c360 g     F .text	0000001c wifi_nvs_validate_sta_listen_interval
3ffc12b8 g     O .data	00000004 g_bt_plf_log_level
4000c7b8 g     F *ABS*	00000031 .hidden __divsi3
4015fb34 g     F .text	0000002a wpa_supplicant_key_neg_complete
40136fe0 g     F .text	0000001c chm_release_lock
401359f0 g     F .text	0000000f esp_wifi_ap_get_prof_ap_ssid_internal
4012a868 g     F .text	00000013 nan_sm_stop
40124fb0 g     F .text	000000f4 wifi_hw_stop
3ffd9300 g     O .bss	00000004 g_mesh_topology
40152104 g     F .text	0000001c x509_certificate_get_subject
4008d234 g     F .rwtext.wifi	0000000b lld_evt_end_run_flag_get
400fa060 g     F .text	00000000 CACHE_IA
4013918c g     F .text	00000088 cnx_remove_rc_except
4012f630 g     F .text	0000005b ieee80211_phy_type_get
4012a774 g     F .text	0000000f nan_warmup_timeout_process
40128f40 g     F .text	00000064 nan_dp_indicate_ndc_start
40081ea4 g     F .rwtext	0000002a esp_dport_access_reg_read
4013ac3c g     F .text	00000018 get_iav_key
40125b78 g     F .text	0000000b wifi_wpa2_is_started
40011e9c g       *ABS*	00000000 lm_n192_mod_add
401158c0 g     F .text	0000003d config_lld_pdu_funcs_reset
40143330 g     F .text	0000000a ic_set_beacon_int
3ffc1510  w    O .data	00000016 coex_schm_ble_mesh_traffic_bt_a2dp_wifi_connecting
40162d0c g     F .text	00000056 bignum_set_unsigned_bin
4010ed00 g     F .text	00000054 r_ea_offset_req_hack
4012f944 g     F .text	00000033 ieee80211_psq_find_max_bss
3ffc1394  w    O .data	0000000a coex_schm_ble_mesh_traffic_bt_sniff_wifi_conn
4013c61c g     F .text	00000448 bt_get_i2c_data
3ffc15da  w    O .data	0000000a coex_schm_bt_conn_wifi_connecting
40128118 g     F .text	000002d2 nan_construct_ndp_resp
3ffc1740  w    O .data	0000000a coex_schm_bt_a2dp_wifi_scan
4015835c g     F .text	000000c5 wpa_ap_join
400845d8 g     F .rwtext.wifi	00000097 ppProcessLifeTime
40126a58 g     F .text	00000076 nan_set_trc
40126468 g     F .text	000000f6 wifi_ap_remove_sta_node_process
4015f268 g     F .text	0000001d eap_fast_derive_eap_emsk
401662dc g     F .text	0000002d pp_gettid
4015f688 g     F .text	0000001e pmksa_cache_init
3ffc16ae  w    O .data	0000000e coex_schm_ble_mesh_traffic_bt_conn_wifi_scan
40025050 g       *ABS*	00000000 lmp_name_req_handler
40143114 g     F .text	00000020 ic_del_key
400fa060 g     F .text	00000000 MCPWM3
4012c654 g     F .text	00000072 wifi_nvs_reset_current_ap_info
40125b88 g     F .text	0000003c wifi_wpa2_ent_enable_process
40156f1c g     F .text	0000001a resend_eapol_handle
40093ac0 g     F .rwtext.wifi	0000008b ppAssembleAMPDU
40145ea4 g     F .text	0000000f pp_register_net80211_tx_cb
401665f8 g     F .text	0000003a tlsv1_client_set_cipher_list
401334e0 g     F .text	0000000f sta_get_owe_data
4004e718 g       *ABS*	00000000 llm_default_state_tab_p_get
40090bcc g     F .rwtext.wifi	000000c6 set_tx_gain_table
40010280 g       *ABS*	00000000 r_bt_util_buf_acl_tx_free
3ffd98bc g     O .bss	00000004 g_wpa_client_cert
40136910 g     F .text	0000002e esp_wifi_sta_connect_internal
400fa060 g     F .text	00000000 FROM_CPU_INTR3
3ffc13c8  w    O .data	0000000a coex_schm_ble_mesh_traffic_bt_iscan_wifi_conn
00010000 g       *ABS*	00000000 RESERVE_DRAM
4014c998 g     F .text	00000042 esp_eap_client_set_username
401396cc g     F .text	00000031 cnx_sta_pm
4010fae0 g     F .text	000000ca uart_force_rts_setf_hack
4014a1b4 g     F .text	0000012d mac_tx_set_htsig
40112bc0 g     F .text	000000bb config_lld_evt_funcs_reset
401384d4 g     F .text	0000009c cnx_do_handoff_internal
40091714 g     F .rwtext.wifi	00000059 write_wifi_dig_gain
400fa060 g     F .text	00000000 FROM_CPU_INTR0
3f412110 g     O .rodata	00000008 hci_evt_le_desc_tab_esp
4014cdd4 g     F .text	0000001d wpa_get_key
3ffc2b28 g     O .data.wifi	0000001e pp_sig_cnt
40015748 g       *ABS*	00000000 r_ea_offset_req
4014fc10 g     F .text	000000ba tlsv1_set_ca_cert
40131eac g     F .text	00000127 scan_start
3ffb9860 g       *ABS*	00000000 lm_env
4013c604 g     F .text	00000011 phy_bt_power_track
40166684 g     F .text	00000014 tls_version_ok
4010f1b0 g     F .text	0000007f r_hci_bt_acl_bdaddr_register_hack
40135cb8 g     F .text	0000002b esp_wifi_sta_prof_is_wpa_internal
40130668 g     F .text	00000060 scan_flush_all_tx_buf
401434bc g     F .text	0000004d lmacSetAcParam
40145e04 g     F .text	00000033 pm_coex_set_reconnect_policy
40127648 g     F .text	00000110 nan_sched_allocate_crbs
3ffc2a94 g     O .data.wifi	00000004 xphyQueue
4013e6bc g     F .text	000002a0 set_rx_sense
4015c0f8 g     F .text	0000001e eap_peer_tls_build_ack
40156878 g     F .text	0000001d os_get_time
40082044 g     F .rwtext	0000003e __default_user_exception
3ffc14e6  w    O .data	0000000a coex_schm_ble_mesh_standby_bt_iscan_wifi_connecting
40119044 g     F .text	0000005b ble_txpwr_get
4015c294 g     F .text	00000010 eap_peer_tls_reset_output
3ffd98d0 g     O .bss	00000030 assoc_ie_buf
4010dc98 g     F .text	000000b8 coex_schm_process_in_active
4015ff50 g     F .text	00000056 wpa_set_pmk
40166230 g     F .text	00000005 pm_noise_check_process
40085c9c g     F .rwtext.wifi	00000402 ppRxFragmentProc
40146f40 g     F .text	0000005c rcGet11GHighestRateIdx
401115a4 g     F .text	00000082 llc_hci_cmd_saved_handle
4008ec0c g     F .rwtext.wifi	00000008 sdk_config_get_opts
40110a7c g     F .text	00000077 config_llc_hci_funcs_reset
40118a74 g     F .text	00000021 config_llm_util_funcs_reset
40148dd0 g     F .text	0000007e hal_agreement_clr_rx_ba
3ffc154c  w    O .data	0000000e coex_schm_ble_mesh_config_bt_default_wifi_connecting
40142954 g     F .text	0000001a esf_buf_recycle_default_handler
40093670 g     F .rwtext.wifi	00000057 ppEnqueueTxDone
40119eb0 g     F .text	00000027 r_vhci_deinit
40116600 g     F .text	00000124 r_llm_init_hack
4008a5f8 g     F .rwtext.wifi	0000000a ea_get_current_elt
40150fc0 g     F .text	0000004f x509_parse_algorithm_identifier
4008b0f4 g     F .rwtext.wifi	000000f7 ld_acl_evt_stop_cbk_hack
40084bf8 g     F .rwtext.wifi	00000014 wdev_mac_special_reg_load
3ffd9304 g     O .bss	00000004 ndp_rxcb
4011c030 g     F .text	00000040 esp_wifi_set_ps
40135ce8 g     F .text	00000029 esp_wifi_sta_prof_is_wpa2_internal
4011b1d8 g     F .text	00000052 coex_schm_init
40026d0c g       *ABS*	00000000 lmp_page_mode_req_handler
4011bc30 g     F .text	000000cc esp_wifi_deinit_internal
4011a520 g     F .text	00000008 coex_disable
4012a738 g     F .text	0000002b nan_sm_handle_event_internal
3ffb80ec g       *ABS*	00000000 ea_env
40140cdc g     F .text	00000076 ram_dc_iq_est
401128c8 g     F .text	0000001f lld_con_term_info_init
401488fc g     F .text	00000016 wDev_isNANPktInValidSlot
40111628 g     F .text	00000061 llc_hci_cmd_resent_handle
40165e74 g     F .text	0000005e nan_dp_construct_device_caps
4013ba74 g     F .text	000000a3 get_rf_freq_cap
3ffd9880 g     O .bss	00000004 g_wpa_pac_file_len
40086fa8 g     F .rwtext.wifi	0000003a pm_check_state
40161688 g     F .text	00000016 base64_decode
3ffd943e g     O .bss	00000001 force_hw_set_freq_flag
40027c08 g       *ABS*	00000000 lmp_ping_req_handler
3f412260 g     O .rodata	0000002c coef_B
40158be0 g     F .text	0000005c pmksa_cache_auth_get
40145084 g     F .text	0000019c pm_tx_null_data_done_process
40130798 g     F .text	00000066 scan_add_probe_ssid
40121c8c g     F .text	00000021 ht_action_output
40089fcc g     F .rwtext.wifi	0000009b coex_sw_event_from_isr
3ffd9428 g     O .bss	00000001 btpwr_tsen_old
4011e188 g     F .text	0000033a wifi_softap_start
40111334 g     F .text	00000217 r_llc_start
4008f1d8 g     F .rwtext.wifi	00000012 r_global_int_disable
4009117c g     F .rwtext.wifi	00000081 ram_set_chan_cal_interp
4012ac98 g     F .text	0000005c nan_send_receive_event
4014dc84 g     F .text	00000049 tlsv1_client_init
40117e74 g     F .text	00000016 ble_ll_scan_set_perfer_addr
4008285c g     F .rwtext.wifi	00000258 ieee80211_output_process
40063820 g       *ABS*	00000000 __cmpdi2
3f412198 g     O .rodata	0000000c hci_cmd_desc_tab_stat_par_esp
401587b8 g     F .text	0000020c wpa_validate_wpa_ie
40166a3c g     F .text	0000002a wpa_cipher_to_alg
40084f34 g     F .rwtext.wifi	0000001e ieee80211_is_tx_allowed
4013c588 g     F .text	00000014 phy_bt_pll_track
4014447c g     F .text	0000000b pm_mac_wakeup
40132028 g     F .text	0000006d scan_parse_ht2040_coex
40128dfc g     F .text	0000002f nan_naf_txcb
4008ec58 g     F .rwtext.wifi	0000000b sdk_config_get_uart_flow_ctrl_enable
400fa060 g     F .text	00000022 EspDefaultHandler
40118f50 g     F .text	000000f4 ble_txpwr_set_inter
4010cec4 g     F .text	00000017 btdm_app_ref_init
40155f28 g     F .text	00000035 sha256_init
400834b0 g     F .rwtext.wifi	000000ee ppSearchTxQueue
40143404 g     F .text	0000000a ic_stop_hw_txq
40142000 g     F .text	0000020d ram_tx_pwr_backoff
4013704c g     F .text	00000040 chm_cancel_op
400542c4 g       *ABS*	00000000 nvds_read
40142e58 g     F .text	0000000c ic_register_michael_mic_failure_cb
40027038 g       *ABS*	00000000 lmp_enc_key_size_mask_req_handler
4011caa0 g     F .text	0000006a wifi_destroy_sta
400fa060 g     F .text	00000000 SPI3
40143554 g     F .text	00000098 lmacInit
4014cdf4 g     F .text	0000000b wpa_deauthenticate
4015a420 g     F .text	00000099 eap_hdr_validate
400fdf9c g     F .text	00000031 ets_timer_arm_us
40162e08 g     F .text	00000026 bignum_exptmod
3ffc15e4  w    O .data	00000006 coex_schm_bt_iscan_wifi_connecting
401452fc g     F .text	00000055 pm_send_probe_stop
40093dc4 g     F .rwtext.wifi	00000091 trc_onPPTxDone
40088038 g     F .rwtext.wifi	0000001a hal_mac_rx_set_dscr_reload
40166c6c g     F .text	0000000d eap_get_config_new_password
40158bb8 g     F .text	00000028 pmksa_cache_auth_deinit
4008a604 g     F .rwtext.wifi	00000015 r_eif_flow_on
4013c5a0 g     F .text	0000005d tsens_read_init
40145354 g     F .text	0000008a pm_on_channel
40111574 g     F .text	00000010 llc_get_hci_pending_pkts
3ffc1644  w    O .data	0000000e coex_schm_ble_mesh_standby_bt_a2dp_paused_wifi_scan
400920c4 g     F .rwtext.wifi	0000004b lmacProcessRxSucData
3ffc1680  w    O .data	0000000a coex_schm_ble_mesh_traffic_bt_sniff_wifi_scan
4011d738 g     F .text	0000035a ieee80211_hostap_send_beacon_process
3ffc14d8  w    O .data	0000000e coex_schm_ble_mesh_standby_bt_conn_wifi_connecting
401157e8 g     F .text	0000000b ble_lld_pkt_err_state_check
40142d50 g     F .text	0000006f ic_obtain_key
400fa060 g     F .text	00000000 TG1_LACT_LEVEL
40144fe4 g     F .text	0000001f pm_disconnected_sleep_delay_timeout_process
3ffc133a  w    O .data	0000000e coex_schm_ble_mesh_standby_bt_default_wifi_conn
400fa060 g     F .text	00000000 SPI1
4013cf34 g     F .text	000000dd chip_v7_set_chan_nomac
400fa060 g     F .text	00000000 RWBLE_NMI
40085a28 g     F .rwtext.wifi	00000018 sta_rx_cb
3ffd9422 g     O .bss	00000001 bt_pwr_cap_sum_old
4014d3d4 g     F .text	00000019 hostap_deinit
4013702c g     F .text	0000001f chm_end_op_timeout_process
3ff80000 g       *ABS*	00000000 _rtc_dummy_start
400fa060 g     F .text	00000000 SPI2
40087fcc g     F .rwtext.wifi	0000000d hal_mac_rx_read_rxdscrnext
4014bb78 g     F .text	000000de sha256_prf_bits
40142f18 g     F .text	0000019b ic_set_vif
40121edc g     F .text	0000006b ieee80211_decap1
400fe180 g     F .text	0000006a esp_timer_get_time
3ffd9898 g     O .bss	00000004 g_wpa_password_len
401279d8 g     F .text	00000057 nan_dp_send_confirm_event
40147e74 g     F .text	00000090 trc_update_ifx_phy_mode
401480c0 g     F .text	0000000f wDev_reset_bcnSendTick
401178e4 g     F .text	000000fc r_llm_test_mode_start_rx
40131fd4 g     F .text	0000004c check_bss_queue
4011bf3c g     F .text	00000044 esp_wifi_connect
4014f8f4 g     F .text	0000004c tlsv12_key_x_server_params_hash
400fa060 g     F .text	00000000 SPI0
4015dc1c g     F .text	000000e7 eap_fast_add_pac
40043808 g       *ABS*	00000000 llcp_length_req_handler
40166940 g     F .text	00000014 ap_sta_hash_add
40090504 g     F .rwtext.wifi	00000062 tsens_code_read
3f4123f0 g     O .rodata	00000038 gNanSm
3ffc1a38 g     O .data	0000000c g_dynamic_cs
4012b3ac g     F .text	0000004c nan_services_deinit
40080a94 g     F .rwtext	00000000 __default_naked_level_5_interrupt
3f412120 g     O .rodata	00000078 hci_cmd_desc_tab_vs_esp
4013e97c g     F .text	0000015a noise_check_loop
40122774 g     F .text	0000003a ieee80211_alloc_challenge
3ffb81fc g       *ABS*	00000000 lc_sco_env
4012fc60 g     F .text	00000062 ieee80211_node_pwrsave
40002d60 g       *ABS*	00000000 __mulvsi3
401370d4 g     F .text	0000000d chm_get_home_channel
3ffc1476  w    O .data	0000000a coex_schm_ble_default_bt_default_wifi_connecting
3ffda990 g     O .bss	00000224 s_dp
400634a0 g       *ABS*	00000000 __negdf2
40084db0 g     F .rwtext.wifi	00000057 hal_mac_tx_config_edca
40165bf4 g     F .text	00000005 r_emi_init
4011d444 g     F .text	000000a8 wifi_log
401400f8 g     F .text	00000056 phy_disable_low_rate
4008f1fc g     F .rwtext.wifi	00000015 coex_bt_request
3ffc1348  w    O .data	0000000a coex_schm_ble_mesh_standby_bt_sniff_wifi_conn
4013f018 g     F .text	00000215 register_chipv7_phy_init_param
40081218 g     F .rwtext	000000ff __level_2_interrupt
40138eb8 g     F .text	000002d0 cnx_bss_alloc
3ffd9442 g     O .bss	00000002 target_power_backoff_qdb
40153668 g     F .text	0000000a crypto_private_key_free
3ffd8fe4 g     O .bss	00000004 btdm_env_p
40093c44 g     F .rwtext.wifi	00000068 ppRecycleAmpdu
4010df40 g     F .text	00000010 config_co_utils_funcs_reset
4008ebfc g     F .rwtext.wifi	0000000a sdk_config_get_mask
40115804 g     F .text	000000a9 lld_pdu_get_tx_flush_nb
4015a3ac g     F .text	00000021 eap_sm_abort
400903e0 g     F .rwtext.wifi	000000c5 btpwr_pll_track
3ffc158e  w    O .data	0000000a coex_schm_ble_mesh_config_bt_iscan_wifi_connecting
40145e84 g     F .text	0000001a xswap
4012677c g     F .text	0000000e config_is_cache_tx_buf_enabled
4012b674 g     F .text	00000795 wifi_nvs_cfg_init
4014c9dc g     F .text	00000018 esp_eap_client_clear_username
40016804 g       *ABS*	00000000 ecc_point_multiplication_uint8_256
4013b3b4 g     F .text	00000099 tkip_encap
4009037c g     F .rwtext.wifi	0000001e phy_get_fetx_delay
4012c208 g     F .text	0000001a wifi_nvs_validate_ap_ssid
401568ac g     F .text	0000001c os_sleep
40080040 g     F .vectors	00000000 _WindowUnderflow4
40089160 g     F .rwtext.wifi	0000017b agc_reg_init
3ffd93f8 g     O .bss	00000004 g_cnx_probe_rc_list_cb
3ffb8345 g       *ABS*	00000000 lm_sync_nego
4013328c g     F .text	0000002a reset_cs_thres
4014a77c g     F .text	00000080 BT_tx_if_init
4008994c g     F .rwtext.wifi	00000050 reg_init_begin
3f415318 g       *ABS*	00000000 _rodata_end
4011b2ac g     F .text	000000ae coex_arbit_init
4012be6c g     F .text	00000166 wifi_nvs_set
4013b668 g     F .text	000000a0 ram_pbus_xpd_tx_on
4014a5f4 g     F .text	000000b3 hal_sniffer_rx_set_promis
4010f054 g     F .text	0000015c r_hci_send_2_host_hack
40089760 g     F .rwtext.wifi	0000016b set_chan_reg
4008f460 g     F .rwtext.wifi	0000003c coex_core_ts_end
3ffc14aa  w    O .data	0000000a coex_schm_ble_mesh_standby_bt_sniff_wifi_connecting
40156cc4 g     F .text	00000012 hostapd_config_free_bss
4012b398 g     F .text	00000013 nan_services_init
40143c1c g     F .text	000000b4 lmacProcessCollision
40147cc4 g     F .text	00000056 rc_disable_trc
3ffc1d98 g     O .data	0000002c g_pm_cfg
3ffb8d40 g       *ABS*	00000000 sw_to_hw
400927dc g     F .rwtext.wifi	00000008 coex_time_diff
4014bd24 g     F .text	00000023 hex2byte
40130748 g     F .text	00000015 scan_remove_bssid
40121ab4 g     F .text	00000135 ieee80211_add_htinfo_body
40092110 g     F .rwtext.wifi	00000094 pm_get_null_max_tx_time
40007d54 g       *ABS*	00000000 ets_printf
40080300 g     F .vectors	00000000 _KernelExceptionVector
4008a070 g     F .rwtext.wifi	00000026 coex_schm_ble_scan_stop_interval_num_get
40088054 g     F .rwtext.wifi	00000027 pm_get_connectionless_status
40092f4c g     F .rwtext.wifi	0000015a lmacSetTxFrame
40132f20 g     F .text	00000032 sta_michael_mic_failure
4008b84c g     F .rwtext.wifi	0000005b r_lld_evt_rx
40084714 g     F .rwtext.wifi	0000032e rcUpdateTxDoneAmpdu2
40159df4 g     F .text	00000022 eap_peer_unregister_methods
40166bf8 g     F .text	0000000f eap_sm_request_identity
3ffdb6b4 g     O .bss	00000004 s_eapol_txdone_cb
40165c18 g     F .text	00000021 coex_version_get_value
3ffd9092 g     O .bss	00000001 g_adv_delay_dis
3ffc1406  w    O .data	0000000e coex_schm_ble_mesh_config_bt_conn_wifi_conn
4011b1c4 g     F .text	0000000b coex_schm_flexible_period_get
3ffc1dc8 g     O .data	000003cc TxRxCxt
401477a8 g     F .text	0000004d TRC_PER_IS_GOOD
3ffc1712  w    O .data	0000000a coex_schm_ble_mesh_standby_wifi_scan
40158b20 g     F .text	00000065 pmksa_cache_free_entry
4000c7d8 g       *ABS*	00000000 __umulsidi3
3ffd98c8 g     O .bss	00000004 g_wpa_anonymous_identity_len
4013e5e4 g     F .text	00000072 chip_sleep_prot_en
3ffd9055 g     O .bss	00000001 lld_adv_to_connected
4012aa3c g     F .text	00000155 nan_construct_subscribe_sdf
400854ec g     F .rwtext.wifi	0000053b sta_input
00000000 g     O .espressif.metadata	00000007 bootloader.NAME
401256f8 g     F .text	00000073 wifi_start_process
400920a4 g     F .rwtext.wifi	0000000f lmacProcessAllTxTimeout
40089600 g     F .rwtext.wifi	0000007a opt_11b_resart
40149504 g     F .text	00000022 hal_mac_tx_set_ppdu
4012ab94 g     F .text	0000002b nan_get_peer_svc_record
401456e0 g     F .text	00000011 pm_on_data_tx_done
40063478 g     F *ABS*	0000003e .hidden __unordsf2
40166d60 g     F .text	00000027 mschapv2_remove_domain
4004692c g       *ABS*	00000000 lld_evt_get_next_free_slot
40088094 g     F .rwtext.wifi	00000028 pm_enable_dream_timer
4015c024 g     F .text	00000030 eap_peer_tls_derive_key
40134ed0 g     F .text	00000a9f sta_recv_mgmt
40082f7c g     F .rwtext.wifi	00000292 lmacEndFrameExchangeSequence
4011bafc g     F .text	00000020 net80211_funcs_deinit
4011c7f8 g     F .text	00000026 ieee80211_freedom_init
4008856c g     F .rwtext.wifi	0000004c pm_connectionless_wake_window_timeout_process
4015db54 g     F .text	00000027 eap_fast_free_pac
3ffc23b0 g     O .data	000000a8 rc11NSchedTbl
40085284 g     F .rwtext.wifi	0000021a ieee80211_ampdu_reorder
40110218 g     F .text	0000008b r_ld_acl_u_dm1_enable_set
40011dc0 g       *ABS*	00000000 lm_n192_mod_mul
40165ed4 g     F .text	0000002c nan_dp_parse_dev_caps
4012f9f8 g     F .text	00000041 ieee80211_psq_take_head
4011b8ec g     F .text	00000072 wifi_check_chan_param
4011c0c4 g     F .text	0000004e esp_wifi_internal_reg_rxcb
40153e24 g     F .text	0000009c des_encrypt
401361fc g     F .text	00000054 esp_wifi_ap_deauth_internal
4011a5c8 g     F .text	000000a5 coex_core_pre_init
40025ab8 g       *ABS*	00000000 lmp_clk_off_res_handler
4013d030 g     F .text	00000066 chip_v7_set_chan_offset
40064a70 g       *ABS*	00000000 __gcc_bcmp
40156224 g     F .text	00000060 sha384_init
4012a858 g     F .text	0000000f nan_sm_start
40133608 g     F .text	00000aa1 ieee80211_sta_new_state
40127278 g     F .text	00000027 nan_tx_action_frame
4005425c g       *ABS*	00000000 lm_hci_cmd_handler_tab_p_get
40156c70 g     F .text	00000037 hostapd_get_psk
40008534 g       *ABS*	00000000 esp_rom_delay_us
3ffc15c0  w    O .data	00000006 coex_schm_bt_sniff_wifi_connecting
4012d4d0 g     F .text	0000008b ieee80211_getcapinfo
400fa060 g     F .text	00000000 level4_interrupt
4011d120 g     F .text	00000141 ieee80211_crypto_aes_128_cmac_decrypt
40165c44 g     F .text	00000007 coex_core_deinit
3ffd942f g     O .bss	00000001 phy_freq_wifi_only
4012109c g     F .text	0000006f ieee80211_recv_bar
4008f5d4 g     F .rwtext.wifi	00000020 coex_core_bb_reset_unlock
3ffc1730  w    O .data	0000000a coex_schm_bt_default_wifi_scan
4015f37c g     F .text	000000fd pmksa_cache_add_entry
4014df10 g     F .text	00000052 tlsv1_client_shutdown
4000cff8 g     F *ABS*	0000003a .hidden __udivdi3
4011b01c g     F .text	0000001b coex_schm_interval_get
3ffc15c6  w    O .data	0000000a coex_schm_bt_a2dp_wifi_connecting
3ffd9770 g     O .bss	00000090 g_wpa_supp
40046818 g       *ABS*	00000000 lld_evt_slave_time_compute
4010ee14 g     F .text	0000001c r_eif_isr
40143820 g     F .text	000001fb lmacProcessShortRetryFail
40093f24 g     F .rwtext.wifi	00000027 coex_schm_lock
4002acf0 g       *ABS*	00000000 lmp_sp_nb_handler
401617d0 g     F .text	0000001b wpabuf_clear_free
3ffc143c  w    O .data	0000000a coex_schm_bt_default_wifi_conn
40111944 g     F .text	0000013c r_llc_pdu_defer
40084c3c g     F .rwtext.wifi	00000089 wdev_mac_wakeup
40158cf4 g     F .text	0000004a ap_sta_add
40114f9c g     F .text	0000002c esp_ble_adv_aa_setting
40125f68 g     F .text	00000062 wifi_nan_set_config_local
4011013c g     F .text	00000010 config_ke_msg_funcs_reset
4012401c g     F .text	00000070 _do_wifi_stop
401212e0 g     F .text	000000a8 ieee80211_has_ht40_bss
40146ae8 g     F .text	00000040 ppClearTxq
40148c80 g     F .text	00000022 wDev_Crypto_Disable
40143398 g     F .text	00000018 ic_set_rx_policy_ubssid_check
40161474 g     F .text	00000126 wpa_supplicant_parse_ies
4014a734 g     F .text	0000001b hal_disable_nan_tsf
40124370 g     F .text	000000bc ieee80211_sta_connect
40142718 g     F .text	00000170 ram_phy_get_vdd33
40138a5c g     F .text	000000bf cnx_remove_rc
4013bb30 g     F .text	00000107 correct_rfpll_offset
4010dd50 g     F .text	0000002d coex_schm_process
3ffc21f4 g     O .data	00000048 rc11BSchedTbl
400808dc g     F .rwtext	00000000 __naked_user_exception
4014fcec g     F .text	00000109 tlsv1_set_private_key
40027aec g       *ABS*	00000000 lmp_passkey_fail_handler
40128e30 g     F .text	0000004f nan_sched_init_availability
40135c20 g     F .text	0000000f esp_wifi_ap_get_prof_password_internal
40132f5c g     F .text	00000047 ieee80211_wme_standard_ac_to_esp_ac
40084ccc g     F .rwtext.wifi	0000002e wdev_is_data_in_rxlist
50000000 g       *ABS*	00000000 _rtc_slow_data_start
40086720 g     F .rwtext.wifi	0000000a ic_mac_init
400fb08c g     F .text	0000008a __pender
400800c0 g     F .vectors	00000000 _WindowUnderflow8
4012a87c g     F .text	000001be nan_construct_publish_sdf
4000c84c g     F *ABS*	00000035 .hidden __lshrdi3
3ffc2470 g     O .data	0000000c BasicOFDMSched
40080180 g     F .vectors	00000000 _Level2InterruptVector
4014ca9c g     F .text	0000000d esp_eap_client_set_disable_time_check
4014fccc g     F .text	00000020 tlsv1_set_cert
3ffd942c g     O .bss	00000001 phy_bt_power_track_en
40162c78 g     F .text	00000093 bignum_get_unsigned_bin
3f4137dc g     O .rodata	00000074 g_wifi_default_wpa_crypto_funcs
40134624 g     F .text	00000676 sta_recv_assoc
3ff80000 g       *ABS*	00000000 _rtc_fast_bss_start
4011a894 g     F .text	0000002b coex_gpio_init
4011c7d4 g     F .text	0000001e ieee80211_rate_ref_init
4014d118 g     F .text	0000001a wpa_sm_deauthenticate
401560c8 g     F .text	00000040 sha256_vector
3ffb8308 g       *ABS*	00000000 ld_pscan_env
40131818 g     F .text	0000003e free_bss_info
3ffae704 g       *ABS*	00000000 co_default_bdaddr
4014ce00 g     F .text	0000003d wpa_config_profile
4015273c g     F .text	0000002a aes_encrypt_init
4010fef0 g     F .text	00000148 r_huart_deinit
4014321c g     F .text	00000013 ic_deinit
40103304 g     F .text	00000025 rtc_printf
40146740 g     F .text	0000004f ppEnableQueue
40092ad0 g     F .rwtext.wifi	000000ed ieee80211_set_tx_desc
40090690 g     F .rwtext.wifi	00000036 chan_to_freq
4014bd70 g     F .text	00000056 wpa_get_ntp_timestamp
4014d55c g     F .text	00000085 tls_connection_set_params
4011b270 g     F .text	00000020 coex_timer_deinit
3f40c094 g     O .rodata	000001e0 g_wifi_osi_funcs
40148ca4 g     F .text	0000000d wdev_is_mgmt_hwdecr_enabled
4013429c g     F .text	0000013a sta_auth_shared
40126a44 g     F .text	00000014 nan_set_update_sdf_pending
40001808 g       *ABS*	00000000 times
40083210 g     F .rwtext.wifi	0000001c is_lmac_idle
40161888 g     F .text	00000176 asn1_get_next
3ffd8784 g     O .bss	00000001 _ESP_HAL_DEVICE_PERIPHERALS
3ffd9444 g     O .bss	00000001 phy_set_most_tpw_flag
40084e10 g     F .rwtext.wifi	00000024 hal_mac_txq_enable
40082c50 g     F .rwtext.wifi	0000004a lmacAdjustTimestamp
40164028 g     F .text	000000d5 md4_vector
3ffc146a  w    O .data	00000006 coex_schm_bt_iscan_wifi_conn
40112884 g     F .text	0000003d lld_evt_elt_remove
40136608 g     F .text	00000016 esp_wifi_unset_appie_internal
4008905c g     F .rwtext.wifi	00000098 tx_paon_set
40082084 g     F .rwtext	0000003e __default_interrupt
4012756c g     F .text	00000031 nan_sched_in_ndc_slot
40166bd8 g     F .text	0000001e eap_deinit_prev_method
40084fbc g     F .rwtext.wifi	0000001e wdev_bank_store
4013672c g     F .text	000000bc esp_wifi_set_igtk_internal
3ffc1780 g     O .data	00000001 TmpSTAAPCloseAP
3ffd91c0 g     O .bss	00000004 wifi_sta_rx_probe_req
4009026c g     F .rwtext.wifi	00000083 phy_unforce_wifi_chan
40088018 g     F .rwtext.wifi	0000000d hal_mac_rx_get_last_dscr
4014d7ec g     F .text	00000023 tlsv1_client_free_dh
4010305c g     F .text	00000062 misc_nvs_init
4012f72c g     F .text	00000115 ieee80211_setup_ratetable
401010c0 g     F .text	0000008f RWBT
4001c99c g       *ABS*	00000000 r_lc_reset
40134d24 g     F .text	00000169 sta_try_sa_query_process
4011b750 g     F .text	0000019a wifi_softap_get_config
40114374 g     F .text	0000051a r_lld_adv_start
4014d09c g     F .text	00000058 wpa_supplicant_transition_disable
4012a784 g     F .text	0000000f nan_scan_timeout_process
40064bf4 g     F *ABS*	00000045 .hidden __udivmoddi4
3ffdc9ec g     O .bss	00000028 phy_version_str
4014cff8 g     F .text	0000004a wpa_ether_send
40090984 g     F .rwtext.wifi	00000029 ram_set_rxclk_en
40043ba8 g       *ABS*	00000000 llcp_unknown_rsp_handler
4002629c g       *ABS*	00000000 lmp_incr_pwr_req_handler
40152720 g     F .text	0000001a aes_decrypt_deinit
401283f0 g     F .text	00000044 nan_send_ndp_confirm
400908c8 g     F .rwtext.wifi	0000001b ram_enable_agc
40135d38 g     F .text	00000029 esp_wifi_sta_prof_is_rsn_internal
4013017c g     F .text	00000061 ieee80211_add_countryie
401593f0 g     F .text	00000077 wpa_cipher_to_suite
4015fb88 g     F .text	00000030 wpa_sm_set_pmk_from_pmksa
400905e4 g     F .rwtext.wifi	00000038 bt_track_tx_power
401667d4 g     F .text	00000032 x509_sha1_oid
4008ff98 g     F .rwtext.wifi	00000100 phy_force_wifi_chan
4011d274 g     F .text	000001b7 ieee80211_crypto_gmac_decrypt
3ffdca2c g     O .bss	00000008 phy_chan_gain_table
40085b4c g     F .rwtext.wifi	0000006e pm_enable_active_timer
400ff13c g     F .text	000000b7 free
3ffd93f1 g     O .bss	00000001 g_authmode_threshold_failure
40090ef4 g     F .rwtext.wifi	00000010 bb_wdt_get_status
4012d058 g     F .text	0000001e ieee80211_add_probe_req_ies
40127de4 g     F .text	0000007a nan_dp_setup_peer
3ffd9884 g     O .bss	00000004 g_wpa_pac_file
3ffd9056 g     O .bss	00000014 lld_con_llcp_ind
3ffd8fbc g     O .bss	00000004 g_log_level
40142e84 g     F .text	0000000d ic_is_mgmt_hwdecr_enabled
4000c7c8 g     F *ABS*	00000031 .hidden __udivsi3
0000000c g     O .espressif.metadata	00000006 espflash.LOG_FORMAT
3ffdca14 g     O .bss	00000001 phy_dac_org
40149a94 g     F .text	0000005d mac_last_rxbuf_init
40143a24 g     F .text	00000058 lmacProcessCtsTimeout
4014899c g     F .text	000001d5 wDev_Rxbuf_Init
4014c66c g     F .text	000001e4 wpa2_task
40010234 g       *ABS*	00000000 r_bt_util_buf_acl_rx_free
3ffc0000 g       *ABS*	00000000 _data_start
40082f28 g     F .rwtext.wifi	00000023 lmacRecycleMPDU
4014f694 g     F .text	00000027 tls_get_cipher_data
40147360 g     F .text	0000007a rcLowerSched
4015f580 g     F .text	0000003a pmksa_cache_get
40142dec g     F .text	0000000e ic_ebuf_recycle_tx
40143460 g     F .text	0000001b lmacIsIdle
40161798 g     F .text	0000001c wpabuf_dup
40088714 g     F .rwtext.wifi	00000011 i2c_bbpll_init
4008c440 g     F .rwtext.wifi	0000008e lld_adjust_after_reset
3ffd9453 g     O .bss	00000001 g_pp_tx_pkt_num
4002fd8c g       *ABS*	00000000 ld_acl_rx_sync2
3ffc1470  w    O .data	00000006 coex_schm_bt_idle_wifi_conn
401334c0 g     F .text	0000000e sta_is_11r_enabled
40112980 g     F .text	0000002f coex_ble_lld_last_terminate_evt_wait_reset
40084f18 g     F .rwtext.wifi	0000001c hal_mac_tx_is_cbw40
40136840 g     F .text	0000000e esp_wifi_skip_supp_pmkcaching
401474c4 g     F .text	000000e1 trc_onAmpduOp
40158614 g     F .text	00000032 wpa_write_rsnxe
401290dc g     F .text	0000005f nan_dp_schedule_ndc_start
40143238 g     F .text	00000057 ic_init
4000c9fc g     F *ABS*	00000037 .hidden __muldi3
400026e4 g     F *ABS*	0000003b .hidden __subdf3
401188bc g     F .text	000001af r_llm_pdu_defer
40100a00 g     F .text	000000f5 atoi
40080100 g     F .vectors	00000000 _WindowOverflow12
4008b470 g     F .rwtext.wifi	00000037 r_llc_llcp_recv_handler_hack
40166e94 g     F .text	0000000a pmksa_cache_get_current
3ffd943c g     O .bss	00000001 chan14_mic_en
40135994 g     F .text	0000000f esp_wifi_ap_get_prof_pmk_internal
40063704 g     F *ABS*	0000004d .hidden __ledf2
40128658 g     F .text	00000048 nan_dp_chan_from_bitmap
3ffb80e0 g       *ABS*	00000000 co_null_bdaddr
3ffd91c8 g     O .bss	00000040 g_hmac_cnt
400843f8 g     F .rwtext.wifi	000001d3 ppTask
40158424 g     F .text	00000027 wpa_ap_remove
401275a0 g     F .text	00000034 nan_sched_is_peer_available
4011c478 g     F .text	00000018 esp_wifi_set_tx_done_cb
40125de8 g     F .text	00000018 wifi_set_appie_process
4014d4f0 g     F .text	00000037 tls_connection_init
3ffdc800 g     O .bss	00000014 bt_wifi_chan_data
40135c90 g     F .text	0000000e esp_wifi_sta_get_reset_param_internal
4002fe78 g       *ABS*	00000000 ld_acl_rx_no_sync
3ffd9440 g     O .bss	00000001 phy_set_most_tpw_index
40147d3c g     F .text	0000005a rc_get_trc_by_index
40002590 g     F *ABS*	00000037 .hidden __adddf3
401430e0 g     F .text	00000019 ic_add_rx_ba
3ffc1a44 g     O .data	00000001 send_deauth
40162d78 g     F .text	00000018 bignum_add
4012a804 g     F .text	00000013 nan_faw_end_process
40002954 g     F *ABS*	00000037 .hidden __divdf3
3ffc2c10 g       *ABS*	00000000 _bss_start
4011b500 g     F .text	0000000b wifi_is_stop_in_progress
4014fe58 g     F .text	0000004b tlsv1_record_change_write_cipher
40091888 g     F .rwtext.wifi	000000a0 tx_gain_table_set
40148b74 g     F .text	00000008 wDev_disable_low_rate
4011d578 g     F .text	000000b6 ieee80211_hostapd_beacon_txcb
4012a7dc g     F .text	00000013 nan_send_action_process
40146898 g     F .text	000000b0 ppCheckTxIdle
40114fd0 g     F .text	00000017 scan_channel_setting_state_check
4013e340 g     F .text	00000228 set_rx_gain_testchip_70
4010deec g     F .text	0000004e config_btdm_funcs_reset
40139540 g     F .text	000000ca cnx_node_alloc
401269e4 g     F .text	00000026 nan_flush_action_q
40100b6c g     F .text	000001b6 mktime
40091648 g     F .rwtext.wifi	00000047 get_rate_target_power
40082044 g     F .rwtext	00000000 Profiling
4000ca2c g       *ABS*	00000000 __ffsdi2
40111254 g     F .text	0000001f r_llc_init_hack
40027b84 g       *ABS*	00000000 lmp_oob_fail_handler
401366f4 g     F .text	00000022 esp_wifi_sta_get_mgmt_group_cipher
4011bac4 g     F .text	00000037 net80211_funcs_init
40064b64 g       *ABS*	00000000 __clrsbsi2
40090624 g     F .rwtext.wifi	0000005f bt_track_pll_cap
40144690 g     F .text	0000004c pm_wake_done
40160db0 g     F .text	00000022 wpa_sta_cur_pmksa_matches_akm
401435f4 g     F .text	0000006f lmacEndRetryAMPDUFail
4013810c g     F .text	00000089 cnx_remove_from_blacklist
40119c74 g     F .text	0000002b r_flash_erase
4015fb14 g     F .text	0000001d wpa_sm_set_state
400896a4 g     F .rwtext.wifi	000000ab phy_reg_init
4012ade4 g     F .text	0000007d nan_match_filters
4012855c g     F .text	0000001b nan_dp_parse_ndla
40165d5c g     F .text	0000003e ampdu_dispatch_movement
40091efc g     F .rwtext.wifi	000000e4 tx_pwctrl_background
4013ee78 g     F .text	000000bf analog_gain_init
3ffd90f8 g     O .bss	00000004 le_send_adv_reserved_func
40126dbc g     F .text	00000010 nan_rx_cb
401453e0 g     F .text	00000085 pm_update_params
3ffd934c g     O .bss	00000001 in_rssi_adjust
4008324c g     F .rwtext.wifi	0000008d ppTxProtoProc
4011cb5c g     F .text	0000001a ieee80211_find_ie
400542fc g       *ABS*	00000000 nvds_write
401668f0 g     F .text	00000007 crypto_public_key_from_cert
40004100 g       *ABS*	00000000 phy_get_romfuncs
3ffd933c g     O .bss	00000004 sta_rxcb
40033734 g       *ABS*	00000000 ld_acl_sniff_trans_sched
4011d010 g     F .text	000000fe ieee80211_crypto_aes_128_cmac_encrypt
40089cbc g     F .rwtext.wifi	000000e4 r_assert_err
40163948 g     F .text	0000002e generate_authenticator_response
4013e588 g     F .text	0000002b set_tx_gain_table_bt
3ffc1660  w    O .data	0000000a coex_schm_ble_mesh_standby_bt_iscan_wifi_scan
40149c78 g     F .text	000000be hal_mac_rx_set_policy
3ffc1774 g     O .data	00000004 WIFI_MESH_EVENT
400fa060 g     F .text	00000000 I2S0
3ffd9328 g     O .bss	00000014 sta_csa_timer
401663e0 g     F .text	0000003b rcSetTxAmpduLimit
40135e94 g     F .text	0000007f esp_wifi_wpa_ptk_init_done_internal
40118514 g     F .text	0000003c llm_clear_adv
40128b04 g     F .text	000000f0 nan_parse_ndp_resp
4003482c g       *ABS*	00000000 ld_acl_sniff_frm_cbk
40124d9c g     F .text	0000001c chip_enable
400fa060 g     F .text	00000000 I2S1
4010d87c g     F .text	000003a1 btdm_controller_init
4011c11c g     F .text	00000037 wifi_event_post
40026a54 g       *ABS*	00000000 lmp_max_slot_handler
4009357c g     F .rwtext.wifi	00000010 pm_on_data_tx
40132ef0 g     F .text	0000001a wifi_sta_reg_eapol_txdone_cb
40165fb4 g     F .text	00000036 ieee80211_gettid
3ffd8ff8 g     O .bss	00000004 ea_prog_timestamp_latest
4014336c g     F .text	0000000d ic_get_random
4008e04c g     F .rwtext.wifi	0000001a btdm_rf_bb_reg_init
40127a60 g     F .text	0000001f nan_dp_node_available
4003aba4 g       *ABS*	00000000 ld_inq_sched
40166558 g     F .text	00000007 tls_connection_enable_workaround
401030c0 g     F .text	00000079 puts
4014fdf8 g     F .text	0000005e tlsv1_record_set_cipher_suite
4014d044 g     F .text	00000058 hostapd_send_eapol
401372bc g     F .text	000000d4 chm_init
40150f40 g     F .text	0000001b x509_certificate_chain_free
4014cc00 g     F .text	00000008 wpa_config_done
3ffda830 g     O .bss	00000158 s_ni
4013960c  w    F .text	000000bf cnx_node_remove
3ffc1494  w    O .data	00000016 coex_schm_ble_mesh_standby_bt_default_wifi_connecting
400fa060 g     F .text	00000000 MMU_IA
40152228 g     F .text	000000df aes_decrypt_init
401361e0 g     F .text	0000001b esp_wifi_get_macaddr_internal
3ffd9446 g     O .bss	00000002 phy_meas_noise_floor
400284a8 g       *ABS*	00000000 lc_pwr_incr_ind_handler
4016177c g     F .text	0000001a wpabuf_alloc_copy
4010edcc g     F .text	00000019 r_eif_deinit
400808dc g     F .rwtext	00000000 __default_naked_exception
3ffd921c g     O .bss	00000008 g_beacon_eb
4015f1b8 g     F .text	00000030 eap_fast_tlv_eap_payload
401334f0 g     F .text	00000065 sta_update_power_off_reset_flag
40127b98 g     F .text	0000006a nan_dp_get_peer_ndp
3ff98b58 g       *ABS*	00000000 TASK_DESC_LLD
4014933c g     F .text	00000095 hal_crypto_enable
40090954 g     F .rwtext.wifi	00000029 ram_set_txclk_en
40089ddc g     F .rwtext.wifi	000001a0 r_assert_param
3ffc16bc  w    O .data	0000000a coex_schm_ble_mesh_traffic_bt_iscan_wifi_scan
3f41400c g     O .rodata	00000400 Te0
3ffd9439 g     O .bss	00000001 init_wifi_disable
4014fbdc g     F .text	00000032 tlsv1_cred_free
40121770 g     F .text	00000167 ieee80211_ht_updateparams
40122624 g     F .text	000000da ieee80211_setup_phy_mode
4014bc78 g     F .text	00000092 sha1_prf
40153edc g     F .text	00000028 des_block_encrypt
3ffdca16 g     O .bss	00000002 pwrdet_offset
400417b4 g       *ABS*	00000000 hci_le_rd_rem_used_feats_cmd_handler
40144418 g     F .text	0000000f pm_register_pm_tx_null_cb
401008c0 g     F .text	00000038 fopen
400903a0 g     F .rwtext.wifi	0000002c get_temp_cal
40149a38 g     F .text	00000041 hal_mac_set_rxq_policy
4012b1c0 g     F .text	00000036 nan_get_service_by_id
4010d814 g     F .text	0000004a btdm_controller_enable
4013b76c g     F .text	00000040 ram_wait_rfpll_cal_end
4014cfe8 g     F .text	0000000d wpa_free_eapol
401665c8 g     F .text	0000000e tlsv1_client_resumed
40131cb8 g     F .text	00000068 scan_inter_channel_timeout_process
4013ab9c g     F .text	0000009b ieee80211_recv_action
40084f54 g     F .rwtext.wifi	00000020 ppEmptyDelimiterLength
3ffb8342 g       *ABS*	00000000 lm_nego_cntl
3ffc13ac  w    O .data	0000000e coex_schm_ble_mesh_traffic_bt_a2dp_paused_wifi_conn
400fa060 g     F .text	00000000 TG1_T0_EDGE
400921a8 g     F .rwtext.wifi	00000136 pp_post
40121f4c g     F .text	00000104 ieee80211_decap_amsdu
40146060 g     F .text	00000088 ppAssembleMicHdr
40146d6c g     F .text	00000046 RC_GetBlockAckTime
40124dbc g     F .text	0000001c chip_disable
3ffc1764  w    O .data	00000006 coex_schm_bt_idle_wifi_scan
40143444 g     F .text	0000000a ic_delete_wifi_task
4011a528 g     F .text	00000011 coex_register_bt_cb
40150020 g     F .text	0000018f tlsv1_record_receive
401433d4 g     F .text	0000000d ic_set_interface
40145f18 g     F .text	0000000f ppRegisterTxDoneUserActionCallback
3ffc1352  w    O .data	0000000e coex_schm_ble_mesh_standby_bt_a2dp_wifi_conn
4000c944 g     F *ABS*	00000031 .hidden __floatsidf
401477fc g     F .text	0000006e TRC_AMPDU_PER_DOWN_THRESHOLD
3ffc2a98 g     O .data.wifi	00000090 bars
40146c78 g     F .text	0000001a pp_timer_process
4008b8f8 g     F .rwtext.wifi	0000045e r_lld_evt_end
4014ce40 g     F .text	00000035 wpa_config_bss
40086c68 g     F .rwtext.wifi	00000035 pm_disable_beacon_monitor_timer
400922e4 g     F .rwtext.wifi	00000013 wifi_gpio_debug
3ffc1ca0 g     O .data	000000c8 g_eb_list_desc
40126a34 g     F .text	0000000d wifi_nan_reg_rxcb
40166c30 g     F .text	0000000d eap_get_config_identity
40086480 g     F .rwtext.wifi	0000007f wifi_rf_phy_enable
40026388 g       *ABS*	00000000 lmp_min_pwr_handler
4011b4dc g     F .text	0000000d esp_wifi_send_deauth_local
401289e0 g     F .text	0000011a nan_parse_ndp_req
40166578 g     F .text	0000003a tls_client_highest_ver
4010cc44  w    F .text	00000031 .hidden __divsf3
40048ea0 g       *ABS*	00000000 r_lld_adv_stop
4012e244 g     F .text	0000006c ieee80211_output_pending_eb
4012c7d4 g     F .text	00000033 ieee80211_set_hmac_stop
401250a8 g     F .text	000001e2 wifi_set_mode_process
4009363c g     F .rwtext.wifi	0000002a ppTxqUpdateBitmap
400872e4 g     F .rwtext.wifi	000000e3 pm_tbtt_process
40165bec g     F .text	00000005 r_syscntl_init
3ffd98a4 g     O .bss	00000004 g_wpa_ca_cert
40123a1c g     F .text	000000de ieee80211_ioctl_process
40087b44 g     F .rwtext.wifi	000002f5 wDev_ProcessRxSucData
40158c3c g     F .text	0000001c pmksa_cache_auth_init
3ffc15a2  w    O .data	0000000a coex_schm_ble_mesh_traffic_wifi_connecting
400fa060 g     F .text	00000000 TG1_LACT_EDGE
40156ae4 g     F .text	000000e4 eloop_run
40152768 g     F .text	000003ea aes_encrypt
40143134 g     F .text	00000017 ic_set_ac_param
4014c980 g     F .text	00000018 esp_eap_client_clear_identity
4008f1ec g     F .rwtext.wifi	0000000f r_global_int_restore
3ffc1c14 g     O .data	00000018 ccmp
4014c140 g     F .text	00000014 eap_client_get_eap_state
401641ac g     F .text	00000029 chap_md5
4011c290 g     F .text	00000023 esp_wifi_get_event_mask
4013d014 g     F .text	0000001b chip_v7_set_chan
40082034 g     F .rwtext	0000000d __default_exception
4011d640 g     F .text	0000000e hostap_handle_timer
40117e98 g     F .text	00000259 llm_update_duplicate_scan_exceptional_list
400801c0 g     F .vectors	00000000 _Level3InterruptVector
40166c18 g     F .text	0000000f eap_sm_request_new_password
40131248 g     F .text	0000002f scan_reset_cipher_and_akm
40127b4c g     F .text	00000041 nan_dp_remove_node
3ffb8344 g       *ABS*	00000000 lm_nego_cnt
4013023c g     F .text	0000000b ieee80211_regdomain_ap_min_chan
401497fc g     F .text	00000236 mac_txrx_init
40148c54 g     F .text	0000002a wDev_remove_KeyEntry_all_cnx
40083ff8 g     F .rwtext.wifi	000003c3 ppResortTxAMPDU
40144d2c g     F .text	000001a5 pm_coex_schm_process
4002c5c8 g       *ABS*	00000000 lmp_keypress_notif_handler
40165b3c g     F .text	00000005 config_ke_funcs_reset
4016692c g     F .text	00000012 wpa_auth_uses_mfp
4008aa34 g     F .rwtext.wifi	000000a5 huart_read
400fa060 g     F .text	00000000 LEDC
40093f10 g     F .rwtext.wifi	0000000d coex_status_get
4005cfec g       *ABS*	00000000 esp_rom_crc32_le
4012cff8 g     F .text	0000001f ieee80211_add_beacon_app_ies
4012fed4 g     F .text	00000060 ieee80211_get_chan_info
40124098 g     F .text	000000a6 _do_wifi_start
4012ff3c g     F .text	0000004c ieee80211_is_40mhz_valid_bw
40144ee8 g     F .text	000000be pm_coex_slice_timeout_process
40027900 g       *ABS*	00000000 lmp_ssr_res_handler
3ffc1b4c g     O .data	00000004 g_chm
401272a0 g     F .text	0000002d nan_tx_queued_action_frames
4008f5a0 g     F .rwtext.wifi	00000032 coex_core_bb_reset_lock
3ffc1432  w    O .data	0000000a coex_schm_ble_mesh_config_wifi_conn
40027a74 g       *ABS*	00000000 lmp_num_comparison_fail_handler
40166ce4 g     F .text	00000013 eap_get_id
40082bd0 g     F .rwtext.wifi	0000007e lmacMSDUAged
40161444 g     F .text	00000030 wpa_gen_rsnxe
401406dc g     F .text	0000002e ram_txcal_work_mode
40119ccc g     F .text	0000002a r_flash_read
40146df0 g     F .text	0000001b rx11NRate2AMPDULimit
4015a2f8 g     F .text	00000076 eap_sm_buildIdentity
3ffc1386  w    O .data	0000000e coex_schm_ble_mesh_traffic_bt_default_wifi_conn
4014347c g     F .text	0000001a lmacGetTxFrame
4011543c g     F .text	0000008c r_lld_scan_start_hack
40145fb0 g     F .text	000000b0 ppCheckTxConnTrafficIdle
40165a40 g     F .text	00000032 sprintf
3ffd9560 g     O .bss	00000048 g_pm_cnt
40135ff8 g     F .text	00000012 esp_wifi_get_hostap_private_internal
40153548 g     F .text	0000009d crypto_mod_exp
3ffc1506  w    O .data	0000000a coex_schm_ble_mesh_traffic_bt_sniff_wifi_connecting
50000000 g       *ABS*	00000000 _rtc_slow_persistent_start
40117ae0 g     F .text	00000272 r_llm_set_adv_param
401475a8 g     F .text	00000020 trc_set_per_pkt_rate
40136fb8 g     F .text	00000026 chm_deinit
4012fdb8 g     F .text	000000e7 ieee80211_mlme_connect_bss
4012d080 g     F .text	00000084 ieee80211_add_wme_param
3ffc1c78 g     O .data	00000001 phy_in_most_power_bk
40114fec g     F .text	00000048 scan_channel_setting
40134178 g     F .text	0000011b sta_auth_open
4012e07c g     F .text	00000059 ieee80211_deauth_construct
4011c5b4 g     F .text	00000034 ieee80211_freedom_inside_cb
40129ebc g     F .text	0000000e nan_send_started_event
4012a82c g     F .text	00000017 nan_sm_init
4014e03c g     F .text	0000003e tlsv1_client_get_version
40149228 g     F .text	00000098 hal_crypto_get_key_entry
4015a3d0 g     F .text	0000001a eap_set_config_blob
40084e94 g     F .rwtext.wifi	0000000d hal_random
40032050 g       *ABS*	00000000 ld_acl_test_mode_update
40160e44 g     F .text	00000045 wpa_sm_set_assoc_rsnxe
4011c3e0 g     F .text	00000033 esp_wifi_internal_on_coex_start
400fa060 g     F .text	00000000 MPU_IA
3f400020 g     O .rodata_desc	00000100 esp_app_desc
4011ba88  w    F .text	00000036 net80211_softap_funcs_init
40151370 g     F .text	0000001c x509_sha384_oid
4012acf8 g     F .text	00000027 nan_static_sdfs_present
40135f44 g     F .text	00000013 esp_wifi_register_wpa2_cb_internal
4010fbec g     F .text	000002fe r_huart_init
40088510 g     F .rwtext.wifi	0000005a pm_connectionless_wake_interval_timeout_process
40026c84 g       *ABS*	00000000 lmp_setup_cmp_handler
4011b190 g     F .text	0000000c coex_schm_process_restart
4000c2c8 g     F *ABS*	00000031 .hidden memcpy
4012edc4 g     F .text	00000235 ieee80211_send_probereq
40043f64 g       *ABS*	00000000 llcp_pdu_handler_tab_p_get
4011a4e8 g     F .text	00000017 coex_pre_init
400fa060 g     F .text	00000000 TG1_WDT_EDGE
40162c24 g     F .text	00000020 bignum_init
40033814 g       *ABS*	00000000 ld_acl_resched
400636a8 g     F *ABS*	0000004d .hidden __nedf2
40086b24 g     F .rwtext.wifi	000000cf pm_beacon_monitor_tbtt_start
401599f4 g     F .text	0000006e aes_gcm_ae
40087fe0 g     F .rwtext.wifi	00000010 hal_mac_rx_set_base
40146fa0 g     F .text	00000038 rcGet11BHighestRateIdx
40114f70 g     F .text	0000002c esp_ble_scan_aa_setting
40025a44 g       *ABS*	00000000 lmp_clk_off_req_handler
40135dd8 g     F .text	00000029 ieee80211_set_sta_gtk_index
401359d0 g     F .text	0000001e esp_wifi_sta_get_ap_info_prof_pmk_internal
3ffc168a  w    O .data	00000016 coex_schm_ble_mesh_traffic_bt_a2dp_wifi_scan
401669f4 g     F .text	00000045 wpa_cipher_key_len
4016389c g     F .text	0000002c generate_nt_response_pwhash
3ffdc7ec g     O .bss	00000008 ctx
4000c7f0 g     F *ABS*	0000002f .hidden __ctzsi2
4013dbd4 g     F .text	000001c3 rx_chan_dc_sort
4012798c g     F .text	0000004b nan_dp_send_indication_event
40084678 g     F .rwtext.wifi	00000067 rcUpdateTxDone
4008ac0c g     F .rwtext.wifi	00000056 r_ke_msg_send
401340b8 g     F .text	000000ae sta_auth_ft
401660c0 g     F .text	00000029 wep_decap
40163388 g     F .text	00000123 crypto_rsa_import_private_key
40135f14 g     F .text	0000000a esp_wifi_auth_done_internal
3ffd9028 g     O .bss	00000004 l2cap_start
40086fe4 g     F .rwtext.wifi	00000081 pm_keep_alive
40124e48 g     F .text	00000107 wifi_hw_start
3f41237a g     O .rodata	00000006 NAN_NETWORK_ID
40165e14 g     F .text	00000007 wifi_station_get_reconnect_policy
40080200 g     F .vectors	00000000 _Level4InterruptVector
3ffd93ef g     O .bss	00000001 reconnect_flag
4013eaec g     F .text	0000007b chip_v7_set_chan_misc
40044ee0 g       *ABS*	00000000 r_llc_common_cmd_status_send
40146a1c g     F .text	000000c9 pp_attach
3ffd924e g     O .bss	00000001 g_mac_sleep_en
40165e0c  w    F .text	00000007 adc2_wifi_release
4011949c g     F .text	00000013 config_rwbtdm_funcs_reset
40152b70 g     F .text	0000032b rijndaelKeySetupEnc
4013e95c g     F .text	00000014 read_hw_noisefloor
40138e4c g     F .text	00000046 cnx_handshake_timeout_process
401361d4 g     F .text	0000000c esp_wifi_register_eapol_txdonecb_internal
40145db8 g     F .text	0000002d pm_enable_sta_disconnected_power_management
40119b04 g     F .text	0000000e sdk_config_set_bt_mode
4003c294 g       *ABS*	00000000 r_ld_init
3ffdca48 g     O .bss	000000c0 eb_space
40133424 g     F .text	00000072 sta_bip_check
40160c4c g     F .text	0000013a eapol_txcb
3ffd9250 g     O .bss	000000b0 esp_mesh_quick_funcs
4010cccc  w    F .text	0000003e .hidden strlen
401368a0 g     F .text	0000006a esp_wifi_send_mgmt_frm_internal
4013b500 g     F .text	00000066 ieee80211_getbcnframe
3ffd90b0 g     O .bss	0000000a event_empty
3ffd93ee g     O .bss	00000001 ap_no_lr
40118bf0 g     F .text	00000008 config_btdm_lm_task_funcs_reset
40086af8 g     F .rwtext.wifi	00000025 pm_save_tbtt_info
4008fcdc g     F .rwtext.wifi	00000065 coex_arbit_delete
401660ec g     F .text	00000005 ram_rfpll_reset
401381a4 g     F .text	000000ac cnx_add_to_blacklist
3ffd90fc g     O .bss	00000004 r_osi_funcs_p
401252c0 g     F .text	000001a6 wifi_menuconfig_init
401196a0 g     F .text	00000073 r_rwip_reset_ext
40155db8 g     F .text	0000001d hmac_sha1
3f412386 g     O .rodata	00000004 NAN_ACTION_OUI
400fa060 g     F .text	00000000 WDT
3ffc15fa  w    O .data	0000000a coex_schm_ble_default_bt_a2dp_wifi_scan
4015213c g     F .text	0000006b aes_128_cbc_encrypt
4014634c g     F .text	0000007f ppCheckTxAMPDUlength
3ffdcb08 g     O .bss	00000028 if_ctrl
4011154c g     F .text	00000026 llc_peer_conn_param_req_not_support_get
40119a90 g     F .text	00000048 config_rwip_funcs_reset
3ffc1c5c g     O .data	00000018 wep
40148b7c g     F .text	00000008 wDev_enable_low_rate
401429c8 g     F .text	00000096 esf_buf_free_static
40126894 g     F .text	0000007a nan_mgmt_txcb
40120f00 g     F .text	00000049 ieee80211_ampdu_start_age_timer
4012e044 g     F .text	00000031 ieee80211_get_robustmgtframe
40002b90 g     F *ABS*	00000031 .hidden __truncdfsf2
4014e01c g     F .text	00000010 tlsv1_client_set_cred
4008789c g     F .rwtext.wifi	0000027e wDev_IndicateFrame
40040384 g       *ABS*	00000000 r_ld_sscan_start
3ffe0000 g       *ABS*	00000000 _stack_start_cpu0
3ffd9528 g     O .bss	00000010 s_fragment
40119bdc g     F .text	00000030 r_flash_init
40116430 g     F .text	000001b8 r_llm_create_con
40085bc4 g     F .rwtext.wifi	00000064 pm_rx_data_process
40160e8c g     F .text	00000215 wpa_set_bss
400904b8 g     F .rwtext.wifi	00000035 phy_bt_ifs_set
4011c450 g     F .text	00000028 esp_wifi_internal_issue_disconnect
400f9fb8 g     F .text	00000022 __stack_chk_fail
400fa060 g     F .text	00000000 DefaultHandler
4008f2fc g     F .rwtext.wifi	000000f5 coex_core_ts_start
40162dc0 g     F .text	00000046 bignum_mulmod
4008dea8 g     F .rwtext.wifi	0000000b ble_adv_txpwr_get_inter
40100724 g     F .text	0000006a usleep
4011d674 g     F .text	0000002a ieee80211_hostapd_ps_txcb
4013eb84 g     F .text	00000211 set_rx_gain_table
40145f28 g     F .text	0000001f ppRegisterRxCallback
40135f58 g     F .text	00000022 esp_wifi_unregister_wpa_cb_internal
40120c30 g     F .text	00000076 ieee80211_ht_deattach
40145678 g     F .text	00000067 pm_on_probe_resp_rx
40031778 g       *ABS*	00000000 ld_sco_modify
40144fa8 g     F .text	00000016 pm_dream_timeout_process
40137df4 g     F .text	0000000b wl_is_ap_no_lr
4015fb60 g     F .text	00000027 wpa_supplicant_stop_countermeasures
4014d53c g     F .text	00000010 tls_connection_established
4002780c g       *ABS*	00000000 lmp_ssr_req_handler
400fa060 g     F .text	00000000 RMT
4015a1f4 g     F .text	00000102 eap_peer_blob_init
4011b16c g     F .text	00000024 coex_register_wifi_channel_change_callback
4000ca64 g     F *ABS*	00000031 .hidden __ctzdi2
4011a50c g     F .text	00000008 coex_deinit
40083bf4 g     F .rwtext.wifi	000002b4 ppCalTxAMPDULength
40088b7c g     F .rwtext.wifi	00000023 ram_bb_bss_cbw40_dig
4012f004 g     F .text	000000e4 ieee80211_send_mgmt
40157314 g     F .text	00000098 wpa_init
4001cd54 g       *ABS*	00000000 r_lc_auth_cmp
40139374 g     F .text	00000096 send_ap_probe
4012b404 g     F .text	0000007c wifi_nvs_cfg_item_init
401370ec g     F .text	000000a5 chm_set_home_channel
40130b84 g     F .text	00000091 scan_build_chan_list
3ffc15ac  w    O .data	0000000a coex_schm_ble_mesh_config_wifi_connecting
40033140 g       *ABS*	00000000 ld_acl_end
40165f00 g     F .text	00000007 nan_in_transit_event_hdlr
400447b8 g       *ABS*	00000000 r_llc_reset
4014d76c g     F .text	00000016 tls_connection_set_cipher_list
40080a94 g     F .rwtext	00000000 __naked_level_5_interrupt
4012442c g     F .text	00000070 ieee80211_sta_disconnect
40137ca0 g     F .text	00000056 cnx_can_do_obss_scan
40130268 g     F .text	0000002f ieee80211_regdomain_is_active_scan
40090770 g     F .rwtext.wifi	00000024 ram_pbus_debugmode
40146958 g     F .text	000000bc ppPrepareBarFrame
3ffc1580  w    O .data	0000000e coex_schm_ble_mesh_config_bt_conn_wifi_connecting
40118c24 g     F .text	000000b3 r_nvds_init
3ffd9538 g     O .bss	00000004 s_wifi_queue
4012e824 g     F .text	00000048 ieee80211_alloc_deauth
3ffd944f g     O .bss	00000001 tx_pwctrl_track_num
40135d14 g     F .text	0000001e esp_wifi_sta_prof_is_wapi_internal
40027290 g       *ABS*	00000000 lmp_accepted_ext_handler
40063840 g       *ABS*	00000000 __ucmpdi2
40159130 g     F .text	00000036 wpa_use_akm_defined
40033268 g       *ABS*	00000000 ld_acl_sched
4008deb8 g     F .rwtext.wifi	0000000b ble_scan_txpwr_get_inter
40136568 g     F .text	00000048 esp_wifi_get_sta_key_internal
40155a74 g     F .text	00000071 SHA1Update
4012fa8c g     F .text	0000005d ieee80211_psq_send_one_pkt
40165c04 g     F .text	00000005 r_led_set_all
40100af8 g     F .text	00000073 strcasecmp
4008fa44 g     F .rwtext.wifi	00000011 coex_time_now
40160be4 g     F .text	00000068 wpa_michael_mic_failure
4008eebc g     F .rwtext.wifi	00000083 r_vhci_isr
40126a10 g     F .text	00000008 nan_get_clust_id
3ffd976c g     O .bss	00000001 g_wpa_pmk_caching_disabled
4008750c g     F .rwtext.wifi	000000d9 ppRxProtoProc
4008b088 g     F .rwtext.wifi	0000002b r_ke_timer_clear_hack
40118e6c g     F .text	00000070 bredr_txpwr_set_inter
4008670c g     F .rwtext.wifi	00000014 ic_interface_enabled
400fa060 g     F .text	00000000 SPI3_DMA
400927cc g     F .rwtext.wifi	00000008 r_global_int_start
400926f0 g     F .rwtext.wifi	00000010 hal_mac_rx_get_end_state
40158648 g     F .text	00000125 wpa_auth_gen_wpa_ie
40054298 g       *ABS*	00000000 btdm_r_import_rf_phy_func_p_get
400636a8 g     F *ABS*	0000004d .hidden __eqdf2
40153124 g     F .text	000000c3 aes_wrap
400fa060 g     F .text	00000000 UART2
40144274 g     F .text	0000000b pm_is_open
400927c4 g     F .rwtext.wifi	00000005 r_vhci_finish_transfers
3ffdca34 g     O .bss	00000011 phy_chan_target_power
400fa060 g     F .text	00000000 level7_interrupt
4015bdb8 g     F .text	0000003b eap_peer_tls_register
4011c074 g     F .text	0000004a esp_wifi_set_country
3ffda988 g     O .bss	00000008 action_q
40111a80 g     F .text	00000054 r_llc_util_get_free_conhdl
40100d24 g     F .text	000000c4 _putchar
4003617c g       *ABS*	00000000 r_ld_acl_sniff
4011da94 g     F .text	00000030 hostap_delete_ptk
40002a78 g     F *ABS*	00000031 .hidden __fixdfsi
3ffd9104 g     O .bss	00000004 r_modules_funcs_p
3ffc16c6  w    O .data	0000000e coex_schm_ble_mesh_config_bt_default_wifi_scan
40090a78 g     F .rwtext.wifi	00000048 wr_bt_tx_atten
4014c93c g     F .text	00000042 esp_eap_client_set_identity
401483f4 g     F .text	00000069 wdev_set_promis_misc_buf
40148580 g     F .text	00000264 wDev_SnifferRxData
40142890 g     F .text	00000080 txpwr_offset
40153674 g     F .text	00000014 crypto_public_key_decrypt_pkcs1
3ffb81f8 g       *ABS*	00000000 lc_sco_data_path_config
4013a214 g     F .text	000002da cnx_node_join
4011bff4 g     F .text	00000038 esp_wifi_get_config
4008ac68 g     F .rwtext.wifi	00000099 is_lc_free_and_used_env
4015352c g     F .text	0000001b crypto_cipher_deinit
4014401c g     F .text	000000c6 lmacStopTransmit
3ffb8bcc g       *ABS*	00000000 rwip_env
40125b38 g     F .text	0000002c wifi_set_rxcb_process
40130c30 g     F .text	0000000c scan_get_type
3ffc2a10 g     O .data.wifi	00000001 g_mesh_is_started
400fa060 g     F .text	00000000 BT_MAC
40128054 g     F .text	000000bd nan_construct_ndp_confirm
401573ac g     F .text	00000061 wpa_auth_sta_init
4012a0cc g     F .text	000002e2 nan_am_event_hdlr
3ffc175e  w    O .data	00000006 coex_schm_bt_iscan_wifi_scan
4011ff34  w    F .text	0000004e add_mic_ie_bip


