
target/xtensa-esp32-none-elf/release/esp-test:     file format elf32-xtensa-le

SYMBOL TABLE:
40080400 l    d  .rwtext	00000000 .rwtext
40081bbc l    d  .rwtext.wifi	00000000 .rwtext.wifi
3ffb0000 l    d  .data	00000000 .data
3ffb1f68 l    d  .data.wifi	00000000 .data.wifi
3ffb2180 l    d  .bss	00000000 .bss
3ffd37dc l    d  .noinit	00000000 .noinit
3f400020 l    d  .rodata_desc	00000000 .rodata_desc
3f400120 l    d  .rodata	00000000 .rodata
3f413258 l    d  .rodata.wifi	00000000 .rodata.wifi
400d0020 l    d  .text	00000000 .text
4015635c l    d  .wifiorslpiram.27	00000000 .wifiorslpiram.27
400c0000 l    d  .rtc_fast.text	00000000 .rtc_fast.text
40080000 l    d  .vectors	00000000 .vectors
3ff80000 l    d  .rtc_fast.dummy	00000000 .rtc_fast.dummy
3ff80000 l    d  .rtc_fast.data	00000000 .rtc_fast.data
3ff80000 l    d  .rtc_fast.bss	00000000 .rtc_fast.bss
3ff80000 l    d  .rtc_fast.persistent	00000000 .rtc_fast.persistent
50000000 l    d  .rtc_slow.text	00000000 .rtc_slow.text
50000000 l    d  .rtc_slow.data	00000000 .rtc_slow.data
50000000 l    d  .rtc_slow.bss	00000000 .rtc_slow.bss
50000000 l    d  .rtc_slow.persistent	00000000 .rtc_slow.persistent
3ffd37dc l    d  .stack	00000000 .stack
3ffe7e30 l    d  .dram2_uninit	00000000 .dram2_uninit
00000000 l    d  .espressif.metadata	00000000 .espressif.metadata
00000000 l    d  .debug_loc	00000000 .debug_loc
00000000 l    d  .debug_abbrev	00000000 .debug_abbrev
00000000 l    d  .debug_info	00000000 .debug_info
00000000 l    d  .debug_aranges	00000000 .debug_aranges
00000000 l    d  .debug_ranges	00000000 .debug_ranges
00000000 l    d  .debug_str	00000000 .debug_str
00000000 l    d  .comment	00000000 .comment
00000000 l    d  .xtensa.info	00000000 .xtensa.info
00000000 l    d  .debug_line	00000000 .debug_line
00000000 l    d  .debug_frame	00000000 .debug_frame
00000000 l    df *ABS*	00000000 esp_test.91e7da92617ed316-cgu.0
00000000 l       *ABS*	00000000 XT_STK_PC
00000004 l       *ABS*	00000000 XT_STK_PS
00000008 l       *ABS*	00000000 XT_STK_A0
0000000c l       *ABS*	00000000 XT_STK_A1
00000010 l       *ABS*	00000000 XT_STK_A2
00000014 l       *ABS*	00000000 XT_STK_A3
00000018 l       *ABS*	00000000 XT_STK_A4
0000001c l       *ABS*	00000000 XT_STK_A5
00000020 l       *ABS*	00000000 XT_STK_A6
00000024 l       *ABS*	00000000 XT_STK_A7
00000028 l       *ABS*	00000000 XT_STK_A8
0000002c l       *ABS*	00000000 XT_STK_A9
00000030 l       *ABS*	00000000 XT_STK_A10
00000034 l       *ABS*	00000000 XT_STK_A11
00000038 l       *ABS*	00000000 XT_STK_A12
0000003c l       *ABS*	00000000 XT_STK_A13
00000040 l       *ABS*	00000000 XT_STK_A14
00000044 l       *ABS*	00000000 XT_STK_A15
00000048 l       *ABS*	00000000 XT_STK_SAR
0000004c l       *ABS*	00000000 XT_STK_EXCCAUSE
00000050 l       *ABS*	00000000 XT_STK_EXCVADDR
00000054 l       *ABS*	00000000 XT_STK_LBEG
00000058 l       *ABS*	00000000 XT_STK_LEND
0000005c l       *ABS*	00000000 XT_STK_LCOUNT
00000060 l       *ABS*	00000000 XT_STK_THREADPTR
00000064 l       *ABS*	00000000 XT_STK_SCOMPARE1
00000068 l       *ABS*	00000000 XT_STK_BR
0000006c l       *ABS*	00000000 XT_STK_ACCLO
00000070 l       *ABS*	00000000 XT_STK_ACCHI
00000074 l       *ABS*	00000000 XT_STK_M0
00000078 l       *ABS*	00000000 XT_STK_M1
0000007c l       *ABS*	00000000 XT_STK_M2
00000080 l       *ABS*	00000000 XT_STK_M3
00000084 l       *ABS*	00000000 XT_STK_F64R_LO_CPENABLE
00000088 l       *ABS*	00000000 XT_STK_F64R_HI
0000008c l       *ABS*	00000000 XT_STK_F64S
00000090 l       *ABS*	00000000 XT_STK_FCR
00000094 l       *ABS*	00000000 XT_STK_FSR
00000098 l       *ABS*	00000000 XT_STK_F0
0000009c l       *ABS*	00000000 XT_STK_F1
000000a0 l       *ABS*	00000000 XT_STK_F2
000000a4 l       *ABS*	00000000 XT_STK_F3
000000a8 l       *ABS*	00000000 XT_STK_F4
000000ac l       *ABS*	00000000 XT_STK_F5
000000b0 l       *ABS*	00000000 XT_STK_F6
000000b4 l       *ABS*	00000000 XT_STK_F7
000000b8 l       *ABS*	00000000 XT_STK_F8
000000bc l       *ABS*	00000000 XT_STK_F9
000000c0 l       *ABS*	00000000 XT_STK_F10
000000c4 l       *ABS*	00000000 XT_STK_F11
000000c8 l       *ABS*	00000000 XT_STK_F12
000000cc l       *ABS*	00000000 XT_STK_F13
000000d0 l       *ABS*	00000000 XT_STK_F14
000000d4 l       *ABS*	00000000 XT_STK_F15
000000d8 l       *ABS*	00000000 XT_STK_TMP
00000100 l       *ABS*	00000000 XT_STK_FRMSZ
00000003 l       *ABS*	00000000 PS_INTLEVEL_EXCM
0000000f l       *ABS*	00000000 PS_INTLEVEL_MASK
00000010 l       *ABS*	00000000 PS_EXCM
00000020 l       *ABS*	00000000 PS_UM
00040000 l       *ABS*	00000000 PS_WOE
400808a0 l       .rwtext	00000000 .HandleException
40080885 l       .rwtext	00000000 .RestoreContext
40080050 l       .vectors	00000000 _AllocAException
4008034c l       .vectors	00000000 .AllocAException
400f320c l     F .text	00000021 _ZN4core9panicking11panic_const28panic_const_async_fn_resumed17h89ddfd77833e9119E
400f1954 l     F .text	0000002c _ZN4core4cell22panic_already_borrowed17hf3b1af380bdeb115E
400f39c8 l     F .text	000000b0 _ZN7smoltcp5iface10socket_set9SocketSet7get_mut17h9a06b31738597943E
4010a41c l     F .text	00000056 _ZN7smoltcp6socket5waker17WakerRegistration8register17hf8d889debedb48c9E
400f03a0 l     F .text	00000015 _ZN4core9panicking9panic_fmt17hb8555b65dccd58aaE
400f0804 l     F .text	0000000f _ZN4core5slice5index24slice_end_index_len_fail17h4024239d746064a2E
400f1814 l     F .text	0000000f _ZN4core5slice5index22slice_index_order_fail17hd4a627f106b56974E
400d2b2c l     F .text	000001f7 _ZN100_$LT$embassy_net..tcp..client..TcpConnection$LT$_$C$_$C$_$GT$$u20$as$u20$embedded_io_async..Read$GT$4read28_$u7b$$u7b$closure$u7d$$u7d$17h973b0a2e9c18a8bcE
400d2d24 l     F .text	000000d6 _ZN101_$LT$embassy_net..tcp..client..TcpConnection$LT$_$C$_$C$_$GT$$u20$as$u20$embedded_io_async..Write$GT$5flush28_$u7b$$u7b$closure$u7d$$u7d$17hf4bd3dbb34f8f0b6E
400d2dfc l     F .text	000001c0 _ZN101_$LT$embassy_net..tcp..client..TcpConnection$LT$_$C$_$C$_$GT$$u20$as$u20$embedded_io_async..Write$GT$5write28_$u7b$$u7b$closure$u7d$$u7d$17heb3a0e1f547ace91E
400d2fbc l     F .text	00000093 _ZN107_$LT$embedded_tls..extensions..extension_data..supported_groups..NamedGroup$u20$as$u20$core..fmt..Debug$GT$3fmt17h127e198e5ac950eeE
400f2044 l     F .text	00000012 _ZN4core6option13expect_failed17h292beaa006b1ba74E
400f3a78 l     F .text	000000b2 _ZN7smoltcp5iface10socket_set9SocketSet7get_mut17he5dc7bae321f9d58E
400f0334 l     F .text	00000037 _ZN4core9panicking18panic_bounds_check17h25102d32941375b7E
400f0e7c l     F .text	00000010 _ZN4core6option13unwrap_failed17h3e21f5807f17ebaaE
400f42f8 l     F .text	00000055 _ZN12embassy_sync9waitqueue18waker_registration17WakerRegistration8register17h40be9f48a641f733E
400e0ca8 l     F .text	000000d9 _ZN4core3ptr79drop_in_place$LT$embassy_net..Stack..dns_query..$u7b$$u7b$closure$u7d$$u7d$$GT$17hd4f7378d02cb61bbE
400d3050 l     F .text	000006c9 _ZN11embassy_net3dns9DnsSocket5query28_$u7b$$u7b$closure$u7d$$u7d$17hfc022b91c21268c9E
400d3cd0 l     F .text	00000187 _ZN12embedded_tls12key_schedule25Secret$LT$CipherSuite$GT$24make_expanded_hkdf_label17h36782e0e1a8230deE
400d7bb8 l     F .text	00000031 _ZN13generic_array5impls89_$LT$impl$u20$core..clone..Clone$u20$for$u20$generic_array..GenericArray$LT$T$C$N$GT$$GT$5clone17h1760e11964c2ca9aE
40104b20 l     F .text	000012a7 _ZN4sha26sha25611compress25617hfe5128fffdc0e330E
400e1b18 l     F .text	000000d6 _ZN6digest11FixedOutput14finalize_fixed17h500094b93f4107edE
400f32a0 l     F .text	0000002e _ZN6subtle9black_box17h38e2476b87a487eaE
400d371c l     F .text	0000046d _ZN12embedded_tls10connection21process_server_verify28_$u7b$$u7b$closure$u7d$$u7d$17hd705076ffae7524dE
400f07bc l     F .text	0000000f _ZN4core5slice5index26slice_start_index_len_fail17h8e8fe2d8cebe01ccE
400d43b4 l     F .text	0000006c _ZN12embedded_tls12key_schedule35KeyScheduleState$LT$CipherSuite$GT$17increment_counter17hc3a8843ae94dbb97E
400d3b8c l     F .text	00000141 _ZN12embedded_tls10connection7respond28_$u7b$$u7b$closure$u7d$$u7d$17h35baee518eab5b7eE
400e0d84 l     F .text	00000488 _ZN4hkdf17Hkdf$LT$H$C$I$GT$6expand17h5d51a5d86b02d46eE
400e358c l     F .text	00000173 _ZN87_$LT$digest..core_api..wrapper..CoreWrapper$LT$T$GT$$u20$as$u20$digest..FixedOutput$GT$13finalize_into17haeb233159c03e6a3E
400d3e58 l     F .text	00000080 _ZN12embedded_tls12key_schedule30ContextType$LT$CipherSuite$GT$10empty_hash17h65aae051af66d202E
400d4420 l     F .text	00000179 _ZN12embedded_tls12key_schedule35KeyScheduleState$LT$CipherSuite$GT$24calculate_traffic_secret17h0937da691e972adfE
400d3ed8 l     F .text	00000071 _ZN12embedded_tls12key_schedule30KeySchedule$LT$CipherSuite$GT$25calculate_traffic_secrets17habcb2a44f4c415a8E
400e120c l     F .text	000000f0 _ZN4hkdf17Hkdf$LT$H$C$I$GT$8from_prk17h13c2666adad4fbc4E
400f1ea4 l     F .text	0000003e _ZN4core6result13unwrap_failed17h5c23218e4cd4625dE
400d3f4c l     F .text	000003c4 _ZN12embedded_tls12key_schedule30SharedState$LT$CipherSuite$GT$10initialize17h17df1f5c83f3404bE
400d4310 l     F .text	000000a2 _ZN12embedded_tls12key_schedule30SharedState$LT$CipherSuite$GT$7derived17h114f40de14d0f8bcE
400f8b14 l     F .text	00000035 _ZN60_$LT$esp_hal..fmt..NoneError$u20$as$u20$core..fmt..Debug$GT$3fmt17h91da178a7e487913E
400d459c l     F .text	00000110 _ZN12embedded_tls12key_schedule35KeyScheduleState$LT$CipherSuite$GT$7get_key17h759eb044d2ba8bb5E
400d46ac l     F .text	00000196 _ZN12embedded_tls12key_schedule35KeyScheduleState$LT$CipherSuite$GT$9get_nonce17haea743eaa31d11c1E
400e4130 l     F .text	000003f9 _ZN91_$LT$aes_gcm..AesGcm$LT$Aes$C$NonceSize$C$TagSize$GT$$u20$as$u20$crypto_common..KeyInit$GT$3new17h291e0bb086c32602E
400f6194 l     F .text	00000057 _ZN12embedded_tls6buffer12CryptoBuffer12as_mut_slice17hebad40734019f667E
400e2170 l     F .text	00000204 _ZN7aes_gcm39AesGcm$LT$Aes$C$NonceSize$C$TagSize$GT$8init_ctr17h15c071023a7d4188E
400e170c l     F .text	0000040b _ZN6cipher11stream_core16StreamCipherCore28apply_keystream_blocks_inout17h9e13b0766769804eE
400e1f00 l     F .text	0000026d _ZN7aes_gcm39AesGcm$LT$Aes$C$NonceSize$C$TagSize$GT$11compute_tag17hbd745f8fff35fc72E
400f5ffc l     F .text	00000074 _ZN12embedded_tls6buffer12CryptoBuffer15extend_internal17hcd8643a5ab0a740aE
400d4844 l     F .text	000003b6 _ZN12embedded_tls12write_buffer11WriteBuffer12close_record17ha43f091af7ad5e2aE
400f75c4 l     F .text	000000f2 _ZN12embedded_tls12write_buffer11WriteBuffer12start_record17h0121f0ebd33455afE
400f5454 l     F .text	0000035b _ZN10primeorder10projective24ProjectivePoint$LT$C$GT$3mul17hb48c76f3f4b08857E
400f5a4c l     F .text	0000042e _ZN10primeorder10projective24ProjectivePoint$LT$C$GT$9to_affine17hc6185c991b8838ecE
401038e4 l     F .text	00000543 _ZN4p25610arithmetic5field12FieldElement8to_bytes17h80826636b5b3eaa7E
400f4d90 l     F .text	0000004c _ZN4sec15point24EncodedPoint$LT$Size$GT$3tag17h98b4afe6b094c71cE
400f5fac l     F .text	0000004e _ZN12embedded_tls6buffer12CryptoBuffer4push17h3eb4ed91a2761c98E
400d66f0 l     F .text	000001ff _ZN12embedded_tls6buffer12CryptoBuffer15with_u16_length17hee6c6bf14f81cd02E
400f6528 l     F .text	000000c8 _ZN12embedded_tls9handshake11certificate14CertificateRef6encode17h28bcd217300550f6E
400f6118 l     F .text	0000007a _ZN12embedded_tls6buffer12CryptoBuffer7set_u2417h69d8beb59c3b1d91E
400f61ec l     F .text	00000057 _ZN12embedded_tls6buffer12CryptoBuffer8as_slice17h3e0c01a41776b0f5E
400d4bfc l     F .text	00000d52 _ZN12embedded_tls12write_buffer11WriteBuffer12write_record17h14e24283ad0fe257E
400d5ca4 l     F .text	00000123 _ZN12embedded_tls13record_reader31RecordReader$LT$CipherSuite$GT$7advance28_$u7b$$u7b$closure$u7d$$u7d$17h971caf38184c063aE
400f7564 l     F .text	0000005e _ZN12embedded_tls6record12RecordHeader12content_type17h4a393eb972563cf6E
400f20a8 l     F .text	0000001e _ZN4core9panicking13assert_failed17h40715ef93f659cd6E
400d68f0 l     F .text	000012c6 _ZN12embedded_tls9handshake34ServerHandshake$LT$CipherSuite$GT$4read17h955c3f586c017ac4E
400f5eb4 l     F .text	000000f6 _ZN12embedded_tls5alert5Alert5parse17h0ba245a850aa96c9E
400d5950 l     F .text	00000354 _ZN12embedded_tls13record_reader31RecordReader$LT$CipherSuite$GT$4read28_$u7b$$u7b$closure$u7d$$u7d$17hd7fa1ec999c2e4f2E
40104990 l     F .text	00000074 _ZN4core5slice29_$LT$impl$u20$$u5b$T$u5d$$GT$11copy_within17h359ce40e71090140E
400f6244 l     F .text	0000005f _ZN12embedded_tls6common21decrypted_buffer_info19DecryptedBufferInfo18create_read_buffer17hfa0a2abe3440d00dE
400f0b00 l     F .text	00000025 _ZN4core9panicking5panic17h333c3597a73b7176E
400e0674 l     F .text	000001f0 _ZN4aead11AeadInPlace16decrypt_in_place17hfbb298b3d8599763E
400d5dc8 l     F .text	00000622 _ZN12embedded_tls6asynch41TlsConnection$LT$Socket$C$CipherSuite$GT$13read_buffered28_$u7b$$u7b$closure$u7d$$u7d$17hfb076ab907ac620eE
400d63ec l     F .text	00000185 _ZN12embedded_tls6asynch41TlsConnection$LT$Socket$C$CipherSuite$GT$5flush28_$u7b$$u7b$closure$u7d$$u7d$17h6c8e77c22cc3e086E
400d6574 l     F .text	00000179 _ZN12embedded_tls6asynch41TlsConnection$LT$Socket$C$CipherSuite$GT$5write28_$u7b$$u7b$closure$u7d$$u7d$17hb5ebbfd4680b055bE
400f76b8 l     F .text	000004f3 _ZN12embedded_tls10extensions8messages20ClientHelloExtension6encode17h9ec4d5f13293e831E
400e1e70 l     F .text	00000057 _ZN70_$LT$heapless..vec..Vec$LT$T$C$_$GT$$u20$as$u20$core..clone..Clone$GT$5clone17hdca59af8237047e5E
400f60bc l     F .text	0000005b _ZN12embedded_tls6buffer12CryptoBuffer7set_u1617h5e6b0e4997ffc8adE
400f63b8 l     F .text	000000a2 _ZN12embedded_tls12parse_buffer11ParseBuffer8read_u2417hbe00d7767860f232E
400f6898 l     F .text	00000056 _ZN12embedded_tls12parse_buffer11ParseBuffer4fill17hd735e12c4de94256E
400f66b4 l     F .text	00000122 _ZN12embedded_tls10extensions14extension_data20signature_algorithms15SignatureScheme5parse17h63234e43204d7902E
400f6350 l     F .text	00000066 _ZN12embedded_tls12parse_buffer11ParseBuffer8read_u1617h5a9fae4b839b2004E
400f645c l     F .text	000000ca _ZN12embedded_tls10extensions13ExtensionType5parse17hb613473cf043836fE
400f65f0 l     F .text	000000c1 _ZN12embedded_tls12parse_buffer11ParseBuffer9read_list17h2e943eeaeb44d0e9E
400f62a4 l     F .text	000000ac _ZN12embedded_tls10extensions14extension_data16supported_groups10NamedGroup5parse17h8df3b74d423d24f3E
400f67d8 l     F .text	000000c0 _ZN12embedded_tls12parse_buffer11ParseBuffer8read_u3217h64c4f88b79ef88b9E
400f68f0 l     F .text	000002e6 _ZN12embedded_tls10extensions8messages20ServerHelloExtension12parse_vector17hcc60b59b6b27ffceE
400d7bec l     F .text	00000031 _ZN13generic_array5impls89_$LT$impl$u20$core..clone..Clone$u20$for$u20$generic_array..GenericArray$LT$T$C$N$GT$$GT$5clone17h30f0dcdc34954e0eE
400d7c30 l     F .text	000001e6 _ZN15esp_hal_embassy8executor6thread8Executor9run_inner17h342efaba07c54b7fE
400d7c20 l     F .text	0000000d _ZN15esp_hal_embassy8executor6thread8Executor3run17h598fa9b944fa4444E
400f9508 l     F .text	00000081 _ZN7esp_hal9interrupt6xtensa8vectored6enable17h4a88f0ea42d613c4E
400e1cd4 l     F .text	0000004b _ZN70_$LT$esp_hal..interrupt..xtensa..Error$u20$as$u20$core..fmt..Debug$GT$3fmt17hcff0f43b17d25dbcE
400f8918 l     F .text	00000086 _ZN91_$LT$esp_hal..sync..critical_section..CriticalSection$u20$as$u20$critical_section..Impl$GT$7acquire17h63530a824c837b1fE
3ffbac78 l     O .bss	00000004 _ZN8esp_test14__embassy_main4POOL17hed84fc18e1a499a6E.0
3ffcac88 l     O .bss	00005004 _ZN16embassy_executor7_export5ARENA17h98f0c3cd26fd7f34E
3ffb0db8 l     O .data	00000004 _ZN7esp_hal4sync16critical_section16CRITICAL_SECTION17hcb7d12754516b886E
400d7e18 l     F .text	00002503 _ZN16embassy_executor3raw20TaskStorage$LT$F$GT$4poll17h176bfe70649bf34fE
400dfbbc l     F .text	0000002c _ZN16embassy_executor3raw4util19UninitCell$LT$T$GT$14write_in_place17hb333725c03ba023eE
3ffcfcf9 l     O .bss	00000002 _ZN15esp_hal_embassy8executor6thread23SIGNAL_WORK_THREAD_MODE17h1eaf915410afea75E
400813f0 l     F .rwtext	00000075 _ZN15esp_hal_embassy8executor6thread8Executor9wait_impl17hb787786e7689ff63E
400e1ec8 l     F .text	00000035 _ZN74_$LT$embassy_executor..spawner..SpawnError$u20$as$u20$core..fmt..Debug$GT$3fmt17h7ea0b9e024a4852aE
3f4079b0 l     O .rodata	00000010 _ZN16embassy_executor3raw5waker6VTABLE17h96b7a1bbf0dc13d6E
400f446c l     F .text	00000070 _ZN75_$LT$embassy_time..timer..Timer$u20$as$u20$core..future..future..Future$GT$4poll17h665c0fdca16178cdE
3ffd0500 l     O .bss	00000004 _ZN3log20MAX_LOG_LEVEL_FILTER17hc604844e5b22008aE.0
401046d8 l     F .text	00000095 _ZN3log13__private_api3log17h18df3cd246a582fdE
3ffd04fc l     O .bss	00000004 _ZN3log5STATE17h4a82eb5737cb86e7E.0
3ffb11fc l     O .data	00000004 _ZN3log6LOGGER17h7a9234779a12fa2cE.1
400f8bf0 l     F .text	000003b7 _ZN7esp_hal6system22PeripheralClockControl21enable_forced_with_cs17hce8245068f1d10a1E
400f9c58 l     F .text	000000b5 _ZN7esp_hal8rtc_cntl8RtcClock9calibrate17h367f65ae805647c4E
400f9d10 l     F .text	00000158 _ZN7esp_hal8rtc_cntl8RtcClock18calibrate_internal17h0f92ace768cef414E
3ffcfc90 l     O .bss	00000004 _ZN7esp_hal5clock13ACTIVE_CLOCKS17h32d380688d10152eE.1
3ffcfc8c l     O .bss	00000001 _ZN7esp_hal5clock13ACTIVE_CLOCKS17h32d380688d10152eE.0
3ffcfc94 l     O .bss	00000001 _ZN7esp_hal5clock13ACTIVE_CLOCKS17h32d380688d10152eE.2
400f8abc l     F .text	00000058 _ZN7esp_hal5clock6Clocks3get17h0c3b44d762e9e708E
400f8a24 l     F .text	00000095 _ZN3log13__private_api8log_impl17h84eb3bab3e6eb305E
40081aa8 l     O .rwtext	00000114 _ZN5esp3212__INTERRUPTS17h84d9b725d44260f3E
40080c68 l     F .rwtext	00000373 _ZN7esp_hal4gpio9interrupt30default_gpio_interrupt_handler17h4485dbddeff7447eE
3ffbac7c l     O .bss	00010000 _ZN8esp_test21____embassy_main_task28_$u7b$$u7b$closure$u7d$$u7d$4HEAP17h1f04afb76688a163E
400f7f40 l     F .text	00000059 _ZN9esp_alloc10HeapRegion3new17h7f0e62d0eced2989E
400f7f9c l     F .text	000000c4 _ZN9esp_alloc7EspHeap10add_region17hdd8a0f7bd356254aE
3ffe7e30 l     O .dram2_uninit	00010000 _ZN8esp_test21____embassy_main_task28_$u7b$$u7b$closure$u7d$$u7d$4HEAP17h24a87055bbb2d488E
400f8fec l     F .text	00000085 _ZN7esp_hal6system22PeripheralClockControl5reset17h32fe1f2fa56ebf5cE
400f8ba0 l     F .text	00000050 _ZN7esp_hal6system22PeripheralClockControl13enable_forced17h9482a59d6a30856bE
40081468 l     F .rwtext	0000002f _ZN15esp_hal_embassy4init19software3_interrupt17h4f5e75f1f51c21a8E
3ffcfd00 l     O .bss	0000000c _ZN73_$LT$esp_hal..timer..timg..Timer$u20$as$u20$esp_hal_embassy..TimeBase$GT$6timers11STATIC_CELL17h0c81f6c40e07fa69E
400f98fc l     F .text	00000050 _ZN69_$LT$esp_hal..timer..timg..Timer$u20$as$u20$esp_hal..timer..Timer$GT$4stop17h91ed20c65c4db9cdE
3ffb0dbc l     O .data	0000007c _ZN15esp_hal_embassy11time_driver6DRIVER17h582e5c811b42577dE
400f8b4c l     F .text	00000053 _ZN7esp_hal4sync18LockGuard$LT$L$GT$3new17hfccd1b557b000259E
400e1610 l     F .text	000000fc _ZN68_$LT$esp_wifi..config..EspWifiConfig$u20$as$u20$core..fmt..Debug$GT$3fmt17h019b7f0d1e7f1bd3E
3ffd04e4 l     O .bss	00000004 _ZN8esp_wifi14common_adapter13chip_specific22G_PHY_DIGITAL_REGS_MEM17h186339563a4cd42aE.0
3ffd03e4 l     O .bss	00000054 _ZN8esp_wifi14common_adapter13chip_specific20SOC_PHY_DIG_REGS_MEM17h39c1f7d71fbf38a0E
40100290 l     F .text	00000088 _ZN8esp_wifi15preempt_builtin5timer18timer_tick_handler17h47276874d6e7fd90E
400f9ae0 l     F .text	00000176 _ZN7esp_hal5timer4timg5Timer21set_interrupt_handler17h2d54e343779908f5E
400f9a78 l     F .text	00000066 _ZN69_$LT$esp_hal..timer..timg..Timer$u20$as$u20$esp_hal..timer..Timer$GT$15clear_interrupt17hf8c9759a252a5522E
400f994c l     F .text	000000cd _ZN69_$LT$esp_hal..timer..timg..Timer$u20$as$u20$esp_hal..timer..Timer$GT$10load_value17h4878504cb8983cb2E
400ffa44 l     F .text	00000043 _ZN58_$LT$esp_hal..timer..Error$u20$as$u20$core..fmt..Debug$GT$3fmt17h453e12047d71897aE.517
400f97b4 l     F .text	00000096 _ZN69_$LT$esp_hal..timer..timg..Timer$u20$as$u20$esp_hal..timer..Timer$GT$5start17h6b70a13eb828613cE
3ffb0e44 l     O .data	00000010 _ZN8esp_wifi15preempt_builtin5timer5TIMER17h4b5ef630b0fdc039E
40100318 l     F .text	00000094 _ZN92_$LT$esp_wifi..preempt_builtin..BuiltinScheduler$u20$as$u20$esp_wifi..preempt..Scheduler$GT$6enable17ha8cda937ed7fd87aE
401012b0 l     F .text	00000158 _ZN8esp_wifi5tasks10timer_task17h44ff3e971530580cE
400ff3d0 l     F .text	00000156 _ZN92_$LT$esp_wifi..preempt_builtin..BuiltinScheduler$u20$as$u20$esp_wifi..preempt..Scheduler$GT$11task_create17h482641a7631b47c3E
3ffb2180 l     O .bss	00000001 _ZN8esp_test9WIFI_INIT17hf75b0a97c3e28036E
3ffb0e68 l     O .data	000000e0 _ZN8esp_wifi4wifi8internal8G_CONFIG17hc7c21a96f9a064c5E
400f3230 l     F .text	0000003c _ZN4core3fmt3num3imp52_$LT$impl$u20$core..fmt..Display$u20$for$u20$i32$GT$3fmt17h32273e60b10b9867E
400817b4 l     F .rwtext	00000094 _ZN8esp_wifi4wifi19esp_wifi_tx_done_cb17hcf03d0a985eb5e64E
40100764 l     F .text	000000df _ZN8esp_wifi4wifi11recv_cb_sta17h6f2346e22d3cf542E
40100844 l     F .text	000000df _ZN8esp_wifi4wifi10recv_cb_ap17h32aa8808842dbc95E
40100924 l     F .text	0000004e _ZN10num_traits4cast13FromPrimitive8from_i3217hf257bb1ee62b0b83E
3ffd04ac l     O .bss	00000030 _ZN8esp_wifi4wifi9wifi_init10NVS_STRUCT17h9a4b03f9f017a7f4E
40100974 l     F .text	000000bf _ZN8esp_wifi4wifi14WifiController16set_power_saving17h7de1e87be7df1492E
40100a34 l     F .text	00000234 _ZN72_$LT$esp_wifi..wifi..WifiController$u20$as$u20$core..ops..drop..Drop$GT$4drop17h51b5ec0641407593E
3ffcac80 l     O .bss	00000004 _ZN8esp_test12wifi_connect4POOL17ha70a642e406785fcE.0
400de150 l     F .text	00001a10 _ZN16embassy_executor3raw20TaskStorage$LT$F$GT$4poll17hfb46df026ab0f9b7E
400dfb90 l     F .text	0000002a _ZN16embassy_executor3raw4util19UninitCell$LT$T$GT$14write_in_place17h44b6af5c1a81e5d2E
3ffb2188 l     O .bss	00000ad8 _ZN8esp_test13NET_RESOURCES17h9ee2d4d10452f0e3E
40100700 l     F .text	00000064 _ZN8esp_wifi4wifi7embassy83_$LT$impl$u20$embassy_net_driver..Driver$u20$for$u20$esp_wifi..wifi..WifiDevice$GT$16hardware_address17hb53d9cf87c85327aE
400f3c84 l     F .text	00000060 _ZN11embassy_net27to_smoltcp_hardware_address17hf1ff0abc98f8a3c9E
40109d10 l     F .text	000000c4 _ZN7smoltcp5iface10socket_set9SocketSet3add3put17hade4ada8bf7de5b0E
400f3914 l     F .text	000000b2 _ZN7smoltcp5iface10socket_set9SocketSet7get_mut17h4ae0e9bb5c7e80efE
400f3e58 l     F .text	00000410 _ZN11embassy_net5Inner19apply_static_config17h8ec902453f1f1b95E
3ffb2c60 l     O .bss	00000008 _ZN8esp_test9NET_STACK17hc63455da73b8bd6aE
3ffb2c68 l     O .bss	0000000c _ZN8esp_test10NET_RUNNER17h42d212c41f4b23a9E
3ffcac7c l     O .bss	00000004 _ZN8esp_test8net_task4POOL17heff96d9c7b187019E.0
400da31c l     F .text	00003e33 _ZN16embassy_executor3raw20TaskStorage$LT$F$GT$4poll17he8213307860f5babE
400dfb60 l     F .text	0000002f _ZN16embassy_executor3raw4util19UninitCell$LT$T$GT$14write_in_place17h2d57f61fea091e29E
400f3d50 l     F .text	00000105 _ZN11embassy_net5Stack4with17h0aa04e7a9d9b972aE
400e14b8 l     F .text	00000057 _ZN62_$LT$smoltcp..wire..ipv4..Cidr$u20$as$u20$core..fmt..Debug$GT$3fmt17h7aff6e49d0014c86E
400e5484 l     F .text	00009a96 _ZN8esp_test15print_public_ip28_$u7b$$u7b$closure$u7d$$u7d$17h304c8279e8f3ad23E
40106004 l     F .text	00000056 _ZN44_$LT$$RF$T$u20$as$u20$core..fmt..Display$GT$3fmt17h390d8bd4ea83de2cE
3ffb0fbc l     O .data	0000000c _ZN8esp_wifi4wifi7embassy17STA_RECEIVE_WAKER17h9bbf3a902369c72fE
3ffb0fa4 l     O .data	0000000c _ZN8esp_wifi4wifi7embassy16AP_RECEIVE_WAKER17h1ecba42bd58cd114E
400f89a0 l     F .text	00000082 _ZN12embassy_sync9waitqueue12atomic_waker27GenericAtomicWaker$LT$M$GT$8register17h02363a5bd64cec11E
3ffb0f98 l     O .data	0000000c _ZN8esp_wifi4wifi7embassy14TRANSMIT_WAKER17h983370a7f98535f7E
3ffb0f84 l     O .data	00000014 _ZN8esp_wifi4wifi17DATA_QUEUE_RX_STA17h1c4fa0a0b7ff5fe0E
3ffb0f70 l     O .data	00000014 _ZN8esp_wifi4wifi16DATA_QUEUE_RX_AP17h2529c498cbf4649cE
3ffd04dc l     O .bss	00000004 _ZN8esp_wifi4wifi16WIFI_TX_INFLIGHT17h50c7486c026cb678E
40106908 l     F .text	000000e9 _ZN7smoltcp5iface9interface14InterfaceInner15in_same_network17h3e8d35dc841efffaE
40106e00 l     F .text	000001b4 _ZN7smoltcp5iface8neighbor5Cache4fill17hf0710be4ebd5d54aE
3ffcfe10 l     O .bss	000005d4 _ZN8esp_wifi4wifi11WifiTxToken13consume_token6BUFFER17h0f29001d75868ca4E
400e2374 l     F .text	0000015d _ZN7smoltcp4wire3arp4Repr4emit17hf34ee669b4f8ac19E
4010057c l     F .text	0000012a _ZN8esp_wifi4wifi18esp_wifi_send_data17hbcc2f986dd76c94aE
40106da0 l     F .text	0000005e _ZN7smoltcp4wire4ipv415Packet$LT$T$GT$11new_checked17hd07a9309b5340860E
401095d0 l     F .text	000000a4 _ZN7smoltcp4wire2ip8checksum4data17h4026b93cbcbcab51E
40109674 l     F .text	00000093 _ZN77_$LT$smoltcp..wire..ip..Protocol$u20$as$u20$core..convert..From$LT$u8$GT$$GT$4from17h11b5c8235a00dcb5E
40106fb4 l     F .text	00000064 _ZN7smoltcp5iface9interface4ipv459_$LT$impl$u20$smoltcp..iface..interface..InterfaceInner$GT$13is_unicast_v417hed56234e2de273baE
40107018 l     F .text	000000e9 _ZN7smoltcp4wire3udp4Repr5parse17h65c40e8ab6f2e503E
40107104 l     F .text	00000070 _ZN7smoltcp4wire3udp19Packet$LT$$RF$T$GT$7payload17h0654df28801300bdE
40107174 l     F .text	00000962 _ZN7smoltcp6socket6dhcpv46Socket7process17h0854feccc6b43a22E
40107ad8 l     F .text	000000ec _ZN7smoltcp5iface9interface4ipv459_$LT$impl$u20$smoltcp..iface..interface..InterfaceInner$GT$15is_broadcast_v417h2cf837d57f342829E
401069f4 l     F .text	0000029d _ZN7smoltcp5iface5route6Routes6lookup17h2a0396c197be673dE
401090a8 l     F .text	0000010b _ZN7smoltcp7storage13packet_buffer21PacketBuffer$LT$H$GT$7enqueue17h7c5394566c2d7968E
400f1008 l     F .text	0000000f _ZN4core5slice29_$LT$impl$u20$$u5b$T$u5d$$GT$15copy_from_slice17len_mismatch_fail17hcd8757f7a1ca6a23E
40108a9c l     F .text	00000050 _ZN7smoltcp4wire3dns15Packet$LT$T$GT$6opcode17h651e8f39921e5b9eE
40108aec l     F .text	00000044 _ZN7smoltcp4wire3dns15Packet$LT$T$GT$5rcode17h51408ce95e663393E
40108b30 l     F .text	00000119 _ZN7smoltcp4wire3dns8Question5parse17h2a1921b673aa00c9E
40108c4c l     F .text	000001dd _ZN7smoltcp6socket3dns8eq_names17h80f1a32e647ebbfeE
40108e2c l     F .text	000001b3 _ZN7smoltcp4wire3dns6Record5parse17hd55313476eefc38aE
40108fe0 l     F .text	000000c8 _ZN7smoltcp6socket3dns9copy_name17h41e5b55ebe426357E
40107bc4 l     F .text	000000c4 _ZN7smoltcp5iface9interface4ipv459_$LT$impl$u20$smoltcp..iface..interface..InterfaceInner$GT$12icmpv4_reply17hc7c6fe116dc2f1a4E
40107f48 l     F .text	000005a3 _ZN7smoltcp4wire3tcp4Repr5parse17h757922281e3e0c5bE
401084ec l     F .text	00000110 _ZN7smoltcp6socket3tcp6Socket9rst_reply17hcbdb1fa1bafb7a81E
401085fc l     F .text	00000188 _ZN7smoltcp6socket3tcp6Socket9ack_reply17h34591d1ae48b6629E
40108784 l     F .text	00000051 _ZN7smoltcp6socket3tcp6Socket9set_state17h616c1e8e18b77730E
401087d8 l     F .text	00000050 _ZN7smoltcp7storage11ring_buffer19RingBuffer$LT$T$GT$17dequeue_allocated17h061ef322ec9f599bE
40108828 l     F .text	00000182 _ZN7smoltcp7storage9assembler9Assembler21add_then_remove_front17h28a829a385f47df3E
401089ac l     F .text	0000007e _ZN7smoltcp7storage11ring_buffer19RingBuffer$LT$T$GT$17write_unallocated17h41f3e1fd9e8e3852E
401066a0 l     F .text	00000065 _ZN7smoltcp6socket3tcp6Socket15ack_to_transmit17h48de4835f4d0bacfE
40108a2c l     F .text	0000006d _ZN7smoltcp6socket3tcp6Socket25immediate_ack_to_transmit17h82fcb43876a93215E
40107c88 l     F .text	000002c0 _ZN7smoltcp4wire6icmpv44Repr5parse17hb8552c671c183501E
400e24d4 l     F .text	00000dc1 _ZN7smoltcp5iface9interface14InterfaceInner11dispatch_ip17h7fc34ad3b0cbc553E
400ff678 l     F .text	00000068 _ZN86_$LT$esp_wifi..wifi..private..EspWifiPacketBuffer$u20$as$u20$core..ops..drop..Drop$GT$4drop17h5b2167a33ee8b260E
40106708 l     F .text	00000084 _ZN7smoltcp5iface9interface14InterfaceInner12has_neighbor17h392b9a41343007f5E
401006a8 l     F .text	00000055 _ZN8esp_wifi4wifi7embassy83_$LT$impl$u20$embassy_net_driver..Driver$u20$for$u20$esp_wifi..wifi..WifiDevice$GT$8transmit17h10d5b1aeaa6be21eE
40109e54 l     F .text	000000a6 _ZN7smoltcp4wire6dhcpv44Repr10buffer_len17h5dac4b1eefc595adE
401064ec l     F .text	000000d8 _ZN7smoltcp6socket3tcp6Socket15seq_to_transmit17h0bcf0120bcef962bE
401065c4 l     F .text	000000da _ZN7smoltcp6socket3tcp6Socket16window_to_update17hf9dba39142b9ec9aE
4010a510 l     F .text	000000de _ZN7smoltcp6socket3tcp6Socket5reset17hee5aa19f0c673a1cE
4010a66c l     F .text	00000049 _ZN84_$LT$smoltcp..wire..tcp..SeqNumber$u20$as$u20$core..ops..arith..Add$LT$usize$GT$$GT$3add17he61ac78b85574569E
4010a6b8 l     F .text	0000004a _ZN71_$LT$smoltcp..wire..tcp..SeqNumber$u20$as$u20$core..ops..arith..Sub$GT$3sub17h59b1c0c1672061d8E
4010a5f0 l     F .text	00000079 _ZN7smoltcp7storage11ring_buffer19RingBuffer$LT$T$GT$13get_allocated17h53f2d808cf17ab0cE
40109378 l     F .text	00000098 _ZN7smoltcp4wire3tcp4Repr10header_len17he065c169226d2b3cE
4010a474 l     F .text	00000099 _ZN7smoltcp6socket3tcp5Timer18set_for_retransmit17hc6ca420f30ab8a93E
400f31e8 l     F .text	00000021 _ZN4core9panicking11panic_const23panic_const_rem_by_zero17h7fc7a6cc9a838babE
3ffb0fc8 l     O .data	0000000c _ZN8esp_wifi4wifi7embassy20STA_LINK_STATE_WAKER17h29b2f19384e5e614E
3ffb0fb0 l     O .data	0000000c _ZN8esp_wifi4wifi7embassy19AP_LINK_STATE_WAKER17h36b18b746fe965e5E
3ffb0f68 l     O .data	00000004 _ZN8esp_wifi4wifi5state9STA_STATE17hbe173ddff6821b76E
3ffb0f6c l     O .data	00000004 _ZN8esp_wifi4wifi5state8AP_STATE17hdaeb707eb44c604bE
4010043c l     F .text	00000049 _ZN8esp_wifi4wifi5state15AtomicWifiState10from_usize17h5a2646611a7707a0E
400e00f8 l     F .text	0000004a _ZN41_$LT$bool$u20$as$u20$core..fmt..Debug$GT$3fmt17h4f51b4241f1e55a6E
40106110 l     F .text	000003dc _ZN7smoltcp5iface9interface9Interface7poll_at28_$u7b$$u7b$closure$u7d$$u7d$17hc7ae1061fb1d270dE
3ffb0f50 l     O .data	00000018 _ZN8esp_wifi4wifi10os_adapter11WIFI_EVENTS17h18090cc909532578E
400e1c28 l     F .text	00000056 _ZN70_$LT$core..result..Result$LT$T$C$E$GT$$u20$as$u20$core..fmt..Debug$GT$3fmt17h10af32a6b443f8ffE
40100488 l     F .text	000000f1 _ZN8esp_wifi4wifi8WifiMode7current17h478d581c6bd2e19eE
3ffb0fd4 l     O .data	0000000c _ZN8esp_wifi4wifi9WifiEvent5waker5WAKER17h117ced63ec913ce1E
400eff74 l     F .text	00000059 _ZN5alloc5slice64_$LT$impl$u20$alloc..borrow..ToOwned$u20$for$u20$$u5b$T$u5d$$GT$8to_owned17hd807efbbfaeb5839E
400efef8 l     F .text	0000004b _ZN77_$LT$alloc..raw_vec..RawVec$LT$T$C$A$GT$$u20$as$u20$core..ops..drop..Drop$GT$4drop17h9b697b32291a8463E
40100e5c l     F .text	0000018f _ZN8esp_wifi4wifi15apply_ap_config17h5c01ba96c709bb98E
40100c68 l     F .text	000001f2 _ZN8esp_wifi4wifi16apply_sta_config17h7f4dae62b0ad125bE
40100fec l     F .text	00000112 _ZN85_$LT$esp_wifi..wifi..MultiWifiEventFuture$u20$as$u20$core..future..future..Future$GT$4poll17ha98eab4b2a172a44E
400e1418 l     F .text	0000009e _ZN62_$LT$esp_wifi..wifi..WifiError$u20$as$u20$core..fmt..Debug$GT$3fmt17h7f177970f3d53009E
400e339c l     F .text	000001ef _ZN85_$LT$reqwless..client..HttpConnection$LT$T$GT$$u20$as$u20$embedded_io_async..Read$GT$4read28_$u7b$$u7b$closure$u7d$$u7d$17hdb50d0a77caa646fE
400dfbe8 l     F .text	00000102 _ZN17embedded_io_async4Read10read_exact28_$u7b$$u7b$closure$u7d$$u7d$17h48a3940bb748fb57E
400dfcec l     F .text	0000012d _ZN17embedded_io_async4Read10read_exact28_$u7b$$u7b$closure$u7d$$u7d$17hbe706b0da4934575E
400dfe1c l     F .text	00000151 _ZN17embedded_io_async4Read10read_exact28_$u7b$$u7b$closure$u7d$$u7d$17hf97272183ee3016dE
400dff70 l     F .text	000000e6 _ZN17embedded_io_async5Write9write_all28_$u7b$$u7b$closure$u7d$$u7d$17h220078097bd5ae83E
400e0058 l     F .text	0000009f _ZN3hex15decode_to_slice17hda483e8487f26533E
400f084c l     F .text	000002b2 _ZN4core3fmt9Formatter3pad17hbd255515172af9d8E
400e0144 l     F .text	00000045 _ZN42_$LT$$RF$T$u20$as$u20$core..fmt..Debug$GT$3fmt17h380726eba27fd6e2E
400e018c l     F .text	000000f3 _ZN42_$LT$$RF$T$u20$as$u20$core..fmt..Debug$GT$3fmt17h804b1e3de7f8da34E
400e0280 l     F .text	00000045 _ZN42_$LT$$RF$T$u20$as$u20$core..fmt..Debug$GT$3fmt17h9965615eb7757e92E
400e02c8 l     F .text	00000138 _ZN42_$LT$$RF$T$u20$as$u20$core..fmt..Debug$GT$3fmt17hd42556cd5765cc97E
400e0400 l     F .text	00000045 _ZN42_$LT$$RF$T$u20$as$u20$core..fmt..Debug$GT$3fmt17hdd2cdb4b35962a53E
400f25f0 l     F .text	00000059 _ZN4core3fmt9Formatter25debug_tuple_field1_finish17had0ac37a95bc2ff7E
400f264c l     F .text	00000064 _ZN4core3fmt9Formatter25debug_tuple_field2_finish17h14f94c239f9401f6E
400e0448 l     F .text	000001f1 _ZN42_$LT$$RF$T$u20$as$u20$core..fmt..Debug$GT$3fmt17hf203cb9e07403d43E
400e063c l     F .text	00000035 _ZN44_$LT$$RF$T$u20$as$u20$core..fmt..Display$GT$3fmt17h80d2b54f97604a5bE
400f3170 l     F .text	00000078 _ZN4core3fmt3num52_$LT$impl$u20$core..fmt..LowerHex$u20$for$u20$u8$GT$3fmt17h3ca0abd28fe21e85E
400f2ef4 l     F .text	00000075 _ZN4core3fmt3num52_$LT$impl$u20$core..fmt..UpperHex$u20$for$u20$u8$GT$3fmt17hc1fe4bdb72df6206E
400f0dc0 l     F .text	00000098 _ZN4core3fmt3num3imp51_$LT$impl$u20$core..fmt..Display$u20$for$u20$u8$GT$3fmt17h7cffdc3b24fec957E
400e0864 l     F .text	00000054 _ZN4core3fmt3num49_$LT$impl$u20$core..fmt..Debug$u20$for$u20$u8$GT$3fmt17hed50e978b0869095E
400f0504 l     F .text	000001c2 _ZN4core3fmt9Formatter12pad_integral17h64c6bc1ab36baf49E
400e08b8 l     F .text	00000197 _ZN4core3fmt3num50_$LT$impl$u20$core..fmt..Debug$u20$for$u20$u16$GT$3fmt17h4a4e152631317e7fE
400f1054 l     F .text	00000071 _ZN4core3fmt3num12GenericRadix7fmt_int17h5db32912ad78f381E
400f10c8 l     F .text	00000071 _ZN4core3fmt3num12GenericRadix7fmt_int17hb88b1bddb70916d9E
400f0ec0 l     F .text	00000147 _ZN4core3fmt3num3imp21_$LT$impl$u20$u32$GT$4_fmt17hc62120785855578aE
400e0a50 l     F .text	0000005c _ZN4core3fmt3num50_$LT$impl$u20$core..fmt..Debug$u20$for$u20$u32$GT$3fmt17hdfa468271695a229E
400f03b8 l     F .text	0000014a _ZN4core3fmt3num3imp23_$LT$impl$u20$usize$GT$4_fmt17hafcfffdcbf513db2E
400e0aac l     F .text	00000055 _ZN4core3fmt3num52_$LT$impl$u20$core..fmt..Debug$u20$for$u20$usize$GT$3fmt17h8c624e28a34d62acE
400f0c78 l     F .text	00000148 _ZN4core3fmt5write17h6c72d92f235dad40E
400e0b04 l     F .text	00000034 _ZN4core3fmt5Write9write_fmt17h8e3270fb4e59da40E
40109dd4 l     F .text	00000080 _ZN7smoltcp5iface10socket_set9SocketSet6remove17hdc94e81ef49240feE
400f3be4 l     F .text	000000a0 _ZN4core3ptr44drop_in_place$LT$smoltcp..socket..Socket$GT$17h23e77be323fb8890E
400e0b38 l     F .text	00000105 _ZN4core3ptr101drop_in_place$LT$embassy_net..tcp..client..TcpConnection$LT$1_usize$C$1024_usize$C$1024_usize$GT$$GT$17hfbdb5cf92f00297eE
400e0c40 l     F .text	0000003d _ZN4core3ptr143drop_in_place$LT$$LT$embassy_net..dns..DnsSocket$u20$as$u20$embedded_nal_async..dns..Dns$GT$..get_host_by_name..$u7b$$u7b$closure$u7d$$u7d$$GT$17h76db1c5b0d200c5fE
400e0c80 l     F .text	00000025 _ZN4core3ptr62drop_in_place$LT$heapless..string..String$LT$128_usize$GT$$GT$17h2aa237c4516a672bE
400e12fc l     F .text	00000043 _ZN52_$LT$httparse..Error$u20$as$u20$core..fmt..Debug$GT$3fmt17h7aedfae811db80a9E
400e1340 l     F .text	000000d8 _ZN52_$LT$reqwless..Error$u20$as$u20$core..fmt..Debug$GT$3fmt17h3ae02fb7dcbc835bE
400ff748 l     F .text	000000e7 _ZN42_$LT$$RF$T$u20$as$u20$core..fmt..Debug$GT$3fmt17hb9254c7ae7c522eeE
400f3824 l     F .text	00000054 _ZN42_$LT$$RF$T$u20$as$u20$core..fmt..Debug$GT$3fmt17h68ee227969021d24E
400f2010 l     F .text	00000031 _ZN65_$LT$core..net..ip_addr..Ipv4Addr$u20$as$u20$core..fmt..Debug$GT$3fmt17h0301b8942b0a95a4E
400f24f8 l     F .text	00000069 _ZN4core3fmt9Formatter26debug_struct_field2_finish17h8c48a5ca627768fdE
400ff830 l     F .text	000000a0 _ZN42_$LT$$RF$T$u20$as$u20$core..fmt..Debug$GT$3fmt17he2744d5078fd2922E
400ff6e0 l     F .text	00000067 _ZN42_$LT$$RF$T$u20$as$u20$core..fmt..Debug$GT$3fmt17had6084d509729dd8E
400e1510 l     F .text	0000007a _ZN66_$LT$esp_wifi..InitializationError$u20$as$u20$core..fmt..Debug$GT$3fmt17h334fd039bd1f72e9E
400e158c l     F .text	00000035 _ZN67_$LT$hkdf..errors..InvalidPrkLength$u20$as$u20$core..fmt..Debug$GT$3fmt17h361bab85141a0e8cE
400e15c4 l     F .text	0000004b _ZN68_$LT$embedded_tls..alert..AlertLevel$u20$as$u20$core..fmt..Debug$GT$3fmt17h22c93a5774d43ac4E
400f2564 l     F .text	0000008b _ZN4core3fmt9Formatter26debug_struct_fields_finish17h361914f88d33e930E
400ef37c l     F .text	00000a90 _ZN3aes4soft8fixslice14aes128_encrypt17h189412ac40b0c420E
400e1bf0 l     F .text	00000035 _ZN70_$LT$cipher..errors..StreamCipherError$u20$as$u20$core..fmt..Debug$GT$3fmt17h6ccd709bc2c18d5eE
400f5e7c l     F .text	00000037 _ZN42_$LT$$RF$T$u20$as$u20$core..fmt..Debug$GT$3fmt17hf14ea89091296bacE
400f3674 l     F .text	00000055 _ZN42_$LT$$RF$T$u20$as$u20$core..fmt..Debug$GT$3fmt17h3e5fcdb7304dbfb0E
400e1c80 l     F .text	00000053 _ZN70_$LT$core..result..Result$LT$T$C$E$GT$$u20$as$u20$core..fmt..Debug$GT$3fmt17ha73cb46f5995c532E
400e1d20 l     F .text	000000fa _ZN70_$LT$heapless..string..String$LT$_$GT$$u20$as$u20$core..fmt..Write$GT$10write_char17hf588cd43aef31825E
400e1e1c l     F .text	00000054 _ZN70_$LT$heapless..string..String$LT$_$GT$$u20$as$u20$core..fmt..Write$GT$9write_str17hcf642ced3060f5c8E
40103e28 l     F .text	0000084a _ZN78_$LT$polyval..backend..soft..Polyval$u20$as$u20$universal_hash..UhfBackend$GT$10proc_block17ha096e608cacac3e6E
4010678c l     F .text	00000083 _ZN7smoltcp5iface9interface14InterfaceInner5route17h356e69221587b042E
40106810 l     F .text	000000f8 _ZN7smoltcp5iface8neighbor5Cache6lookup17hc010824908ee306fE
4010a28c l     F .text	0000018d _ZN7smoltcp4wire4ipv44Repr4emit17h8ced25004991c1f0E
4010a1bc l     F .text	000000d0 _ZN7smoltcp4wire3udp15Packet$LT$T$GT$13fill_checksum17hffdfdd54a88eaebfE
40109efc l     F .text	000002c0 _ZN7smoltcp4wire3tcp9TcpOption4emit17h962b4b119c373f12E
4010952c l     F .text	000000a1 _ZN7smoltcp4wire2ip8checksum13pseudo_header17hae87765c86f9e767E
400e3298 l     F .text	00000102 _ZN82_$LT$reqwless..client..HttpConnection$LT$C$GT$$u20$as$u20$reqwless..TryBufRead$GT$12try_fill_buf28_$u7b$$u7b$closure$u7d$$u7d$17h517d5ecc6e14694dE
400e3834 l     F .text	0000037e _ZN8reqwless7request9write_str28_$u7b$$u7b$closure$u7d$$u7d$17hb2e7bf674b7a029eE
400e3700 l     F .text	00000134 _ZN8reqwless7request12write_header28_$u7b$$u7b$closure$u7d$$u7d$17hda48cb4f9c425eeeE
400f0e8c l     F .text	00000033 _ZN4core3fmt3num3imp52_$LT$impl$u20$core..fmt..Display$u20$for$u20$u32$GT$3fmt17h89fbb007eba0bf65E
400e3bb4 l     F .text	000001d2 _ZN8reqwless8response7chunked26ChunkedBodyReader$LT$C$GT$22read_next_chunk_length28_$u7b$$u7b$closure$u7d$$u7d$17h00c85800007515baE
400e3d88 l     F .text	000001d2 _ZN8reqwless8response7chunked26ChunkedBodyReader$LT$C$GT$22read_next_chunk_length28_$u7b$$u7b$closure$u7d$$u7d$17h93399e5af3e331b9E
400e3f5c l     F .text	000001d2 _ZN8reqwless8response7chunked26ChunkedBodyReader$LT$C$GT$22read_next_chunk_length28_$u7b$$u7b$closure$u7d$$u7d$17hd661dc054b23a474E
400eef4c l     F .text	0000021a _ZN3aes4soft8fixslice8bitslice17hc0fd0e75eee75163E
400ef168 l     F .text	00000214 _ZN3aes4soft8fixslice9sub_bytes17h0bba0f00187eb6e0E
400e452c l     F .text	00000f57 _ZN9rand_core5block17BlockRng$LT$R$GT$16generate_and_set17he88d98779917e79fE
3ffb2c74 l     O .bss	00004001 _ZN8esp_test6TLS_RX17h397678d557f18205E
3ffb6c75 l     O .bss	00004001 _ZN8esp_test6TLS_TX17h8c78ec76eea5885cE
400f2e14 l     F .text	000000df _ZN4core3str7pattern14TwoWaySearcher22reverse_maximal_suffix17h10fe4a90b14060a3E
4010203c l     F .text	000001d1 _ZN90_$LT$core..str..iter..Split$LT$P$GT$$u20$as$u20$core..iter..traits..iterator..Iterator$GT$4next17hd389742add78e892E
40102210 l     F .text	00000098 _ZN4core3str21_$LT$impl$u20$str$GT$4find17hc263be0a6ba2bb0fE
400f2b8c l     F .text	00000013 _ZN4core3str16slice_error_fail17he57f45b08ec2a212E
40101ffc l     F .text	0000003d _ZN4core3str21_$LT$impl$u20$str$GT$12strip_prefix17h47ea871e0063ba9eE
400f6bd8 l     F .text	00000989 _ZN12embedded_tls9handshake12server_hello11ServerHello23calculate_shared_secret17h96e71ff5f6a5ffe2E
40104674 l     F .text	00000064 _ZN9rand_core5impls19fill_via_u32_chunks17h87a5c0298230d7c1E
3ffcac84 l     O .bss	00000001 __rust_no_alloc_shim_is_unstable
400f7bac l     F .text	00000199 _ZN9esp_alloc7EspHeap10alloc_caps17he48c5d670eb9bac4E
40101b84 l     F .text	000002dc _ZN8httparse8Response5parse17hcdab8430e5173a76E
400f19ac l     F .text	00000212 _ZN4core3str8converts9from_utf817hd25209136f8134aeE
40104a04 l     F .text	0000011a _ZN90_$LT$core..str..iter..Split$LT$P$GT$$u20$as$u20$core..iter..traits..iterator..Iterator$GT$4next17hf4917140c8520bf7E
40104770 l     F .text	00000220 _ZN4core3str21_$LT$impl$u20$str$GT$12trim_matches17hba968df2b33419cfE
400f036c l     F .text	00000031 _ZN4core3fmt3num3imp54_$LT$impl$u20$core..fmt..Display$u20$for$u20$usize$GT$3fmt17hd62904aa6d0f58d0E
400f7d48 l     F .text	000001f5 _ZN71_$LT$esp_alloc..EspHeap$u20$as$u20$core..alloc..global..GlobalAlloc$GT$7dealloc17h9ce9f5bdbca4e94eE
400efe24 l     F .text	0000000b _ZN5alloc5alloc18handle_alloc_error17h89ca94c6f9a11a4eE
400eff44 l     F .text	0000002e _RNvCs6MjFWaQOJWH_7___rustc9___rdl_oom
400eef40 l     F .text	0000000b _RNvCs6MjFWaQOJWH_7___rustc26___rust_alloc_error_handler
400efe30 l     F .text	00000021 _ZN5alloc7raw_vec17capacity_overflow17he3da05015262aacfE
400efe0c l     F .text	00000016 _ZN5alloc7raw_vec12handle_error17hf972b4dc453a4f7eE
400efe54 l     F .text	0000000b _ZN5alloc5alloc18handle_alloc_error8rt_error17ha4f51740834dbe45E
400efe60 l     F .text	00000095 _ZN5alloc7raw_vec11finish_grow17h422ca50b89d9417eE
400f2084 l     F .text	0000000b _ZN4core9panicking18panic_nounwind_fmt17hc8414c230f58346dE
400effd0 l     F .text	00000011 _ZN14allocator_api27raw_vec17capacity_overflow17h304ed6eaa7933d68E
400effe4 l     F .text	0000005e _ZN42_$LT$$RF$T$u20$as$u20$core..fmt..Debug$GT$3fmt17h5ef3da6585ff4641E
400f0110 l     F .text	0000015d _ZN80_$LT$const_oid..arcs..Arcs$u20$as$u20$core..iter..traits..iterator..Iterator$GT$4next17h98deb23fda98bcd4E
400f0044 l     F .text	000000cc _ZN44_$LT$$RF$T$u20$as$u20$core..fmt..Display$GT$3fmt17h8164b052d543b40bE
400f249c l     F .text	0000005b _ZN4core3fmt9Formatter26debug_struct_field1_finish17h983e9a3cd17ab06aE
400f0270 l     F .text	000000c3 _ZN60_$LT$const_oid..error..Error$u20$as$u20$core..fmt..Debug$GT$3fmt17hdc3465e8a60350aeE
400f85ec l     F .text	000000fc _RNvCs6MjFWaQOJWH_7___rustc17rust_begin_unwind
400f06c8 l     F .text	00000051 _ZN4core3fmt9Formatter12pad_integral12write_prefix17h21333576657d0522E
400f071c l     F .text	0000009d _ZN4core3fmt9Formatter7padding17hb9423a1c6b15ff39E
400f07cc l     F .text	00000037 _ZN4core5slice5index26slice_start_index_len_fail8do_panic7runtime17h247eefc07a9e0f57E
400f0814 l     F .text	00000037 _ZN4core5slice5index24slice_end_index_len_fail8do_panic7runtime17h2c8b61c540a0674dE
400f0c44 l     F .text	00000032 _ZN42_$LT$$RF$T$u20$as$u20$core..fmt..Debug$GT$3fmt17h13220d94613237b6E
400f0c10 l     F .text	00000033 _ZN59_$LT$core..fmt..Arguments$u20$as$u20$core..fmt..Display$GT$3fmt17h97663e3ee43f4e51E
400f0bdc l     F .text	00000033 _ZN44_$LT$$RF$T$u20$as$u20$core..fmt..Display$GT$3fmt17h7418769cd01a995aE
400f0b28 l     F .text	000000b3 _ZN4core9panicking19assert_failed_inner17ha26dfd2aba65107cE
400f0e58 l     F .text	00000021 _ZN4core9panicking11panic_const23panic_const_div_by_zero17hf4aac8935cbc0a91E
400f1018 l     F .text	00000039 _ZN4core5slice29_$LT$impl$u20$$u5b$T$u5d$$GT$15copy_from_slice17len_mismatch_fail8do_panic7runtime17hd933baf9034e737bE
400f12e8 l     F .text	000000c1 _ZN4core5slice6memchr14memchr_aligned17hc29e85b5fe12d5c2E
400f113c l     F .text	00000114 _ZN68_$LT$core..fmt..builders..PadAdapter$u20$as$u20$core..fmt..Write$GT$9write_str17h1ab1446e69ff4804E
400f1250 l     F .text	0000005f _ZN68_$LT$core..fmt..builders..PadAdapter$u20$as$u20$core..fmt..Write$GT$10write_char17h809de401989c1e46E
400f12b0 l     F .text	00000036 _ZN4core3fmt5Write9write_fmt17h71b55992f747fd6bE
400f13ac l     F .text	00000097 _ZN71_$LT$core..ops..range..Range$LT$Idx$GT$$u20$as$u20$core..fmt..Debug$GT$3fmt17hc1b0626d351141a1E
3f407784 l     O .rodata	00000088 _ZN4core7unicode12unicode_data15grapheme_extend17SHORT_OFFSET_RUNS17h93de17da2ffa8dacE
3f4065f3 l     O .rodata	000002ef _ZN4core7unicode12unicode_data15grapheme_extend7OFFSETS17h886bf0636f062ea5E
400f1444 l     F .text	000000b8 _ZN4core7unicode12unicode_data15grapheme_extend11lookup_slow17h95035a2c1bd91fefE
400f1734 l     F .text	000000dd _ZN4core7unicode9printable5check17h8fcc69843977a651E
400f14fc l     F .text	00000129 _ZN4core7unicode9printable12is_printable17h547708ce1f92ed52E
400f1628 l     F .text	000000c0 _ZN4core6escape14escape_unicode17hce00d1d211866893E
400f16e8 l     F .text	0000004b _ZN62_$LT$core..char..EscapeDebug$u20$as$u20$core..fmt..Display$GT$3fmt17h2b16ee35feebfc57E
400f1824 l     F .text	00000037 _ZN4core5slice5index22slice_index_order_fail8do_panic7runtime17hf074385fa63bd5d9E
400f18a4 l     F .text	00000067 _ZN4core3fmt8builders11DebugStruct6finish17ha87404231ebf1410E
400f185c l     F .text	00000048 _ZN60_$LT$core..cell..BorrowError$u20$as$u20$core..fmt..Debug$GT$3fmt17ha849070c621d1f8dE
400f190c l     F .text	00000048 _ZN63_$LT$core..cell..BorrowMutError$u20$as$u20$core..fmt..Debug$GT$3fmt17h071948f8633d5119E
400f1980 l     F .text	0000002c _ZN4core4cell30panic_already_mutably_borrowed17h4a05a7215b94019aE
400f1bc0 l     F .text	0000012a _ZN4core3fmt8builders11DebugStruct10field_with17h481d2e09a2973289E
400f1cec l     F .text	0000005a _ZN86_$LT$core..net..display_buffer..DisplayBuffer$LT$_$GT$$u20$as$u20$core..fmt..Write$GT$9write_str17h8e34c6230aeb4f89E
400f1e6c l     F .text	00000036 _ZN4core3fmt5Write9write_fmt17h8965df54d2b5582aE
400f1d48 l     F .text	00000121 _ZN67_$LT$core..net..ip_addr..Ipv4Addr$u20$as$u20$core..fmt..Display$GT$3fmt17he367c92cfc6ed021E
400f1ee4 l     F .text	00000035 _ZN53_$LT$core..fmt..Error$u20$as$u20$core..fmt..Debug$GT$3fmt17h8cbe5748aa844b8cE.114
400f1f1c l     F .text	000000f2 _ZN4core3fmt5Write10write_char17hbf333d0481601b81E
400f2058 l     F .text	00000029 _ZN4core9panicking13panic_display17h7240913fc1d3c171E
400f2090 l     F .text	00000018 _ZN4core9panicking18panic_nounwind_fmt7runtime17hb12796e67689c4a8E
400f20c8 l     F .text	00000055 _ZN42_$LT$$RF$T$u20$as$u20$core..fmt..Debug$GT$3fmt17he658fd37c7bcfe24E
400f2120 l     F .text	00000066 _ZN4core3fmt17pointer_fmt_inner17h39593a7fd53fbebcE
400f2188 l     F .text	000000d9 _ZN4core3fmt8builders10DebugTuple10field_with17h0683926d532b3613E
400f2264 l     F .text	0000007b _ZN4core3fmt8builders10DebugTuple6finish17hb2ce1000b331cbe6E
400f22e0 l     F .text	000001b9 _ZN41_$LT$char$u20$as$u20$core..fmt..Debug$GT$3fmt17h3f517456281c6f7aE
400f26b0 l     F .text	0000004a _ZN43_$LT$bool$u20$as$u20$core..fmt..Display$GT$3fmt17h0d9837d66ceb8b3aE
400f26fc l     F .text	0000048d _ZN40_$LT$str$u20$as$u20$core..fmt..Debug$GT$3fmt17h97beb5af829d6bf0E
400f2ba0 l     F .text	00000272 _ZN4core3str19slice_error_fail_rt17h3ac2f7ab89cea5ddE
400f2f6c l     F .text	000001ce _ZN4core3fmt3num3imp52_$LT$impl$u20$core..fmt..Display$u20$for$u20$u64$GT$3fmt17h64ef4ec31dac3e6aE
400f313c l     F .text	00000031 _ZN4core3fmt3num53_$LT$impl$u20$core..fmt..LowerHex$u20$for$u20$u32$GT$3fmt17heb8cee4a017f9110E
400f326c l     F .text	00000034 _ZN42_$LT$$RF$T$u20$as$u20$core..fmt..Debug$GT$3fmt17h3df0566beee5c9ebE
400f3328 l     F .text	0000003e _ZN42_$LT$$RF$T$u20$as$u20$core..fmt..Debug$GT$3fmt17h9f3d11075e5e9f7cE
400f32d0 l     F .text	00000056 _ZN42_$LT$$RF$T$u20$as$u20$core..fmt..Debug$GT$3fmt17h0e2e54d776967423E
400f3474 l     F .text	000001ae _ZN44_$LT$$RF$T$u20$as$u20$core..fmt..Display$GT$3fmt17h27d04bf2285f22e5E
400f3368 l     F .text	0000010b _ZN42_$LT$$RF$T$u20$as$u20$core..fmt..Debug$GT$3fmt17h235a6544060acd6eE
400f3624 l     F .text	0000004f _ZN66_$LT$der..tag..number..TagNumber$u20$as$u20$core..fmt..Display$GT$3fmt17h027e298160e349b1E
400faa6c l     F .text	00000057 _ZN42_$LT$$RF$T$u20$as$u20$core..fmt..Debug$GT$3fmt17h8cdabf98869f3ff2E
400f36cc l     F .text	00000058 _ZN42_$LT$$RF$T$u20$as$u20$core..fmt..Debug$GT$3fmt17haea9f9fb91645487E
400f3724 l     F .text	0000002a _ZN16embassy_executor3raw5waker5clone17h4973881ca73f6068E
400f37a8 l     F .text	0000007c _ZN16embassy_executor3raw9wake_task17h2c1d74427ede7b33E
400f3750 l     F .text	0000002d _ZN16embassy_executor3raw5waker4wake17hef51478cf5effa49E
400f3780 l     F .text	00000025 _ZN16embassy_executor3raw5waker4drop17hf9dde0d07c0dc7dfE
400f4350 l     F .text	00000119 _ZN42_$LT$$RF$T$u20$as$u20$core..fmt..Debug$GT$3fmt17hfbd67b8848bac903E
400f3878 l     F .text	00000033 _ZN42_$LT$$RF$T$u20$as$u20$core..fmt..Debug$GT$3fmt17h5e1f303b5c36df0dE
400f38ac l     F .text	00000031 _ZN42_$LT$$RF$T$u20$as$u20$core..fmt..Debug$GT$3fmt17h6908601bbdf7a96bE
400f38e0 l     F .text	00000033 _ZN42_$LT$$RF$T$u20$as$u20$core..fmt..Debug$GT$3fmt17hd70230a257615ef9E
40109bbc l     F .text	00000072 _ZN65_$LT$smoltcp..wire..ip..Address$u20$as$u20$core..fmt..Display$GT$3fmt17h802951b400dfcc2fE
400f3b2c l     F .text	000000b6 _ZN7smoltcp5iface9interface9Interface15update_ip_addrs17hc89d25eac60274b8E
400f3ce4 l     F .text	0000006a _ZN72_$LT$embassy_net_driver..HardwareAddress$u20$as$u20$core..fmt..Debug$GT$3fmt17h9e77f584f6a6bc20E
400f4268 l     F .text	00000055 _ZN66_$LT$core..option..Option$LT$T$GT$$u20$as$u20$core..fmt..Debug$GT$3fmt17h7380ac7287535c9eE
40109c30 l     F .text	000000df _ZN7smoltcp5iface5route6Routes25remove_default_ipv4_route17ha2151deab5bbc88eE
400f42c0 l     F .text	00000035 _ZN74_$LT$smoltcp..iface..route..RouteTableFull$u20$as$u20$core..fmt..Debug$GT$3fmt17h2485d82083d65046E
40103814 l     F .text	000000cf _ZN4p25610arithmetic5field12FieldElement10from_bytes17h2c11797aa4d0295dE
40102400 l     F .text	00000ea6 _ZN4p25610arithmetic5field10field_impl6fe_mul17h5802513aaa146737E
401032f4 l     F .text	00000302 _ZN4p25610arithmetic5field10field_impl6fe_add17ha04822900b72804cE
401032a8 l     F .text	0000004b _ZN80_$LT$p256..arithmetic..field..FieldElement$u20$as$u20$subtle..ConstantTimeEq$GT$5ct_eq17h1f39bbf3369c9396E
401035f8 l     F .text	0000021c _ZN4p25610arithmetic5field10field_impl6fe_sub17hdb658b6efda78140E
400f44dc l     F .text	000008b4 _ZN108_$LT$primeorder..affine..AffinePoint$LT$C$GT$$u20$as$u20$elliptic_curve..point..DecompressPoint$LT$C$GT$$GT$10decompress17h4caa650f3a5ea52fE
400f4e64 l     F .text	00000057 _ZN42_$LT$$RF$T$u20$as$u20$core..fmt..Debug$GT$3fmt17he8e18a13f0908fdeE
400f4ddc l     F .text	00000085 _ZN55_$LT$sec1..error..Error$u20$as$u20$core..fmt..Debug$GT$3fmt17hcec30c5bbd85b3ceE
400f4ebc l     F .text	000001d0 _ZN58_$LT$der..error..ErrorKind$u20$as$u20$core..fmt..Debug$GT$3fmt17hf70460463003bffeE.287
400f50e4 l     F .text	0000003c _ZN56_$LT$der..length..Length$u20$as$u20$core..fmt..Debug$GT$3fmt17ha3e28a1d9aec5200E.288
400f508c l     F .text	00000055 _ZN66_$LT$core..option..Option$LT$T$GT$$u20$as$u20$core..fmt..Debug$GT$3fmt17h1ec66e20ae26b021E
400f5120 l     F .text	00000332 _ZN134_$LT$primeorder..point_arithmetic..EquationAIsMinusThree$u20$as$u20$primeorder..point_arithmetic..sealed..PointArithmetic$LT$C$GT$$GT$3add17hb90511753a80f634E
400f57b0 l     F .text	00000299 _ZN134_$LT$primeorder..point_arithmetic..EquationAIsMinusThree$u20$as$u20$primeorder..point_arithmetic..sealed..PointArithmetic$LT$C$GT$$GT$6double17hca6f0b83f158629cE
400f6070 l     F .text	0000004a _ZN12embedded_tls6buffer12CryptoBuffer3set17h597415aa2d82262eE
3ffd0438 l     O .bss	00000064 _ZN9esp_alloc4HEAP17hd7d24eb5f15f4ab9E
40101e60 l     F .text	00000056 _ZN21linked_list_allocator4hole8HoleList12align_layout17h02aae243ac275949E
40101ef0 l     F .text	00000056 _ZN21linked_list_allocator8align_up17h80f9af126a09bca1E
400ff55c l     F .text	00000031 _ZN50_$LT$$BP$mut$u20$T$u20$as$u20$core..fmt..Debug$GT$3fmt17h2dbdca640c0a9507E
400f8060 l     F .text	0000008e _ZN9esp_alloc7EspHeap9free_caps17h28881d3e4577db2fE
400f80f0 l     F .text	0000004d _ZN42_$LT$$RF$T$u20$as$u20$core..fmt..Debug$GT$3fmt17h8bd88195964c5f06E
400f8140 l     F .text	000000a9 _ZN44_$LT$$RF$T$u20$as$u20$core..fmt..Display$GT$3fmt17hac2076ccc5106b2fE
400f81ec l     F .text	00000068 _ZN74_$LT$esp_backtrace..arch..ExceptionCause$u20$as$u20$core..fmt..Display$GT$3fmt17h1f457a926fc89dafE
400f8254 l     F .text	00000283 _ZN65_$LT$esp_backtrace..arch..Context$u20$as$u20$core..fmt..Debug$GT$3fmt17h69f96c8bdb0b3b9dE
400f8510 l     F .text	0000004e _ZN13esp_backtrace4arch2sp17h8ef23edcf812cb05E
400f8560 l     F .text	0000008c _ZN13esp_backtrace4arch18backtrace_internal17h48d0e1347b85f493E
400f84d8 l     F .text	00000035 _ZN13esp_backtrace4arch9backtrace17h7388f6d98dc38d4aE
400f86e8 l     F .text	0000005a _ZN13esp_backtrace13pre_backtrace17he3df0b9f23f2fbe9E
400fa8d8 l     F .text	00000036 _ZN4core3fmt5Write9write_fmt17h01237ae104d06377E
400f8744 l     F .text	00000054 _ZN13esp_backtrace5abort17h71aef945d8be3933E
400f8798 l     F .text	0000005a _ZN13esp_backtrace14set_color_code17hf4d6d62272c818a0E
400f87f4 l     F .text	00000036 _ZN13esp_backtrace4halt17ha3d3cc65b1863f7eE
400f8894 l     F .text	00000083 _ZN7esp_hal4sync18LockGuard$LT$L$GT$13new_reentrant17hc6551932e95cd1fbE
400f882c l     F .text	00000067 _ZN87_$LT$esp_hal..sync..RawMutex$u20$as$u20$embassy_sync..blocking_mutex..raw..RawMutex$GT$4lock17h8685f361850e4d4fE
3f40e43c l     O .rodata	00000000 _ZN3log6logger3NOP17hfea756037229ad69E
3ffcfca0 l     O .bss	00000058 _ZN7esp_hal6system20PERIPHERAL_REF_COUNT17h6a4899ca59dd8b96E
400f8fa8 l     F .text	00000043 _ZN64_$LT$esp_hal..system..Peripheral$u20$as$u20$core..fmt..Debug$GT$3fmt17he1d72fcc20e93717E
400f9074 l     F .text	0000021a _ZN7esp_hal6system17assert_peri_reset17h9b228d1eaee2896aE
400f9330 l     F .text	000001b2 _ZN7esp_hal9interrupt6xtensa16setup_interrupts17h30e8a7a38b390c1eE
400f95b0 l     F .text	00000055 _ZN7esp_hal9interrupt15InterruptStatus3set17h338d4a36b76e7855E
400f9608 l     F .text	0000007e _ZN102_$LT$esp_hal..interrupt..InterruptStatusIterator$u20$as$u20$core..iter..traits..iterator..Iterator$GT$4next17h0a87599dfdd08b38E
400f9688 l     F .text	00000080 _ZN7esp_hal4sync11single_core12PriorityLock20change_current_level17hbb6d270ed4ea4638E
400f9708 l     F .text	000000ac _ZN96_$LT$esp_hal..sync..single_core..PriorityLock$u20$as$u20$esp_hal..sync..single_core..RawLock$GT$4exit17hc7a79c9267b4915cE
400f984c l     F .text	00000053 _ZN7esp_hal5timer4timg5Timer13reset_counter17he181f737d975dbc3E
400f98a0 l     F .text	0000005b _ZN7esp_hal5timer4timg5Timer16set_alarm_active17hc47a00134aa8062aE
400f9a1c l     F .text	0000005b _ZN69_$LT$esp_hal..timer..timg..Timer$u20$as$u20$esp_hal..timer..Timer$GT$16enable_interrupt17h8e4378c5a45d5a85E
3ffb0c10 l     O .data	00000004 _ZN7esp_hal4gpio9GPIO_LOCK17h05b60e292a4ba092E
3ffcfc98 l     O .bss	00000008 _ZN7esp_hal4gpio8GpioBank16async_operations5FLAGS17hbbe05f46f1fa3b4bE
3ffb0c14 l     O .data	0000000c _ZN71_$LT$esp_hal..peripherals..GPIO0$u20$as$u20$esp_hal..gpio..InputPin$GT$5waker5WAKER17hd75472a2e2f893b8E
3ffb0dac l     O .data	0000000c _ZN72_$LT$esp_hal..peripherals..GPIO39$u20$as$u20$esp_hal..gpio..InputPin$GT$5waker5WAKER17h55fc58040ea6ccafE
3ffb0da0 l     O .data	0000000c _ZN72_$LT$esp_hal..peripherals..GPIO38$u20$as$u20$esp_hal..gpio..InputPin$GT$5waker5WAKER17h39e871472fbaa4b9E
3ffb0d94 l     O .data	0000000c _ZN72_$LT$esp_hal..peripherals..GPIO37$u20$as$u20$esp_hal..gpio..InputPin$GT$5waker5WAKER17ha5b467c939c8ac91E
3ffb0d88 l     O .data	0000000c _ZN72_$LT$esp_hal..peripherals..GPIO36$u20$as$u20$esp_hal..gpio..InputPin$GT$5waker5WAKER17h69e020af44f8ef66E
3ffb0d7c l     O .data	0000000c _ZN72_$LT$esp_hal..peripherals..GPIO35$u20$as$u20$esp_hal..gpio..InputPin$GT$5waker5WAKER17h08f79e7ea2569b99E
3ffb0d70 l     O .data	0000000c _ZN72_$LT$esp_hal..peripherals..GPIO34$u20$as$u20$esp_hal..gpio..InputPin$GT$5waker5WAKER17h121eddd79037e9c5E
3ffb0d64 l     O .data	0000000c _ZN72_$LT$esp_hal..peripherals..GPIO33$u20$as$u20$esp_hal..gpio..InputPin$GT$5waker5WAKER17h3450c07838f31806E
3ffb0d58 l     O .data	0000000c _ZN72_$LT$esp_hal..peripherals..GPIO32$u20$as$u20$esp_hal..gpio..InputPin$GT$5waker5WAKER17h77aa4154e98dbcd1E
3ffb0d4c l     O .data	0000000c _ZN72_$LT$esp_hal..peripherals..GPIO27$u20$as$u20$esp_hal..gpio..InputPin$GT$5waker5WAKER17hd72c8154848eb79eE
3ffb0d40 l     O .data	0000000c _ZN72_$LT$esp_hal..peripherals..GPIO26$u20$as$u20$esp_hal..gpio..InputPin$GT$5waker5WAKER17h40147ffe8071b620E
3ffb0d34 l     O .data	0000000c _ZN72_$LT$esp_hal..peripherals..GPIO25$u20$as$u20$esp_hal..gpio..InputPin$GT$5waker5WAKER17hc91acc52e2cfc0c9E
3ffb0d28 l     O .data	0000000c _ZN72_$LT$esp_hal..peripherals..GPIO23$u20$as$u20$esp_hal..gpio..InputPin$GT$5waker5WAKER17h1ed284a2b79d07a1E
3ffb0d1c l     O .data	0000000c _ZN72_$LT$esp_hal..peripherals..GPIO22$u20$as$u20$esp_hal..gpio..InputPin$GT$5waker5WAKER17h695d135382e3095cE
3ffb0d10 l     O .data	0000000c _ZN72_$LT$esp_hal..peripherals..GPIO21$u20$as$u20$esp_hal..gpio..InputPin$GT$5waker5WAKER17h233cda1d30ec4cdbE
3ffb0d04 l     O .data	0000000c _ZN72_$LT$esp_hal..peripherals..GPIO20$u20$as$u20$esp_hal..gpio..InputPin$GT$5waker5WAKER17hafef5e21677dd8b2E
3ffb0cf8 l     O .data	0000000c _ZN72_$LT$esp_hal..peripherals..GPIO19$u20$as$u20$esp_hal..gpio..InputPin$GT$5waker5WAKER17hd6187885b9813dfdE
3ffb0cec l     O .data	0000000c _ZN72_$LT$esp_hal..peripherals..GPIO18$u20$as$u20$esp_hal..gpio..InputPin$GT$5waker5WAKER17h9a411d0b9455e0feE
3ffb0ce0 l     O .data	0000000c _ZN72_$LT$esp_hal..peripherals..GPIO17$u20$as$u20$esp_hal..gpio..InputPin$GT$5waker5WAKER17hdc9d4ef192ef570cE
3ffb0cd4 l     O .data	0000000c _ZN72_$LT$esp_hal..peripherals..GPIO16$u20$as$u20$esp_hal..gpio..InputPin$GT$5waker5WAKER17hf379483dceaa364aE
3ffb0cc8 l     O .data	0000000c _ZN72_$LT$esp_hal..peripherals..GPIO15$u20$as$u20$esp_hal..gpio..InputPin$GT$5waker5WAKER17h1579cc34425856aaE
3ffb0cbc l     O .data	0000000c _ZN72_$LT$esp_hal..peripherals..GPIO14$u20$as$u20$esp_hal..gpio..InputPin$GT$5waker5WAKER17hd81882ada32f06c9E
3ffb0cb0 l     O .data	0000000c _ZN72_$LT$esp_hal..peripherals..GPIO13$u20$as$u20$esp_hal..gpio..InputPin$GT$5waker5WAKER17h92bc895fcd25005bE
3ffb0ca4 l     O .data	0000000c _ZN72_$LT$esp_hal..peripherals..GPIO12$u20$as$u20$esp_hal..gpio..InputPin$GT$5waker5WAKER17hfaf411504d00709aE
3ffb0c98 l     O .data	0000000c _ZN72_$LT$esp_hal..peripherals..GPIO11$u20$as$u20$esp_hal..gpio..InputPin$GT$5waker5WAKER17h88c5edd88dabebfeE
3ffb0c8c l     O .data	0000000c _ZN72_$LT$esp_hal..peripherals..GPIO10$u20$as$u20$esp_hal..gpio..InputPin$GT$5waker5WAKER17hda52e705d83614b7E
3ffb0c80 l     O .data	0000000c _ZN71_$LT$esp_hal..peripherals..GPIO9$u20$as$u20$esp_hal..gpio..InputPin$GT$5waker5WAKER17h3008dd3c8566e47cE
3ffb0c74 l     O .data	0000000c _ZN71_$LT$esp_hal..peripherals..GPIO8$u20$as$u20$esp_hal..gpio..InputPin$GT$5waker5WAKER17h3103713e11299d54E
3ffb0c68 l     O .data	0000000c _ZN71_$LT$esp_hal..peripherals..GPIO7$u20$as$u20$esp_hal..gpio..InputPin$GT$5waker5WAKER17h0c51647b5fb7dfddE
3ffb0c5c l     O .data	0000000c _ZN71_$LT$esp_hal..peripherals..GPIO6$u20$as$u20$esp_hal..gpio..InputPin$GT$5waker5WAKER17h9b63d92f667ee023E
3ffb0c50 l     O .data	0000000c _ZN71_$LT$esp_hal..peripherals..GPIO5$u20$as$u20$esp_hal..gpio..InputPin$GT$5waker5WAKER17h95f63705bf1a26d8E
3ffb0c44 l     O .data	0000000c _ZN71_$LT$esp_hal..peripherals..GPIO4$u20$as$u20$esp_hal..gpio..InputPin$GT$5waker5WAKER17h6d7d3f517c805506E
3ffb0c38 l     O .data	0000000c _ZN71_$LT$esp_hal..peripherals..GPIO3$u20$as$u20$esp_hal..gpio..InputPin$GT$5waker5WAKER17hdeac39d350ba5665E
3ffb0c2c l     O .data	0000000c _ZN71_$LT$esp_hal..peripherals..GPIO2$u20$as$u20$esp_hal..gpio..InputPin$GT$5waker5WAKER17h927f22eb54b90b80E
3ffb0c20 l     O .data	0000000c _ZN71_$LT$esp_hal..peripherals..GPIO1$u20$as$u20$esp_hal..gpio..InputPin$GT$5waker5WAKER17h65074120153444a6E
400f9e68 l     F .text	0000009e _ZN7esp_hal4sync24GenericRawMutex$LT$L$GT$7acquire17h0f00bd09226e2dd7E
400f9f08 l     F .text	00000021 _ZN15esp_hal_embassy11time_driver17not_enough_timers17h997aadaaa5c0829bE
400f9f2c l     F .text	00000024 _ZN4core9panicking13assert_failed17h047e1049ce6a9a02E
400f9f50 l     F .text	0000005e _ZN42_$LT$$RF$T$u20$as$u20$core..fmt..Debug$GT$3fmt17hc1149f8a675c4838E
400fa150 l     F .text	00000052 _ZN7esp_hal4sync24GenericRawMutex$LT$L$GT$4lock17h768959c1c1674bfdE
400fa1a4 l     F .text	00000411 _ZN15esp_hal_embassy11timer_queue10TimerQueue8dispatch17h0a69107c14f02dddE
400f9fb0 l     F .text	00000036 _ZN15esp_hal_embassy11time_driver6DRIVER7handler17h786ad4576fcd0e16E
400f9fe8 l     F .text	00000039 _ZN15esp_hal_embassy11time_driver6DRIVER7handler17h2e5ac2f6b5c6fc86E
400fa024 l     F .text	0000003a _ZN15esp_hal_embassy11time_driver6DRIVER7handler17h00a986b86ea18bf7E
400fa060 l     F .text	0000003a _ZN15esp_hal_embassy11time_driver6DRIVER7handler17hdce989249f53e0dfE
400fa09c l     F .text	0000003a _ZN15esp_hal_embassy11time_driver6DRIVER7handler17h1366b775bcbef78eE
400fa0d8 l     F .text	0000003a _ZN15esp_hal_embassy11time_driver6DRIVER7handler17h745574f150c4a8daE
400fa114 l     F .text	0000003a _ZN15esp_hal_embassy11time_driver6DRIVER7handler17h36f154c8c6925235E
400fa780 l     F .text	00000033 _ZN44_$LT$$RF$T$u20$as$u20$core..fmt..Display$GT$3fmt17h0f7f683bc2cae7c7E
400fa880 l     F .text	00000057 _ZN11esp_println7Printer11write_bytes17h8d30d795bf35e575E
400fa7b4 l     F .text	000000c9 _ZN4core3fmt5Write10write_char17h73192af7b0c8ed17E
400fa910 l     F .text	00000031 _ZN57_$LT$esp_println..Printer$u20$as$u20$core..fmt..Write$GT$9write_str17hcd03b541db5b540eE
400fa944 l     F .text	0000003c _ZN56_$LT$log..SetLoggerError$u20$as$u20$core..fmt..Debug$GT$3fmt17h8e6a462754071676E
400fa980 l     F .text	00000033 _ZN62_$LT$esp_println..logger..EspEnvLogger$u20$as$u20$log..Log$GT$7enabled17h97e8740dc0e2595eE
40101f48 l     F .text	0000003b _ZN49_$LT$log..Level$u20$as$u20$core..fmt..Display$GT$3fmt17h06e3069ee1bcf4fdE
400fa9b4 l     F .text	000000b5 _ZN62_$LT$esp_println..logger..EspEnvLogger$u20$as$u20$log..Log$GT$3log17h54673e11c5b8ffe5E
400fabc4 l     F .text	00000055 _ZN64_$LT$core..str..error..Utf8Error$u20$as$u20$core..fmt..Debug$GT$3fmt17h119531337d94ca06E.495
400fac1c l     F .text	000000a4 _ZN8esp_wifi4wifi10os_adapter8set_intr17h024507ec2895fda2E
400facc0 l     F .text	0000007b _ZN8esp_wifi4wifi10os_adapter10clear_intr17h90e2123c2fc7db6dE
3ffd04a4 l     O .bss	00000004 _ZN8esp_wifi4wifi10os_adapter15ISR_INTERRUPT_117ha109f6e40bbfe41cE.0
3ffd04a8 l     O .bss	00000004 _ZN8esp_wifi4wifi10os_adapter15ISR_INTERRUPT_117ha109f6e40bbfe41cE.1
400fad3c l     F .text	00000108 _ZN8esp_wifi4wifi10os_adapter24os_adapter_chip_specific7set_isr17h9472bb9f889b99c3E
400fae44 l     F .text	00000080 _ZN8esp_wifi4wifi10os_adapter7ints_on17h8cc902b8690596a5E
400faec4 l     F .text	00000085 _ZN8esp_wifi4wifi10os_adapter8ints_off17h9a9bd75b7717a01cE
400ff5f8 l     F .text	00000080 _ZN8esp_wifi6compat6common10sem_create17h218f549dac9364fcE
400faf4c l     F .text	0000007b _ZN8esp_wifi4wifi10os_adapter16spin_lock_create17hada9ca0f52b510d7E
400ff590 l     F .text	00000068 _ZN8esp_wifi6compat6common10sem_delete17hec03aa3d46a8d547E
400fafc8 l     F .text	00000079 _ZN8esp_wifi4wifi10os_adapter16spin_lock_delete17hbc5f69b5f4cab817E
3ffb0f48 l     O .data	00000004 _ZN8esp_wifi4wifi10os_adapter9WIFI_LOCK17h7ff2d87501f90d18E
400fb044 l     F .text	000000c1 _ZN8esp_wifi4wifi10os_adapter16wifi_int_disable17h9753f03b75a5f610E
400fb108 l     F .text	00000077 _ZN8esp_wifi4wifi10os_adapter16wifi_int_restore17hd23852a79337a087E
400fb180 l     F .text	00000066 _ZN8esp_wifi4wifi10os_adapter19task_yield_from_isr17h4d4ed28773f3d187E
400fb1e8 l     F .text	00000087 _ZN8esp_wifi14common_adapter13semphr_create17hf7762163e0c013c0E
400fb270 l     F .text	00000079 _ZN8esp_wifi14common_adapter13semphr_delete17h69a7add57b2aefb6E
400fef44 l     F .text	0000006a _ZN8esp_wifi4time14systimer_count17h587c7d69d0f1f10fE
40081498 l     F .rwtext	0000021e _ZN8esp_wifi14common_adapter11semphr_take17h5354b97a7cf501f8E
400816b8 l     F .rwtext	00000094 _ZN8esp_wifi14common_adapter11semphr_give17hd7f997f817ccb9adE
3ffb0e54 l     O .data	0000000c _ZN8esp_wifi15preempt_builtin15SCHEDULER_STATE17he040cc0621ad4dffE
400fb2ec l     F .text	00000086 _ZN8esp_wifi4wifi10os_adapter22wifi_thread_semphr_get17h9012e94db34d55e7E
400fb374 l     F .text	00000023 _ZN8esp_wifi4wifi10os_adapter12mutex_create17hf75879e269a6547cE
400fb398 l     F .text	00000083 _ZN8esp_wifi4wifi10os_adapter22recursive_mutex_create17h835b746799d78d1fE
400fb41c l     F .text	0000002d _ZN8esp_wifi4wifi10os_adapter12mutex_delete17h613a245412b1a500E
400fb44c l     F .text	000000e6 _ZN8esp_wifi4wifi10os_adapter10mutex_lock17h1dba485cc60f0fd1E
400fb534 l     F .text	000000a6 _ZN8esp_wifi4wifi10os_adapter12mutex_unlock17h67da0f943d6ac614E
400fec04 l     F .text	0000012c _ZN8esp_wifi6compat6common12create_queue17hc019b78e8a7158d8E
400fb5dc l     F .text	00000076 _ZN8esp_wifi4wifi10os_adapter12queue_create17h6581f2abc6727104E
400feac4 l     F .text	00000085 _ZN8esp_wifi6compat6common12delete_queue17hd3ab973b2bbd4e33E
400fb654 l     F .text	0000002d _ZN8esp_wifi4wifi10os_adapter12queue_delete17he871d112f3d1915fE
400fb684 l     F .text	00000116 _ZN8esp_wifi4wifi10os_adapter10queue_send17hd10d8bb4390c57e0E
400fb79c l     F .text	00000071 _ZN8esp_wifi4wifi10os_adapter19queue_send_from_isr17ha2d02fca953aaeccE
400fb810 l     F .text	00000023 _ZN8esp_wifi4wifi10os_adapter18queue_send_to_back17h862880eaf74881baE
400fb834 l     F .text	00000023 _ZN8esp_wifi4wifi10os_adapter19queue_send_to_front17hf6935084e72fd6ddE
400fb858 l     F .text	00000211 _ZN8esp_wifi4wifi10os_adapter10queue_recv17h64cb92885407d4e7E
400fba6c l     F .text	0000009c _ZN8esp_wifi4wifi10os_adapter17queue_msg_waiting17he92d11fe66202d17E
400fbb08 l     F .text	00000023 _ZN8esp_wifi4wifi10os_adapter18event_group_create17hf116968fd46c0a7dE
400fbb2c l     F .text	00000023 _ZN8esp_wifi4wifi10os_adapter18event_group_delete17h2b5149c477e3b518E
400fbb50 l     F .text	00000023 _ZN8esp_wifi4wifi10os_adapter20event_group_set_bits17h8ea691a24ebd7f9fE
400fbb74 l     F .text	00000023 _ZN8esp_wifi4wifi10os_adapter22event_group_clear_bits17h2567795fde6a3a8fE
400fbb98 l     F .text	00000023 _ZN8esp_wifi4wifi10os_adapter21event_group_wait_bits17hd1f5e0ad1385a07dE
400fbbbc l     F .text	000000e6 _ZN8esp_wifi4wifi10os_adapter26task_create_pinned_to_core17h4a2269be48dfaeccE
400fbca4 l     F .text	0000003f _ZN8esp_wifi4wifi10os_adapter11task_create17hd524e11243b7dc86E
400ff37c l     F .text	00000054 _ZN92_$LT$esp_wifi..preempt_builtin..BuiltinScheduler$u20$as$u20$esp_wifi..preempt..Scheduler$GT$22schedule_task_deletion17h7d8ddc2fc60ddfbfE
400fbce4 l     F .text	0000009d _ZN8esp_wifi4wifi10os_adapter11task_delete17h31ec771bdaf34afcE
400fbd84 l     F .text	000000ae _ZN8esp_wifi4wifi10os_adapter10task_delay17h973d4bc01c28b0e6E
400fbe34 l     F .text	00000077 _ZN8esp_wifi4wifi10os_adapter15task_ms_to_tick17hd9a73fdcf35008f6E
400fbeac l     F .text	00000090 _ZN8esp_wifi4wifi10os_adapter21task_get_current_task17hab8970983dc00b94E
400fbf3c l     F .text	00000063 _ZN8esp_wifi4wifi10os_adapter21task_get_max_priority17h6347d2c4a867b302E
400ff338 l     F .text	00000042 _ZN62_$LT$esp_wifi..wifi..WifiEvent$u20$as$u20$core..fmt..Debug$GT$3fmt17h3e217e210512b0d5E
3ffb11f0 l     O .data	0000000c _ZN94_$LT$esp_wifi..wifi..event..StaNeighborRep$u20$as$u20$esp_wifi..wifi..event..sealed..Event$GT$7handler6HANDLE17hf84dd43cbce9e0e6E
3ffb11e4 l     O .data	0000000c _ZN97_$LT$esp_wifi..wifi..event..HomeChannelChange$u20$as$u20$esp_wifi..wifi..event..sealed..Event$GT$7handler6HANDLE17h11ce47b7ef777667E
3ffb11d8 l     O .data	0000000c _ZN93_$LT$esp_wifi..wifi..event..NdpTerminated$u20$as$u20$esp_wifi..wifi..event..sealed..Event$GT$7handler6HANDLE17h6145c27aafa954ffE
3ffb11cc l     O .data	0000000c _ZN90_$LT$esp_wifi..wifi..event..NdpConfirm$u20$as$u20$esp_wifi..wifi..event..sealed..Event$GT$7handler6HANDLE17h16ba52cd016a66d5E
3ffb11c0 l     O .data	0000000c _ZN93_$LT$esp_wifi..wifi..event..NdpIndication$u20$as$u20$esp_wifi..wifi..event..sealed..Event$GT$7handler6HANDLE17hbb8d0ccfb2844d07E
3ffb11b4 l     O .data	0000000c _ZN90_$LT$esp_wifi..wifi..event..NanReceive$u20$as$u20$esp_wifi..wifi..event..sealed..Event$GT$7handler6HANDLE17ha8f9949df402b99eE
3ffb11a8 l     O .data	0000000c _ZN90_$LT$esp_wifi..wifi..event..NanReplied$u20$as$u20$esp_wifi..wifi..event..sealed..Event$GT$7handler6HANDLE17h1957bb9c127d5271E
3ffb119c l     O .data	0000000c _ZN91_$LT$esp_wifi..wifi..event..NanSvcMatch$u20$as$u20$esp_wifi..wifi..event..sealed..Event$GT$7handler6HANDLE17h738f0e207776b11dE
3ffb1190 l     O .data	0000000c _ZN90_$LT$esp_wifi..wifi..event..NanStopped$u20$as$u20$esp_wifi..wifi..event..sealed..Event$GT$7handler6HANDLE17h1fd82d778cfb9ecfE
3ffb1184 l     O .data	0000000c _ZN90_$LT$esp_wifi..wifi..event..NanStarted$u20$as$u20$esp_wifi..wifi..event..sealed..Event$GT$7handler6HANDLE17h8c4e1796a5795174E
3ffb1178 l     O .data	0000000c _ZN92_$LT$esp_wifi..wifi..event..BtwtTeardown$u20$as$u20$esp_wifi..wifi..event..sealed..Event$GT$7handler6HANDLE17h97a833897d612269E
3ffb116c l     O .data	0000000c _ZN89_$LT$esp_wifi..wifi..event..BtwtSetup$u20$as$u20$esp_wifi..wifi..event..sealed..Event$GT$7handler6HANDLE17h7012caeedd284717E
3ffb1160 l     O .data	0000000c _ZN89_$LT$esp_wifi..wifi..event..TwtWakeup$u20$as$u20$esp_wifi..wifi..event..sealed..Event$GT$7handler6HANDLE17hdd21da9bf39a778fE
3ffb1154 l     O .data	0000000c _ZN91_$LT$esp_wifi..wifi..event..ItwtSuspend$u20$as$u20$esp_wifi..wifi..event..sealed..Event$GT$7handler6HANDLE17h8de51717cb936aa6E
3ffb1148 l     O .data	0000000c _ZN89_$LT$esp_wifi..wifi..event..ItwtProbe$u20$as$u20$esp_wifi..wifi..event..sealed..Event$GT$7handler6HANDLE17h8fd8ba142dab53edE
3ffb113c l     O .data	0000000c _ZN92_$LT$esp_wifi..wifi..event..ItwtTeardown$u20$as$u20$esp_wifi..wifi..event..sealed..Event$GT$7handler6HANDLE17h6ed140b2cc3b43e0E
3ffb1130 l     O .data	0000000c _ZN89_$LT$esp_wifi..wifi..event..ItwtSetup$u20$as$u20$esp_wifi..wifi..event..sealed..Event$GT$7handler6HANDLE17h3f84ce2b473e4d7cE
3ffb1124 l     O .data	0000000c _ZN97_$LT$esp_wifi..wifi..event..ApWpsRgPbcOverlap$u20$as$u20$esp_wifi..wifi..event..sealed..Event$GT$7handler6HANDLE17h1d94e0e2985c5712E
3ffb1118 l     O .data	0000000c _ZN90_$LT$esp_wifi..wifi..event..ApWpsRgPin$u20$as$u20$esp_wifi..wifi..event..sealed..Event$GT$7handler6HANDLE17hff99b323bf4bbd6dE
3ffb110c l     O .data	0000000c _ZN94_$LT$esp_wifi..wifi..event..ApWpsRgTimeout$u20$as$u20$esp_wifi..wifi..event..sealed..Event$GT$7handler6HANDLE17h86b0114e02aaba0bE
3ffb1100 l     O .data	0000000c _ZN93_$LT$esp_wifi..wifi..event..ApWpsRgFailed$u20$as$u20$esp_wifi..wifi..event..sealed..Event$GT$7handler6HANDLE17hf91a38b114664855E
3ffb10f4 l     O .data	0000000c _ZN94_$LT$esp_wifi..wifi..event..ApWpsRgSuccess$u20$as$u20$esp_wifi..wifi..event..sealed..Event$GT$7handler6HANDLE17hecddbe3c76329436E
3ffb10e8 l     O .data	0000000c _ZN117_$LT$esp_wifi..wifi..event..ConnectionlessModuleWakeIntervalStart$u20$as$u20$esp_wifi..wifi..event..sealed..Event$GT$7handler6HANDLE17h16cf60a3550c5d0dE
3ffb10dc l     O .data	0000000c _ZN96_$LT$esp_wifi..wifi..event..StaBeaconTimeout$u20$as$u20$esp_wifi..wifi..event..sealed..Event$GT$7handler6HANDLE17h83b668391f6a0a77E
3ffb10d0 l     O .data	0000000c _ZN87_$LT$esp_wifi..wifi..event..RocDone$u20$as$u20$esp_wifi..wifi..event..sealed..Event$GT$7handler6HANDLE17hcd0e37df33980321E
3ffb10c4 l     O .data	0000000c _ZN94_$LT$esp_wifi..wifi..event..ActionTxStatus$u20$as$u20$esp_wifi..wifi..event..sealed..Event$GT$7handler6HANDLE17h86d90384d57d28a4E
3ffb10b8 l     O .data	0000000c _ZN93_$LT$esp_wifi..wifi..event..StaBssRssiLow$u20$as$u20$esp_wifi..wifi..event..sealed..Event$GT$7handler6HANDLE17h087c46d269ae12aaE
3ffb10ac l     O .data	0000000c _ZN89_$LT$esp_wifi..wifi..event..FtmReport$u20$as$u20$esp_wifi..wifi..event..sealed..Event$GT$7handler6HANDLE17hd2f712f89159b2e5E
3ffb10a0 l     O .data	0000000c _ZN96_$LT$esp_wifi..wifi..event..ApProbereqrecved$u20$as$u20$esp_wifi..wifi..event..sealed..Event$GT$7handler6HANDLE17h18e2186c8c3c41c6E
3ffb1094 l     O .data	0000000c _ZN97_$LT$esp_wifi..wifi..event..ApStadisconnected$u20$as$u20$esp_wifi..wifi..event..sealed..Event$GT$7handler6HANDLE17h9e2c7f99dde388edE
3ffb1088 l     O .data	0000000c _ZN94_$LT$esp_wifi..wifi..event..ApStaconnected$u20$as$u20$esp_wifi..wifi..event..sealed..Event$GT$7handler6HANDLE17h4538b8d569875c1bE
3ffb107c l     O .data	0000000c _ZN86_$LT$esp_wifi..wifi..event..ApStop$u20$as$u20$esp_wifi..wifi..event..sealed..Event$GT$7handler6HANDLE17ha7ad9530f697bb2dE
3ffb1070 l     O .data	0000000c _ZN87_$LT$esp_wifi..wifi..event..ApStart$u20$as$u20$esp_wifi..wifi..event..sealed..Event$GT$7handler6HANDLE17h2a4bdaa3f3b57d30E
400ff2fc l     F .text	0000003a _ZN105_$LT$esp_wifi..wifi..state..WifiState$u20$as$u20$core..convert..From$LT$esp_wifi..wifi..WifiEvent$GT$$GT$4from17heab068f2565e89b8E
3ffb1064 l     O .data	0000000c _ZN98_$LT$esp_wifi..wifi..event..StaWpsErPbcOverlap$u20$as$u20$esp_wifi..wifi..event..sealed..Event$GT$7handler6HANDLE17hb447bb44efd8631cE
3ffb1058 l     O .data	0000000c _ZN91_$LT$esp_wifi..wifi..event..StaWpsErPin$u20$as$u20$esp_wifi..wifi..event..sealed..Event$GT$7handler6HANDLE17hdd925874fa0e9988E
3ffb104c l     O .data	0000000c _ZN95_$LT$esp_wifi..wifi..event..StaWpsErTimeout$u20$as$u20$esp_wifi..wifi..event..sealed..Event$GT$7handler6HANDLE17h35ae89eab279e87fE
3ffb1040 l     O .data	0000000c _ZN94_$LT$esp_wifi..wifi..event..StaWpsErFailed$u20$as$u20$esp_wifi..wifi..event..sealed..Event$GT$7handler6HANDLE17hd5d5e41c07d01f32E
3ffb1034 l     O .data	0000000c _ZN95_$LT$esp_wifi..wifi..event..StaWpsErSuccess$u20$as$u20$esp_wifi..wifi..event..sealed..Event$GT$7handler6HANDLE17hc32796ad3b1e6e41E
3ffb1028 l     O .data	0000000c _ZN97_$LT$esp_wifi..wifi..event..StaAuthmodeChange$u20$as$u20$esp_wifi..wifi..event..sealed..Event$GT$7handler6HANDLE17h0397a81a95838fdbE
3ffb101c l     O .data	0000000c _ZN95_$LT$esp_wifi..wifi..event..StaDisconnected$u20$as$u20$esp_wifi..wifi..event..sealed..Event$GT$7handler6HANDLE17hfdc663dd4465a90dE
3ffb1010 l     O .data	0000000c _ZN92_$LT$esp_wifi..wifi..event..StaConnected$u20$as$u20$esp_wifi..wifi..event..sealed..Event$GT$7handler6HANDLE17hbf9791ca380d2211E
3ffb1004 l     O .data	0000000c _ZN87_$LT$esp_wifi..wifi..event..StaStop$u20$as$u20$esp_wifi..wifi..event..sealed..Event$GT$7handler6HANDLE17h09c582f8ca0d9a91E
3ffb0ff8 l     O .data	0000000c _ZN88_$LT$esp_wifi..wifi..event..StaStart$u20$as$u20$esp_wifi..wifi..event..sealed..Event$GT$7handler6HANDLE17h2b8464c5f269714cE
3ffb0fec l     O .data	0000000c _ZN88_$LT$esp_wifi..wifi..event..ScanDone$u20$as$u20$esp_wifi..wifi..event..sealed..Event$GT$7handler6HANDLE17h4b61b67d22f506c0E
3ffb0fe0 l     O .data	0000000c _ZN89_$LT$esp_wifi..wifi..event..WifiReady$u20$as$u20$esp_wifi..wifi..event..sealed..Event$GT$7handler6HANDLE17ha2a90f1b1645796aE
400fbfa0 l     F .text	00000eb6 _ZN8esp_wifi4wifi10os_adapter10event_post17hda32fef94bb3e51fE
400fce58 l     F .text	0000002d _ZN8esp_wifi4wifi10os_adapter4rand17hde0487f818877925E
400fce88 l     F .text	00000060 _ZN8esp_wifi4wifi10os_adapter39dport_access_stall_other_cpu_start_wrap17h97fcdfde56c6fa32E
400fcee8 l     F .text	00000060 _ZN8esp_wifi4wifi10os_adapter37dport_access_stall_other_cpu_end_wrap17h0636320a9a6d0098E
400fcf48 l     F .text	00000060 _ZN8esp_wifi4wifi10os_adapter19wifi_apb80m_request17h52f5412dfd49e9bcE
400fcfa8 l     F .text	00000060 _ZN8esp_wifi4wifi10os_adapter19wifi_apb80m_release17h53212eb90d93a943E
3ffd04ec l     O .bss	00000004 _ZN8esp_wifi14common_adapter13chip_specific14PHY_ACCESS_REF17hcc6c0ff7411583b8E
3ffd04e8 l     O .bss	00000001 _ZN8esp_wifi14common_adapter13chip_specific19S_IS_PHY_REG_STORED17h4afdc673d05756c6E.0
400ff150 l     F .text	000000ef _ZN8esp_wifi14common_adapter17phy_disable_clock17he7154673817b20f0E
400fd008 l     F .text	000000f5 _ZN8esp_wifi4wifi10os_adapter11phy_disable17h2f226e76c72b36a0E
400ff240 l     F .text	000000ba _ZN8esp_wifi14common_adapter16phy_enable_clock17h1ac948d77b2483efE
3ffd04e0 l     O .bss	00000001 _ZN8esp_wifi14common_adapter13chip_specific19G_IS_PHY_CALIBRATED17h8eb8b1d752b065d3E.0
3f40d5b8 l     O .rodata	00000080 _ZN8esp_wifi14common_adapter13phy_init_data21PHY_INIT_DATA_DEFAULT17h809c01f1df1c1c37E
400fd100 l     F .text	000002c6 _ZN8esp_wifi4wifi10os_adapter10phy_enable17h81c32b2435021d2cE
400fd3c8 l     F .text	0000002b _ZN8esp_wifi4wifi10os_adapter24os_adapter_chip_specific23phy_common_clock_enable17h5a3fc4eeb1435d6fE
400fd3f4 l     F .text	0000002b _ZN8esp_wifi4wifi10os_adapter24os_adapter_chip_specific24phy_common_clock_disable17h7a26f971ac09a28aE
400fd420 l     F .text	0000007b _ZN8esp_wifi4wifi10os_adapter23phy_update_country_info17hf42488db31272c06E
400fd49c l     F .text	0000015e _ZN8esp_wifi14common_adapter8read_mac17h247900df954a0badE
400fefb0 l     F .text	0000015f _ZN8esp_wifi6compat12timer_compat19compat_timer_arm_us17h5c97698b1fd6107bE
3ffb0e3c l     O .data	00000008 _ZN8esp_wifi6compat12timer_compat6TIMERS17h51c402b81c0e3c41E
400ff110 l     F .text	0000003f _ZN4core3ptr111drop_in_place$LT$core..option..Option$LT$alloc..boxed..Box$LT$esp_wifi..compat..timer_compat..Timer$GT$$GT$$GT$17h0738e7ccf075dea7E
400ff528 l     F .text	00000031 _ZN4core3ptr48_$LT$impl$u20$core..fmt..Debug$u20$for$u20$F$GT$3fmt17hea8a33db4c93095aE
400fdab4 l     F .text	0000007f _ZN8esp_wifi4wifi10os_adapter14wifi_reset_mac17hd32a3f5027a2eb6aE
400fdb34 l     F .text	00000073 _ZN8esp_wifi4wifi10os_adapter17wifi_clock_enable17h5acbf4e5cc490754E
400fdba8 l     F .text	00000073 _ZN8esp_wifi4wifi10os_adapter18wifi_clock_disable17h61630388ed941f07E
400fdc1c l     F .text	00000023 _ZN8esp_wifi4wifi10os_adapter19wifi_rtc_enable_iso17h2af3478959257cdfE
400fdc40 l     F .text	00000023 _ZN8esp_wifi4wifi10os_adapter20wifi_rtc_disable_iso17h58eeacda9aed3c8cE
400fdcd0 l     F .text	00000062 _ZN8esp_wifi4wifi10os_adapter10nvs_set_i817he7fa597ad89a2351E
400fdd34 l     F .text	00000023 _ZN8esp_wifi4wifi10os_adapter10nvs_get_i817hc4e4206638afb66bE
400fdd58 l     F .text	00000023 _ZN8esp_wifi4wifi10os_adapter10nvs_set_u817he3a35c1e34618334E
400fdd7c l     F .text	00000023 _ZN8esp_wifi4wifi10os_adapter10nvs_get_u817hd968c03f85df56b7E
400fdda0 l     F .text	00000023 _ZN8esp_wifi4wifi10os_adapter11nvs_set_u1617h304c8e4ae7f1b337E
400fddc4 l     F .text	00000023 _ZN8esp_wifi4wifi10os_adapter11nvs_get_u1617h4d6e6359fbc22680E
400fdde8 l     F .text	00000023 _ZN8esp_wifi4wifi10os_adapter8nvs_open17h33963953b1230e7bE
400fde0c l     F .text	00000023 _ZN8esp_wifi4wifi10os_adapter9nvs_close17h7d4108f959a41c40E
400fde30 l     F .text	00000023 _ZN8esp_wifi4wifi10os_adapter10nvs_commit17h984701cba84e4f36E
400fde54 l     F .text	00000023 _ZN8esp_wifi4wifi10os_adapter12nvs_set_blob17h3eedc6e63da5d1aeE
400fde78 l     F .text	00000023 _ZN8esp_wifi4wifi10os_adapter12nvs_get_blob17h6e4e8e1dfb834df4E
400fde9c l     F .text	00000023 _ZN8esp_wifi4wifi10os_adapter13nvs_erase_key17h7f17d62bd1261bd3E
400fdec0 l     F .text	0000006c _ZN8esp_wifi4wifi10os_adapter10get_random17he545182d6e2e71c4E
400fdf2c l     F .text	00000023 _ZN8esp_wifi4wifi10os_adapter8get_time17hdf359636ad867548E
400fdf50 l     F .text	0000006c _ZN8esp_wifi4wifi10os_adapter13log_timestamp17hcd671eb2224f9b1fE
400fdfbc l     F .text	00000023 _ZN8esp_wifi4wifi10os_adapter16realloc_internal17h89327195efd82a07E
400fdfe0 l     F .text	00000031 _ZN8esp_wifi4wifi10os_adapter15calloc_internal17h3479269565f58033E
400fe014 l     F .text	00000031 _ZN8esp_wifi4wifi10os_adapter15zalloc_internal17hc1225940071df4b2E
400fe048 l     F .text	0000002f _ZN8esp_wifi4wifi10os_adapter11wifi_malloc17h7929daae122a045fE
400fe078 l     F .text	00000023 _ZN8esp_wifi4wifi10os_adapter12wifi_realloc17heceba631a5326a77E
400fe09c l     F .text	0000008b _ZN8esp_wifi4wifi10os_adapter11wifi_calloc17h59f01c94ed4e33bdE
400fe128 l     F .text	00000031 _ZN8esp_wifi4wifi10os_adapter11wifi_zalloc17h6c3d5d1c8eb35e2eE
3ffd04a0 l     O .bss	00000004 _ZN8esp_wifi4wifi10os_adapter12QUEUE_HANDLE17h9cb6397122447955E
400fe15c l     F .text	00000034 _ZN8esp_wifi4wifi10os_adapter17wifi_create_queue17h0e7ffe8c7ad40bfbE
400fe190 l     F .text	000000b8 _ZN8esp_wifi4wifi10os_adapter17wifi_delete_queue17h8123c5386ac33af2E
400fe248 l     F .text	00000027 _ZN8esp_wifi4wifi9coex_init17h83951cfd612bf8fcE
400fe270 l     F .text	00000060 _ZN8esp_wifi4wifi10os_adapter11coex_deinit17hf23a65f75401fb8bE
400fe2d0 l     F .text	00000062 _ZN8esp_wifi4wifi10os_adapter11coex_enable17hf66f7e715655e50bE
400fe334 l     F .text	00000060 _ZN8esp_wifi4wifi10os_adapter12coex_disable17hce7032e57fb47199E
400fe394 l     F .text	00000062 _ZN8esp_wifi4wifi10os_adapter15coex_status_get17h063a0887ceb78f42E
400fe3f8 l     F .text	00000062 _ZN8esp_wifi4wifi10os_adapter17coex_wifi_request17hdefc22bf164e34fdE
400fe45c l     F .text	00000062 _ZN8esp_wifi4wifi10os_adapter17coex_wifi_release17h67b264b40542b720E
400fe4c0 l     F .text	00000062 _ZN8esp_wifi4wifi10os_adapter21coex_wifi_channel_set17h6e18d6fc58560f76E
400fe524 l     F .text	00000062 _ZN8esp_wifi4wifi10os_adapter23coex_event_duration_get17h3c1ee98245654df6E
400fe588 l     F .text	00000080 _ZN8esp_wifi4wifi10os_adapter12coex_pti_get17hbd86e6a89d73866eE
400fe608 l     F .text	00000060 _ZN8esp_wifi4wifi10os_adapter26coex_schm_status_bit_clear17h99863e4208662ac1E
400fe668 l     F .text	00000060 _ZN8esp_wifi4wifi10os_adapter24coex_schm_status_bit_set17hfcb9beaa9c9dd344E
400fe6c8 l     F .text	00000062 _ZN8esp_wifi4wifi10os_adapter22coex_schm_interval_set17h35b55b0801b7daefE
400fe72c l     F .text	00000062 _ZN8esp_wifi4wifi10os_adapter22coex_schm_interval_get17h76d74beae1fc9f2eE
400fe790 l     F .text	00000062 _ZN8esp_wifi4wifi10os_adapter25coex_schm_curr_period_get17h025b681f5f13928eE
400fe7f4 l     F .text	00000062 _ZN8esp_wifi4wifi10os_adapter24coex_schm_curr_phase_get17h9dacbda6b4f8186fE
400fe858 l     F .text	00000062 _ZN8esp_wifi4wifi10os_adapter33coex_schm_process_restart_wrapper17hdf4a8239074c7c8fE
400fea3c l     F .text	00000052 _ZN66_$LT$core..option..Option$LT$T$GT$$u20$as$u20$core..fmt..Debug$GT$3fmt17h1307b1378a4f0265E
400fe8bc l     F .text	00000080 _ZN8esp_wifi4wifi10os_adapter29coex_schm_register_cb_wrapper17hd7d495fb81bebc4fE
400fe93c l     F .text	00000027 _ZN8esp_wifi4wifi10os_adapter22coex_register_start_cb17hf314994620ef28eaE
400fe964 l     F .text	00000072 _ZN8esp_wifi4wifi10os_adapter29coex_schm_flexible_period_set17hc8ff7078ffaf6701E
400fe9d8 l     F .text	00000062 _ZN8esp_wifi4wifi10os_adapter29coex_schm_flexible_period_get17h25737ff880210cd0E
400fea90 l     F .text	00000033 _ZN42_$LT$$RF$T$u20$as$u20$core..fmt..Debug$GT$3fmt17h531ef410974a16a1E
3ffd04f8 l     O .bss	00000004 _ZN8esp_wifi14common_adapter20PHY_CLOCK_ENABLE_REF17hef0c20ce985085cdE
3ffcfc95 l     O .bss	00000001 _ZN7esp_hal5clock21PHY_CLOCK_REF_COUNTER17h28f310b0199ab8feE.0
400ff950 l     F .text	00000092 _ZN5alloc7raw_vec19RawVec$LT$T$C$A$GT$8grow_one17he8e6370cddcc59fcE
400ff8d0 l     F .text	0000007d _ZN5alloc11collections9vec_deque21VecDeque$LT$T$C$A$GT$4grow17hdfb5ec9924baaaf5E
400ff9e4 l     F .text	0000005f _ZN5alloc11collections9vec_deque21VecDeque$LT$T$C$A$GT$9push_back17h43d4f3e32ee012caE
3ffd049c l     O .bss	00000004 _ZN8esp_wifi6compat8_putchar3IDX17h8198620b01f50426E.0
3ffcfd0c l     O .bss	00000100 _ZN8esp_wifi6compat8_putchar6BUFFER17h07cec23a6ab28a21E
40101430 l     F .text	00000035 _ZN42_$LT$$RF$T$u20$as$u20$core..fmt..Debug$GT$3fmt17hc3cf2ec91dec3298E
3f40de34 l     O .rodata	00000100 _ZN8httparse9TOKEN_MAP17hccba070364904813E
3f40df34 l     O .rodata	00000100 _ZN8httparse16HEADER_VALUE_MAP17hc50d8ae54efe1e2cE
40101468 l     F .text	000005aa _ZN8httparse25parse_headers_iter_uninit17h63bf06dfa2320d9dE
40101a14 l     F .text	000000a0 _ZN8httparse10parse_code17h13ebd7ae2dfe49b9E
40101ab4 l     F .text	000000ce _ZN8httparse12parse_reason17h24db7deeb3bd8acdE
40101eb8 l     F .text	00000035 _ZN69_$LT$core..alloc..layout..LayoutError$u20$as$u20$core..fmt..Debug$GT$3fmt17h576e930d07757998E.593
3f40e32c l     O .rodata	00000030 _ZN3log15LOG_LEVEL_NAMES17h00fe2219faae7a2cE
40101f84 l     F .text	00000027 _ZN43_$LT$log..NopLogger$u20$as$u20$log..Log$GT$7enabled17h0eb7796ed55b56dbE
40101fac l     F .text	00000025 _ZN43_$LT$log..NopLogger$u20$as$u20$log..Log$GT$3log17hbee0e18f6d7f899aE
40101fd4 l     F .text	00000025 _ZN43_$LT$log..NopLogger$u20$as$u20$log..Log$GT$5flush17h54ffac16d16162cfE
401022a8 l     F .text	00000158 _ZN4core3str7pattern14TwoWaySearcher4next17hdbb14f897bd1752bE
3f40e5e4 l     O .rodata	00000100 _ZN4core7unicode12unicode_data11white_space14WHITESPACE_MAP17hb9ff1ba156332c85E
40105dc8 l     F .text	00000107 _ZN4sha26sha2564soft22sha256_digest_round_x217hbd3b93a72633ab21E
40105ed0 l     F .text	00000131 _ZN4sha26sha2564soft8schedule17hc1ba6d6b07a66884E
4010605c l     F .text	000000b3 _ZN44_$LT$$RF$T$u20$as$u20$core..fmt..Display$GT$3fmt17hc0b8f6239d4f6778E
40106c94 l     F .text	0000010b _ZN8heapless10linear_map26LinearMap$LT$K$C$V$C$_$GT$6insert17hbd824dca426e47e2E
40109b74 l     F .text	00000048 _ZN7smoltcp4wire6dhcpv415Packet$LT$T$GT$6opcode17hbcaa41aaa161bbddE
40109708 l     F .text	0000037f _ZN7smoltcp6socket6dhcpv46Socket9parse_ack17h4ff1e0d6b354dda6E
40109a88 l     F .text	000000ec _ZN4core3cmp9PartialEq2ne17hd76008ad16071ad9E
40109410 l     F .text	0000011a _ZN4core4iter6traits8iterator8Iterator8for_each17hb81c54e6d721e8adE
40109304 l     F .text	00000073 _ZN7smoltcp6socket3tcp6Socket5reply17h29808e729910a732E
40109284 l     F .text	0000007e _ZN7smoltcp7storage11ring_buffer19RingBuffer$LT$T$GT$15get_unallocated17h0c3643aa693c88afE
401091b4 l     F .text	00000051 _ZN7smoltcp7storage11ring_buffer19RingBuffer$LT$T$GT$16enqueue_one_with17h213173667f4bc8c3E
40109208 l     F .text	0000007b _ZN7smoltcp7storage11ring_buffer19RingBuffer$LT$T$GT$17enqueue_many_with17h5a64a3dad164e3e5E
4010a704 l     F .text	0000024c _ZN42_$LT$$RF$T$u20$as$u20$core..fmt..Debug$GT$3fmt17h2d1f803ee77dc2a8E
4010a950 l     F .text	0000004b _ZN76_$LT$xtensa_lx_rt..exception..ExceptionCause$u20$as$u20$core..fmt..Debug$GT$3fmt17hd67898e547a75487E
00000000 l    df *ABS*	00000000 phy_chip_v7_ana.c
4008806c l     F .rwtext.wifi	00000048 i2c_bbpll_init$part$0
3f410fd4 l     O .rodata	00000030 CSWTCH$133
3f410fc4 l     O .rodata	00000010 CSWTCH$169
4012b7b8 l     F .text	0000012b get_rf_freq_init$part$2
00000000 l    df *ABS*	00000000 phy_chip_v7.c
3f4110d8 l     O .rodata	00000006 CSWTCH$360
4012cfc0 l     F .text	000000a9 bt_txdc_cal$part$5
4012d070 l     F .text	000000a2 bt_txiq_cal$part$6
40155228 l     F .text	0000004a spur_cal$part$8
4008a764 l     F .rwtext.wifi	00000022 bt_tx_gain_cal_set$part$4
3ffb1719 l     O .data	00000001 rfbb_gain_swp
3ffb171c l     O .data	0000000c wifi_rx_gain_swp
3ffb1710 l     O .data	00000009 bt_rx_gain_swp
00000000 l    df *ABS*	00000000 phy_chip_v7_cal.c
3f41117c l     O .rodata	00000008 CSWTCH$256
3f411184 l     O .rodata	00000006 CSWTCH$254
3f411174 l     O .rodata	00000008 CSWTCH$266
3f41118c l     O .rodata	00000006 dco_gain_coarse$4710
3f411170 l     O .rodata	00000003 CSWTCH$283
3f411164 l     O .rodata	0000000b CSWTCH$289
3f411160 l     O .rodata	00000004 CSWTCH$293
00000000 l    df *ABS*	00000000 esp_eap_client.c
3ffd0a94 l     O .bss	00000004 s_wpa2_api_lock
4013b354 l     F .text	0000002a wpa2_api_lock
4013b380 l     F .text	00000017 wpa2_api_unlock
3ffd0aa0 l     O .bss	00000004 gEapSm
4013b398 l     F .text	0000001a wpa2_set_eap_state
4013b4dc l     F .text	0000009d wpa2_ent_rx_eapol
4013b4c8 l     F .text	00000011 wpa2_start_eapol
4013b63c l     F .text	000000e2 eap_peer_sm_init
4013b57c l     F .text	000000bd eap_peer_sm_deinit
4013b3b4 l     F .text	00000030 esp_client_enable_fn
3ffb1f64 l     O .data	00000004 s_wpa2_state
4013b720 l     F .text	00000022 eap_client_disable_fn
3ffd0aa4 l     O .bss	00000004 s_wpa2_data_lock
3ffd0a98 l     O .bss	00000004 s_wpa2_queue
3ffd0a90 l     O .bss	00000004 s_wifi_wpa2_sync_sem
3ffd0a88 l     O .bss	00000008 s_wpa2_rxq
3ffd0a9c l     O .bss	00000004 s_wpa2_task_hdl
3ffb1f60 l     O .data	00000001 s_disable_time_check
00000000 l    df *ABS*	00000000 crypto_ops.c
4013add8 l     F .text	00000014 esp_supp_crc32
4013adec l     F .text	0000001d esp_aes_gmac
4013ae0c l     F .text	0000000e esp_aes_decrypt
4013ae1c l     F .text	0000000e esp_aes_encrypt
4013ae2c l     F .text	00000014 esp_aes_unwrap
4013ae40 l     F .text	00000014 esp_aes_wrap
00000000 l    df *ABS*	00000000 sha256-prf.c
3f411794 l     O .rodata	00000004 memset_func
00000000 l    df *ABS*	00000000 sha1-prf.c
3f411798 l     O .rodata	00000004 memset_func
00000000 l    df *ABS*	00000000 common.c
3f41179c l     O .rodata	00000004 memset_func
4013afe8 l     F .text	00000016 forced_memzero
401555ec l     F .text	0000002c hex2num
00000000 l    df *ABS*	00000000 esp_hostap.c
3f4117a0 l     O .rodata	00000004 memset_func
00000000 l    df *ABS*	00000000 tlsv1_client_write.c
4013dffc l     F .text	0000004c tls_write_client_change_cipher_spec
4013e048 l     F .text	0000011b tls_write_client_finished
00000000 l    df *ABS*	00000000 tlsv1_common.c
3f4118e4 l     O .rodata	00000160 tls_cipher_suites
3f4117f4 l     O .rodata	000000f0 tls_ciphers
00000000 l    df *ABS*	00000000 aes-internal.c
00000000 l    df *ABS*	00000000 des-internal.c
40142d60 l     F .text	0000002b WPA_GET_BE32
40155a3c l     F .text	0000001a WPA_PUT_BE32
3f412450 l     O .rodata	00000100 SP7
3f412350 l     O .rodata	00000100 SP8
3f412650 l     O .rodata	00000100 SP5
3f412850 l     O .rodata	00000100 SP3
3f412a50 l     O .rodata	00000100 SP1
3f412550 l     O .rodata	00000100 SP6
3f412750 l     O .rodata	00000100 SP4
3f412950 l     O .rodata	00000100 SP2
40142d8c l     F .text	000001de desfunc
3f412b90 l     O .rodata	00000038 pc1
3f412c28 l     O .rodata	00000020 bytebit
3f412b80 l     O .rodata	00000010 totrot
3f412b50 l     O .rodata	00000030 pc2
3f412bc8 l     O .rodata	00000060 bigbyte
40142f6c l     F .text	00000193 deskey
3f412c48 l     O .rodata	00000004 memset_func
00000000 l    df *ABS*	00000000 sha1-internal.c
3f412c50 l     O .rodata	00000004 memset_func
00000000 l    df *ABS*	00000000 sha1.c
3f412c54 l     O .rodata	00000004 memset_func
00000000 l    df *ABS*	00000000 sha256-internal.c
3f412c58 l     O .rodata	00000100 K
401450b4 l     F .text	0000014f sha256_compress
00000000 l    df *ABS*	00000000 sha512-internal.c
3f412d58 l     O .rodata	00000280 K
401455d0 l     F .text	0000033c sha512_compress
00000000 l    df *ABS*	00000000 wpa_common.c
4014801c l     F .text	0000002b WPA_GET_BE32
40148048 l     F .text	0000006d rsn_selector_to_bitfield
401480b8 l     F .text	00000044 wpa_selector_to_bitfield
00000000 l    df *ABS*	00000000 sha1-tlsprf.c
3f412fe4 l     O .rodata	00000004 memset_func
40148d68 l     F .text	00000016 forced_memzero
00000000 l    df *ABS*	00000000 eap_peap.c
40155e5c l     F .text	00000014 eap_peap_isKeyAvailable
40149f48 l     F .text	00000035 eap_peap_get_session_id
40149f80 l     F .text	00000018 eap_peap_free_key
40149f98 l     F .text	0000005c eap_peap_init_for_reauth
40149ff4 l     F .text	0000001e eap_peap_deinit_for_reauth
4014a014 l     F .text	00000026 eap_peap_has_reauth_data
4014a03c l     F .text	00000032 eap_peap_get_status
4014a070 l     F .text	0000002c eap_peap_get_emsk
4014a09c l     F .text	0000005f eap_peap_getKey
4014a0fc l     F .text	00000012 wpabuf_put_u8
4014a110 l     F .text	00000018 wpabuf_put_be16
4014a128 l     F .text	0000003d peap_phase2_sufficient
4014a168 l     F .text	00000048 eap_peap_deinit
4014a1b0 l     F .text	0000001c wpabuf_put_data
4014a1cc l     F .text	00000145 eap_peap_init
4014a314 l     F .text	0000086a eap_peap_decrypt$constprop$0
4014ab80 l     F .text	000001ca eap_peap_process
00000000 l    df *ABS*	00000000 base64.c
40150878 l     F .text	000000eb base64_gen_decode
3f412fea l     O .rodata	00000041 base64_table
00000000 l    df *ABS*	00000000 ms_funcs.c
40156208 l     F .text	0000009d utf8_to_ucs2$constprop$0
3f41319c l     O .rodata	00000027 magic1$6
3f413173 l     O .rodata	00000029 magic2$5
3f413158 l     O .rodata	0000001b magic1$4
3f4130dc l     O .rodata	00000054 magic3$2
3f413088 l     O .rodata	00000054 magic2$1
3f413130 l     O .rodata	00000028 shs_pad1$3
3f413060 l     O .rodata	00000028 shs_pad2$0
00000000 l    df *ABS*	00000000 md4-internal.c
40152e2c l     F .text	00000456 MD4Transform
40153284 l     F .text	0000007f MD4Update
3f4131c3 l     O .rodata	00000040 PADDING
00000000 l    df *ABS*	00000000 sha1-tprf.c
3f413204 l     O .rodata	00000004 memset_func
00000000 l    df *ABS*	00000000 printf.c
401562c0 l     F .text	00000010 _out_buffer
401562d0 l     F .text	00000005 _out_null
401562d8 l     F .text	00000081 _out_rev
40153c58 l     F .text	000000fa _ntoa_format
40153d54 l     F .text	0000008d _ntoa_long
40153de4 l     F .text	000000d0 _ntoa_long_long
40153eb4 l     F .text	000003b5 _etoa
4015426c l     F .text	0000032b _ftoa
3f413208 l     O .rodata	00000050 pow10$0
40154598 l     F .text	00000010 _out_char
401545a8 l     F .text	0000073b _vsnprintf
00000000 l    df *ABS*	00000000 compiler_builtins.9934aacee1796de6-cgu.0
00000000 l    df *ABS*	00000000 phy.c
00000000 l    df *ABS*	00000000 bt_bb.c
00000000 l    df *ABS*	00000000 rtc_analog.c
00000000 l    df *ABS*	00000000 esp_wpa_main.c
4013bf78 l     F .text	00000081 hostap_sta_join
4013bffc l     F .text	00000053 wpa_sta_disconnected_cb
4013c050 l     F .text	0000000a wpa_sta_connected_cb
00000000 l    df *ABS*	00000000 esp_wpas_glue.c
00000000 l    df *ABS*	00000000 esp_common.c
4013c410 l     F .text	0000001f ieee80211_handle_rx_frm
00000000 l    df *ABS*	00000000 esp_wps.c
3ffd0b48 l     O .bss	00000004 s_wps_sm_cb
00000000 l    df *ABS*	00000000 tls_internal.c
3ffd0b50 l     O .bss	00000004 tls_ref_count
00000000 l    df *ABS*	00000000 tlsv1_client.c
00000000 l    df *ABS*	00000000 tlsv1_client_read.c
4015579c l     F .text	0000001a WPA_GET_BE24
4013d358 l     F .text	00000057 tls_process_server_hello_done
4013d3b0 l     F .text	00000067 tls_process_certificate_request
4013d418 l     F .text	00000031 tls_process_certificate_status_ocsp_response
4013d44c l     F .text	00000361 tls_process_server_key_exchange
4013d7b0 l     F .text	00000344 tls_process_certificate
00000000 l    df *ABS*	00000000 tlsv1_cred.c
4013edb0 l     F .text	0000004b tlsv1_add_cert_der
4013edfc l     F .text	00000034 search_tag
4013ee30 l     F .text	00000074 tlsv1_add_cert
00000000 l    df *ABS*	00000000 tlsv1_record.c
00000000 l    df *ABS*	00000000 tlsv1_client_ocsp.c
401557cc l     F .text	00000018 asn1_is_sequence
4013f48c l     F .text	00000049 ocsp_responder_id_match
4013f4d8 l     F .text	0000009d ocsp_hash_data
00000000 l    df *ABS*	00000000 x509v3.c
401557e4 l     F .text	00000018 asn1_is_sequence
401557fc l     F .text	0000005e x509_str_strip_whitespace
4013fe78 l     F .text	00000044 x509_id_wfa_tod_oid
4015585c l     F .text	0000003a x509_id_kp_oid
4013febc l     F .text	0000002b x509_rsadsi_oid
40155898 l     F .text	00000042 x509_sha2_oid
4013fee8 l     F .text	00000030 parse_uint2
4013ff18 l     F .text	00000140 x509_parse_ext_alt_name
40140058 l     F .text	00000065 x509_str_compare
401400c0 l     F .text	000000c0 x509_name_string$part$0
401558dc l     F .text	0000002c x509_valid_issuer
00000000 l    df *ABS*	00000000 aes-cbc.c
00000000 l    df *ABS*	00000000 aes-internal-dec.c
00000000 l    df *ABS*	00000000 aes-internal-enc.c
00000000 l    df *ABS*	00000000 aes-omac1.c
401559e8 l     F .text	00000039 gf_mulx
00000000 l    df *ABS*	00000000 aes-unwrap.c
00000000 l    df *ABS*	00000000 aes-wrap.c
00000000 l    df *ABS*	00000000 crypto_internal-cipher.c
00000000 l    df *ABS*	00000000 crypto_internal-modexp.c
00000000 l    df *ABS*	00000000 crypto_internal-rsa.c
00000000 l    df *ABS*	00000000 crypto_internal.c
00000000 l    df *ABS*	00000000 md5-internal.c
401432bc l     F .text	00000702 MD5Transform
00000000 l    df *ABS*	00000000 md5.c
00000000 l    df *ABS*	00000000 sha1-pbkdf2.c
00000000 l    df *ABS*	00000000 sha256.c
00000000 l    df *ABS*	00000000 sha384-internal.c
00000000 l    df *ABS*	00000000 os_xtensa.c
00000000 l    df *ABS*	00000000 eloop.c
40145ea4 l     F .text	0000000a eloop_run_wrapper
40145ba4 l     F .text	0000001a eloop_run_timer
3ffd0b74 l     O .bss	00000004 eloop_data_lock
3ffd0b54 l     O .bss	00000020 eloop
40145bc0 l     F .text	00000051 eloop_remove_timeout
40145c14 l     F .text	00000013 os_timer_disarm$constprop$0
00000000 l    df *ABS*	00000000 ap_config.c
00000000 l    df *ABS*	00000000 wpa_auth.c
40155a58 l     F .text	00000005 wpa_auth_pmksa_free_cb
3ffd0b7c l     O .bss	00000040 s_sm_table
3ffd0b78 l     O .bss	00000004 s_sm_valid_bitmap
40145fb4 l     F .text	00000052 wpa_free_sta_sm
40146008 l     F .text	00000066 wpa_group_init_gmk_and_counter
40146070 l     F .text	00000045 wpa_gmk_to_gtk
401460b8 l     F .text	00000026 wpa_replay_counter_valid
401460e0 l     F .text	00000025 wpa_replay_counter_mark_invalid
40146108 l     F .text	00000080 wpa_verify_key_mic
40146188 l     F .text	0000006f ieee80211w_kde_add
40146214 l     F .text	00000042 wpa_auth_set_key$part$0
40146258 l     F .text	0000002b sm_WPA_PTK_DISCONNECT_Enter$constprop$0
40146284 l     F .text	00000077 wpa_gtk_update$isra$0
401462fc l     F .text	00000036 wpa_group_gtk_init
40146334 l     F .text	0000001c wpa_auth_get_psk$isra$0
40146350 l     F .text	00000142 sm_WPA_PTK_PTKCALCNEGOTIATING_Enter$constprop$0
40146494 l     F .text	0000004e wpa_group_config_group_keys
401464e4 l     F .text	00000050 sm_WPA_PTK_AUTHENTICATION2_Enter$constprop$0
40146534 l     F .text	00000073 wpa_group_sm_step$part$0
401465a8 l     F .text	00000046 wpa_rekey_gtk
40146a30 l     F .text	00000053 wpa_send_eapol
40146a84 l     F .text	000000a3 sm_WPA_PTK_PTKSTART_Enter$constprop$0
40146b28 l     F .text	00000142 sm_WPA_PTK_PTKINITNEGOTIATING_Enter$constprop$0
40146c6c l     F .text	000000e7 sm_WPA_PTK_GROUP_REKEYNEGOTIATING_Enter$constprop$0
401471a8 l     F .text	00000019 wpa_rekey_ptk
40146d8c l     F .text	0000004a sm_WPA_PTK_INITIALIZE_Enter$constprop$0
40146dd8 l     F .text	000003ce wpa_sm_step
00000000 l    df *ABS*	00000000 wpa_auth_ie.c
40147728 l     F .text	0000002b WPA_GET_BE32
00000000 l    df *ABS*	00000000 pmksa_cache_auth.c
40147da4 l     F .text	0000001f _pmksa_cache_free_entry
40147e64 l     F .text	00000030 pmksa_cache_expire
40147dc4 l     F .text	00000038 pmksa_cache_set_expiration
00000000 l    df *ABS*	00000000 sta_info.c
00000000 l    df *ABS*	00000000 ccmp.c
40148744 l     F .text	0000011f ccmp_aad_nonce
00000000 l    df *ABS*	00000000 aes-gcm.c
401489cc l     F .text	0000002b WPA_GET_BE32
40155c84 l     F .text	00000031 WPA_PUT_BE64
401489f8 l     F .text	00000021 inc32
40155cb8 l     F .text	00000029 xor_block
40148a1c l     F .text	00000027 aes_gcm_init_hash_subkey
40148a44 l     F .text	0000006e aes_gctr$part$0
40148ab4 l     F .text	0000008c shift_right_block
40148b40 l     F .text	0000005a gf_mult
40148b9c l     F .text	0000007c ghash
40148c18 l     F .text	00000046 aes_gcm_ghash
40148c60 l     F .text	0000006f aes_gcm_prepare_j0
00000000 l    df *ABS*	00000000 sha256-tlsprf.c
00000000 l    df *ABS*	00000000 eap.c
3ffd0bc0 l     O .bss	00000004 eap_methods
3ffd0bbc l     O .bss	00000004 config_methods
00000000 l    df *ABS*	00000000 eap_common.c
00000000 l    df *ABS*	00000000 eap_mschapv2.c
40155e40 l     F .text	00000019 eap_mschapv2_isKeyAvailable
40149828 l     F .text	0000003f eap_mschapv2_getKey
40149868 l     F .text	0000001e eap_mschapv2_deinit
40149888 l     F .text	00000051 eap_mschapv2_init
401498dc l     F .text	0000062f eap_mschapv2_process
00000000 l    df *ABS*	00000000 eap_peap_common.c
00000000 l    df *ABS*	00000000 eap_tls.c
40155e70 l     F .text	0000000e eap_tls_isKeyAvailable
4014ae54 l     F .text	0000002b eap_tls_getKey
4014ae80 l     F .text	0000019f eap_tls_process
4014b020 l     F .text	0000002c eap_tls_deinit
4014b04c l     F .text	00000048 eap_tls_init
00000000 l    df *ABS*	00000000 eap_tls_common.c
4014b0d0 l     F .text	00000020 eap_tls_check_blob
4014b0f0 l     F .text	00000022 eap_tls_msg_alloc$constprop$0
4014b4f4 l     F .text	0000007c eap_peer_tls_data_reassemble
4014b598 l     F .text	000000e5 eap_tls_process_output
00000000 l    df *ABS*	00000000 eap_ttls.c
40155e80 l     F .text	00000014 eap_ttls_isKeyAvailable
4014b93c l     F .text	0000002b eap_ttls_get_emsk
4014b968 l     F .text	00000035 eap_ttls_get_session_id
4014b9a0 l     F .text	00000031 eap_ttls_getKey
4014b9d4 l     F .text	00000017 eap_ttls_free_key
4014b9ec l     F .text	00000050 eap_ttls_init_for_reauth
4014ba3c l     F .text	0000001b eap_ttls_deinit_for_reauth
4014ba58 l     F .text	0000001e eap_ttls_has_reauth_data
4014ba78 l     F .text	00000086 eap_ttls_get_status
4014bb00 l     F .text	0000002e eap_ttls_encrypt_response
4014bb30 l     F .text	000000db eap_ttls_phase2_request_eap_method
4014bc0c l     F .text	00000046 eap_ttls_deinit
4014bc54 l     F .text	000000b5 eap_ttls_init
4014bd0c l     F .text	0000005c eap_ttls_avp_add$constprop$0
4014bd68 l     F .text	0000056b eap_ttls_phase2_request
4014c2d4 l     F .text	0000008c eap_ttls_implicit_identity_request
4014c360 l     F .text	0000036d eap_ttls_decrypt
4014c6d0 l     F .text	000001f1 eap_ttls_process
00000000 l    df *ABS*	00000000 mschapv2.c
00000000 l    df *ABS*	00000000 eap_fast.c
40155ebc l     F .text	0000000f eap_fast_isKeyAvailable
4014ca24 l     F .text	00000020 eap_fast_copy_buf
4014ca44 l     F .text	0000001e eap_fast_get_emsk
4014ca64 l     F .text	00000024 eap_fast_get_session_id
4014ca88 l     F .text	0000001f eap_fast_getKey
4014caa8 l     F .text	00000034 eap_fast_parse_hex
4014cadc l     F .text	000000a5 eap_fast_read_line
4014cb84 l     F .text	00000129 eap_fast_write
4014ccb0 l     F .text	0000007f eap_fast_write_pac
4014cd30 l     F .text	00000032 eap_fast_get_status
4014cd64 l     F .text	00000053 eap_fast_tlv_result
4014cdb8 l     F .text	00000051 eap_fast_session_ticket_cb
4014ce0c l     F .text	00000021 eap_fast_encrypt_response
4014ce58 l     F .text	00000070 eap_fast_deinit
4014d574 l     F .text	0000010a eap_fast_init
4014d734 l     F .text	00000933 eap_fast_decrypt
4014e068 l     F .text	00000388 eap_fast_process
00000000 l    df *ABS*	00000000 eap_fast_common.c
4014e434 l     F .text	00000016 wpabuf_put_data$part$0
00000000 l    df *ABS*	00000000 pmksa_cache.c
4014e564 l     F .text	0000001e pmksa_cache_free_entry
4014e5bc l     F .text	00000037 pmksa_cache_expire
4014e584 l     F .text	00000036 pmksa_cache_set_expiration
00000000 l    df *ABS*	00000000 wpa.c
4014e984 l     F .text	00000027 is_wpa2_enterprise_connection
4014e9ac l     F .text	00000060 wpa_sm_pmksa_free_cb
4014ea0c l     F .text	0000003a wpa_sm_set_seq$constprop$0
4014ea48 l     F .text	0000006a ieee80211w_set_keys$constprop$0
4014eb58 l     F .text	00000115 wpa_sm_key_request
4014ec70 l     F .text	0000000e wpa_sm_rekey_ptk
4014f3b8 l     F .text	00000148 wpa_supplicant_install_gtk$constprop$0
4014f500 l     F .text	00000082 wpa_supplicant_install_ptk$constprop$0
00000000 l    df *ABS*	00000000 wpa_ie.c
40150424 l     F .text	0000002b WPA_GET_BE32
00000000 l    df *ABS*	00000000 wpabuf.c
4015097c l     F .text	0000001b wpabuf_put_data
00000000 l    df *ABS*	00000000 wpa_debug.c
40150b04 l     F .text	00000049 _wpa_snprintf_hex$constprop$0
00000000 l    df *ABS*	00000000 asn1.c
401560c4 l     F .text	0000001c rotate_bits
00000000 l    df *ABS*	00000000 bignum.c
401560e8 l     F .text	0000004a mp_cmp_mag
40150e14 l     F .text	00000029 mp_cmp
40150e40 l     F .text	0000001e mp_zero
40150e60 l     F .text	00000049 mp_rshd
40156134 l     F .text	00000025 mp_exch
4015615c l     F .text	0000002a mp_clamp
40156188 l     F .text	0000002a mp_count_bits
40150eac l     F .text	0000001a mp_clear
40150ec8 l     F .text	0000002a mp_init
40150ef4 l     F .text	00000048 mp_init_size
40150f3c l     F .text	000000ef mp_sqr
4015102c l     F .text	00000053 mp_grow
40151080 l     F .text	00000068 mp_copy
401510e8 l     F .text	0000009a mp_mod_2d
40151184 l     F .text	000000da mp_div_2d
40151260 l     F .text	00000059 mp_lshd
401512bc l     F .text	000000c5 mp_mul_2d
40151384 l     F .text	000000cb s_mp_add
40151450 l     F .text	000000b1 s_mp_sub
40151504 l     F .text	00000041 mp_add
40151548 l     F .text	00000048 mp_sub
40151590 l     F .text	00000137 fast_s_mp_mul_digs
401516c8 l     F .text	000000ce s_mp_mul_digs
40151798 l     F .text	0000002d mp_mul
401517c8 l     F .text	00000094 mp_init_multi
4015185c l     F .text	0000004c mp_clear_multi
401518a8 l     F .text	00000145 mp_div
401519f0 l     F .text	00000048 mp_mod
40151a38 l     F .text	00000341 s_mp_exptmod$constprop$0
40151d7c l     F .text	00000181 mp_reduce
00000000 l    df *ABS*	00000000 pkcs1.c
00000000 l    df *ABS*	00000000 pkcs8.c
00000000 l    df *ABS*	00000000 rsa.c
4015243c l     F .text	00000040 crypto_rsa_parse_integer
00000000 l    df *ABS*	00000000 aes-ccm.c
401561dc l     F .text	00000029 xor_aes_block
40152788 l     F .text	00000053 aes_ccm_auth
401527dc l     F .text	00000079 aes_ccm_encr$constprop$0
40152858 l     F .text	0000009f aes_ccm_auth_start$constprop$0
00000000 l    df *ABS*	00000000 chap.c
00000000 l    df *ABS*	00000000 pkcs5.c
401562a8 l     F .text	00000018 asn1_is_sequence
401534b4 l     F .text	0000002b oid_is_rsadsi
401534e0 l     F .text	0000002f pkcs5_is_oid
40153510 l     F .text	00000182 pkcs12_key_gen
00000000 l    df *ABS*	00000000 rc4.c
00000000 l    df *ABS*	00000000 ieee802_11.c
401358f4 g     F .text	0000000f pp_register_michael_mic_failure_cb
3ff80000 g       *ABS*	00000000 _rtc_fast_persistent_start
3ffd077c g     O .bss	00000002 phy_freq_offset
400eef1c g     F .text	00000024 main
4013f578 g     F .text	000008fd tls_process_ocsp_response
40151f20 g     F .text	00000013 bignum_deinit
40118694 g     F .text	0000002f nan_parse_ndp_terminate
40132e6c g     F .text	0000000a ic_get_G6M_sched
3ffb1703 g     O .data	00000001 chan14_mic_most_power
40143240 g     F .text	0000003a des3_encrypt
40126234 g     F .text	00000034 ieee80211w_get_igtk_from_keyidx
40084408 g     F .rwtext.wifi	000000b9 rcGetSched
4012ae84 g     F .text	00000065 wep_encap
40128c40 g     F .text	00000071 cnx_rc_update_rssi
4008a654 g     F .rwtext.wifi	00000024 bb_wdt_rst_enable
4013ca00 g     F .text	0000001e tls_connection_decrypt2
40150ac8 g     F .text	0000003a wpabuf_concat
401172c4 g     F .text	000000df nan_sched_construct_availability
4012ed00 g     F .text	00000265 phy_get_romfunc_addr
3f4101fc g     O .rodata	00000006 ieee80211_ethbroadcast
40155a88 g     F .text	0000005a wpa_res_to_status_code
400818dc g     F .rwtext	00000088 phy_exit_critical
4011bbe0 g     F .text	00000040 wifi_set_default_ssid
3ff80000 g       *ABS*	00000000 _rtc_fast_data_start
40117448 g     F .text	0000002f nan_dp_send_terminated_event
40138ed8 g     F .text	00000038 mac_tx_set_duration
40137684 g     F .text	00000046 rcAttach
401555b8 g     F .text	00000005 wDev_SetAuthed
00000007 g     O .espressif.metadata	00000005 build_info.CHIP_NAME
40139174 g     F .text	0000002b hal_enable_mac
4000ca84 g     F *ABS*	00000037 .hidden __divdi3
4010c1d4 g     F .text	00000037 ieee80211_user_ie_init
40155618 g     F .text	0000001a inc_byte_array
40140238 g     F .text	00000064 x509_name_compare
401346f8 g     F .text	00000045 pm_is_in_wifi_slice_threshold
4000c988 g     F *ABS*	0000005a .hidden __floatdidf
4010c394 g     F .text	00000057 wifi_destroy_nan
4000c260 g     F *ABS*	00000044 .hidden memcmp
40089f60 g     F .rwtext.wifi	0000005d ram_pbus_force_test
3ffd204c g     O .bss	00000008 s_tx_cacheq
401178d8 g     F .text	000000ef nan_dp_post_tx
4012579c g     F .text	0000000e esp_wifi_sta_get_group_cipher_internal
40155ce4 g     F .text	00000026 eap_allowed_method
40111a44 g     F .text	00000034 ieee80211_add_ie_vendor_esp_head
40142570 g     F .text	0000013b crypto_cipher_encrypt
3ffb1f78 g     O .data.wifi	00000004 g_mesh_init_ps_type
4008b7e0 g     F .rwtext.wifi	0000007f ram_set_txcap_reg
4008b3a8 g     F .rwtext.wifi	00000313 tx_pwctrl_cal
4013d0a8 g     F .text	00000142 tlsv1_client_get_cipher
4011eb0c g     F .text	000000e8 ieee80211_send_proberesp
4014c9e0 g     F .text	00000044 mschapv2_verify_auth_response
4014f584 g     F .text	00000939 wpa_sm_rx_eapol
4013a110 g     F .text	0000001b hal_enable_nan_tsf
4012a550 g     F .text	0000006f ieee80211_recv_action_register
4013c3d0 g     F .text	00000018 wpa_sm_alloc_eapol
3ffd37d0 g     O .bss	0000000c s_fix_rate
400f958c g     F .text	00000000 level6_interrupt
40114f00 g     F .text	000000b6 wifi_lmac_init
4014590c g     F .text	00000060 sha512_init
4008985c g     F .rwtext.wifi	00000043 phy_en_hw_set_freq
4011594c g     F .text	00000017 wifi_register_mgmt_frame
4011f718 g     F .text	00000046 ieee80211_pwrsave_txcb
40145b14 g     F .text	00000040 sha512_vector
40137914 g     F .text	00000028 trc_deinit
4008bff8 g     F .rwtext.wifi	00000071 ieee80211_post_hmac_tx
4011ba54 g     F .text	00000186 wifi_nvs_compare_cfg_diff
40085e0c g     F .rwtext.wifi	00000005 pm_hmac_rx_data_process
40081c84 g     F .rwtext.wifi	0000051d ieee80211_encap_esfbuf
40135c04 g     F .text	0000002a ppClearRxFragment
3ffd0798 g     O .bss	00000002 phy_tx_pwr_error
4012a82c g     F .text	00000094 ccmp_decap
40086d8c g     F .rwtext.wifi	0000009b pm_on_beacon_rx
3ffb12e2 g     O .data	0000000b g_def_2g_channels
3ffd0a84 g     O .bss	00000001 g_wdev_last_desc_reset
4011e41c  w    F .text	00000276 ieee80211_beacon_construct
4010bc6c g     F .text	0000011e esp_wifi_ipc_internal
40135b00 g     F .text	00000100 ppCalTkipMic
40128030 g     F .text	0000006d cnx_remove_all_rc
40139ddc g     F .text	0000007c hal_attenna_init
4014e3f0 g     F .text	00000044 eap_peer_fast_register
400f958c g     F .text	00000000 TG1_T0_LEVEL
40150b50 g     F .text	00000014 wpa_snprintf_hex
4013ca38 g     F .text	00000010 tls_connection_resumed
401382fc g     F .text	0000000f wdev_nan_set_callbacks
40082488 g     F .rwtext.wifi	00000066 cnx_node_search
4012ef68 g     F .text	000000a2 rf_cal_data_recovery
40143c20 g     F .text	0000001d hmac_md5
40110b24 g     F .text	00000066 ieee80211_ht_node_init
4013316c g     F .text	000000ac lmacRetryTxFrame
4013b78c g     F .text	000001bb eap_sm_process_request
40125e04 g     F .text	0000012a ppInstallKey
40114e78 g     F .text	0000002f wpa_crypto_funcs_init
40140630 g     F .text	0000001b x509_sha256_oid
4014d24c g     F .text	00000124 eap_fast_save_pac
40088904 g     F .rwtext.wifi	000000ca bb_bss_cbw40
40125668 g     F .text	00000040 wifi_ap_pmf_enabled
4014558c g     F .text	00000041 sha384_vector
40115f88 g     F .text	0000000a wifi_on_coex_schm_phase_process
3ffb1f6c g     O .data.wifi	00000004 g_osi_funcs_p
400ffb9c g     F .text	000000af realloc
40144f80 g     F .text	00000113 hmac_sha1_vector
4000181c g       *ABS*	00000000 write
40133b08 g     F .text	0000003c lmac_stop_hw_txq
40133f7c g     F .text	00000036 pm_wake_up
4011ff8c g     F .text	00000042 scan_reset_default_app_params
4011c9f4 g     F .text	0000001f ieee80211_add_probe_resp_app_ies
40086a64 g     F .rwtext.wifi	0000016d pm_process_tim
3ffd32e4 g     O .bss	00000088 phy_rxrf_dc
4010ac54 g     F .text	000000f3 .hidden _ZN17compiler_builtins3int3mul3Mul3mul17h03f7bd69535e5bf8E
4013a0d4 g     F .text	0000001b hal_enable_sta_tsf
40111a78 g     F .text	00000046 ieee80211_add_ie_vendor_esp_manufacturer
40081874 g     F .rwtext	00000068 phy_enter_critical
400819e8 g     F .rwtext	00000000 Timer1
40002d78 g       *ABS*	00000000 __mulvdi3
4013cfac g     F .text	0000004a tlsv1_client_deinit
4013bbe8 g     F .text	0000001c esp_eap_client_set_ca_cert
40132cb0 g     F .text	00000037 ic_set_interrupt_handler
40114764 g     F .text	0000002e wifi_get_macaddr
40111424 g     F .text	0000003c ieee80211_add_htcap
40122d04 g     F .text	0000000f sta_recv_ctl
401132a8 g     F .text	00000088 ieee80211_parse_wapi
400819e8 g     F .rwtext	00000000 Timer0
40141484 g     F .text	0000007d aes_128_cbc_decrypt
3ffd0aa8 g     O .bss	00000004 wpa_cb
4011761c g     F .text	0000006f nan_dp_get_peer_ndl
4006387c g       *ABS*	00000000 __absvdi2
40080400 g       *ABS*	00000000 _init_end
3ffd2058 g     O .bss	0000011c gScanStruct
40101408 g     F .text	00000025 pp_printf
3ffd0be4 g     O .bss	00000004 g_wpa_password
4010b310 g     F .text	00000029 wifi_deinit_in_caller_task
4012b308 g     F .text	00000096 chip_v7_rxmax_ext_ana
40080ae8 g     F .rwtext	000000bf __user_exception
4011538c g     F .text	0000000d wifi_set_ps_process
40155684 g     F .text	00000007 tls_get_errors
40116c28 g     F .text	00000067 nan_transmit_action
4006342c g     F *ABS*	00000049 .hidden __ltsf2
40113b38 g     F .text	000001b7 ieee80211_set_phy_bw
4013bb68 g     F .text	00000046 esp_eap_client_set_certificate_and_key
40088e70 g     F .rwtext.wifi	00000124 rx_11b_opt
4013be20 g     F .text	00000095 esp_eap_client_set_fast_params
401179d4 g     F .text	00000097 nan_ndp_resp_timeout_process
3ffb1d28 g     O .data	0000009c rc11GSchedTbl
400819e8 g     F .rwtext	00000000 Timer2
4008a7e4 g     F .rwtext.wifi	0000005e ram_set_noise_floor
40131404 g     F .text	000001ec ram_rfcal_txcap
40002cf8 g       *ABS*	00000000 __subvsi3
401368e8 g     F .text	00000068 rcGet11NHighestRateIdx
4014ada8 g     F .text	000000a9 peap_prfplus
401503f8 g     F .text	0000002a wpa_sm_notify_disassoc
4013d2c4 g     F .text	00000034 tlsv1_client_get_random
4011ddd8 g     F .text	000001b1 ieee80211_encap_amsdu
4011a638 g     F .text	00000048 nan_send_discovery_result
400865ac g     F .rwtext.wifi	0000005e pm_enable_beacon_monitor_timer
40155448 g     F .text	00000007 RC_SetBasicRate
4014b4dc g     F .text	00000015 eap_peer_tls_reset_input
4013cb10 g     F .text	0000013b tls_derive_keys
4012f2fc g     F .text	0000001c get_phy_version_str
3ffd0c00 g     O .bss	00000004 g_wpa_client_cert_len
40133808 g     F .text	000000a9 lmacProcessTxRtsError
4011cb5c g     F .text	00000077 ieee80211_add_extcap
4013268c g     F .text	0000008e ic_set_key
4011c2d0 g     F .text	00000036 is_wapi_alloc_tx_buf
3ffd079a g     O .bss	00000001 phy_in_vdd33_offset
401521b8 g     F .text	0000007f pkcs1_decrypt_public_key
400896fc g     F .rwtext.wifi	0000004c phy_dis_hw_set_freq
401253cc g     F .text	00000029 esp_wifi_sta_update_ap_info_internal
4014d3b4 g     F .text	000001be eap_fast_load_pac_bin
40127aec g     F .text	0000001a cnx_get_authtype_strength
40086598 g     F .rwtext.wifi	00000013 pm_beacon_monitor_tbtt_stop
40080958 g     F .rwtext	00000000 __default_naked_level_3_interrupt
40142908 g     F .text	00000018 crypto_public_key_encrypt_pkcs1_v15
40134a28 g     F .text	00000074 pm_tx_data_done_process
4013735c g     F .text	00000059 TRC_AMPDU_PER_UP_THRESHOLD
4013c270 g     F .text	00000053 wpa_alloc_eapol
401361a8 g     F .text	00000056 ppTxqEmpty
4012a00c g     F .text	0000011d cnx_obss_scan_done_cb
401112c8 g     F .text	000000b9 ieee80211_setup_htrates
3ffd32c4 g     O .bss	0000000b freq_i2c_addr
4011cc58 g     F .text	0000006d ieee80211_setup_robust_mgmtframe
40063374 g     F *ABS*	00000049 .hidden __eqsf2
401439e0 g     F .text	00000086 MD5Update
4013bd24 g     F .text	0000003a esp_eap_client_set_new_password
3f411a4e g     O .rodata	00000100 Td4s
3ffd2188 g     O .bss	00000228 gChmCxt
40150450 g     F .text	00000035 wpa_parse_wpa_ie
400fd634 g     F .text	0000013a ets_timer_disarm
40132dcc g     F .text	00000016 ic_set_rx_policy
4011fb88 g     F .text	00000014 ieee80211_regdomain_update_in_connect
4011c944 g     F .text	00000030 ieee80211_add_rates
400f958c g     F .text	00000000 TG0_T0_LEVEL
4014b794 g     F .text	0000003b eap_peer_tls_decrypt
40089540 g     F .rwtext.wifi	00000063 ram_en_pwdet
4000c978 g     F *ABS*	00000033 .hidden __floatundidf
4010d6fc g     F .text	00000153 hostap_handle_timer_process
4008ae60 g     F .rwtext.wifi	00000076 get_chan_pwr_index
4010d494 g     F .text	0000019a ieee80211_hostap_attach
4015569c g     F .text	0000000e tls_alert
40141010 g     F .text	00000289 x509_check_signature
40101240 g     F .text	0000004b gettimeofday
3ffd0594 g     O .bss	00000004 s_wifi_task_hdl
40116c14 g     F .text	0000000e nan_post_event
40121c38 g     F .text	00000bf3 scan_parse_beacon
40118a18 g     F .text	000000d5 nan_dp_schedule_next_faw
40139ed8 g     F .text	00000085 hal_sniffer_enable
4008d294 g     F .rwtext.wifi	000000a7 ppAMPDU2Normal
400f9290 g     F .text	0000009f ESP32Reset
4013bee4 g     F .text	0000002d wpa_ap_get_wpa_ie
401439c0 g     F .text	0000001f MD5Init
40126bf4 g     F .text	000000e7 chm_set_current_channel
40138f34 g     F .text	00000024 hal_mac_set_txq_invalid
400878f4 g     F .rwtext.wifi	00000078 wDevCheckBlockError
4012a404 g     F .text	0000001c offchan_recv_action
4011bc3c g     F .text	00000038 wifi_nvs_validate_ap_password
4000c870 g     F *ABS*	0000002f .hidden __floatsisf
4014327c g     F .text	00000040 des3_decrypt
40132d98 g     F .text	00000010 ic_get_trc
4010c56c g     F .text	000000c8 wifi_create_softap
40134fe0 g     F .text	00000066 pm_on_coex_schm_status_config
400855e8 g     F .rwtext.wifi	0000002e ppProcessRxPktHdr
3ffb1706 g     O .data	00000002 bt_tx_pa_gain
40148f50 g     F .text	0000001b eap_peer_get_methods
4012df7c g     F .text	00000016 bt_index_to_bb
4012ad44 g     F .text	0000009f tkip_decap
40155120 g     F .text	0000001b ieee80211_set_shortslottime
40150488 g     F .text	00000296 wpa_gen_wpa_ie
40140180 g     F .text	0000006b x509_free_name
4010b3d0 g     F .text	00000045 wifi_osi_funcs_register
40155568 g     F .text	0000004f rcUpdateAckSnr
4013727c g     F .text	000000db rcAmpduLowerRate
4013263c g     F .text	00000011 ic_get_addr
40125a60 g     F .text	00000024 esp_wifi_get_spp_attrubute_internal
4013af34 g     F .text	00000020 sha256_prf
4013ea78 g     F .text	0000006a tls_verify_hash_free
401554ec g     F .text	00000026 trcAmpduSetState
400081d4 g       *ABS*	00000000 rtc_get_reset_reason
40122ebc g     F .text	00000025 sta_is_wpa3_enabled
401561b4 g     F .text	00000026 bignum_cmp_d
40150380 g     F .text	0000004e wpa_sm_drop_sa
40128810 g     F .text	00000031 cnx_auth_timeout_process
4013516c g     F .text	0000003b pm_disconnected_stop
40137d08 g     F .text	0000006e wdev_pop_promis_misc_buf
4013bdc4 g     F .text	0000005a esp_eap_client_set_pac_file
4013e33c g     F .text	000005c3 tlsv1_client_handshake_write
3ffb16b8 g     O .data	00000018 sms4
40129620 g     F .text	00000296 cnx_sta_leave
40081a68 g     F .rwtext	0000003e __default_double_exception
4015503c g     F .text	00000034 nan_all_wildcard_filter
3ffd0bf4 g     O .bss	00000004 g_wpa_private_key_passwd
40121abc g     F .text	00000081 scan_get_owe_channel_info
3ffd0669 g     O .bss	00000001 g_wifi_improve_contention_ability
4011f764 g     F .text	00000023 ieee80211_proto_attach
401328ec g     F .text	0000000c ic_register_nan_callbacks
4013c7b0 g     F .text	0000001b tls_deinit
4010c2d8 g     F .text	0000000f ieee80211_ifdetach
401302ac g     F .text	00000187 ram_txiq_cover
4010be98 g     F .text	0000007a esp_mesh_map_deauth
3ffd079e g     O .bss	00000001 s_is_6m
401351b4 g     F .text	000001c2 pm_start
401398dc g     F .text	00000059 hal_mac_tsf_set_time
40086e4c g     F .rwtext.wifi	0000005f pm_coex_pwr_update
4008b7b0 g     F .rwtext.wifi	00000017 ram_get_rf_gain_qdb
4013bd88 g     F .text	0000000b wifi_sta_get_enterprise_disable_time_check
3ffd0bf8 g     O .bss	00000004 g_wpa_private_key_len
40154d50 g     F .text	00000030 snprintf
40086150 g     F .rwtext.wifi	000000ae pm_scale_listen_interval
4014b680 g     F .text	000000f7 eap_peer_tls_process_helper
400041a4 g       *ABS*	00000000 rom_i2c_writeReg
40111ecc g     F .text	0000013c ieee80211_set_max_rate
400636dc g     F *ABS*	0000004d .hidden __gtdf2
4011ad80 g     F .text	00000030 cleanup_peer_list
40134108 g     F .text	0000029f pm_coex_separate_connectionless_window
40148d80 g     F .text	0000012a tls_prf_sha1_md5
40089358 g     F .rwtext.wifi	0000009e phy_wakeup_init
4010aa34 g     F .text	0000002e .hidden _ZN83_$LT$$RF$mut$u20$I$u20$as$u20$core..iter..traits..exact_size..ExactSizeIterator$GT$3len17h748e6601cc771210E
3ffd0bd8 g     O .bss	00000004 g_wpa_new_password_len
4008d168 g     F .rwtext.wifi	00000092 ppSelectNextQueue
4008b0f4 g     F .rwtext.wifi	00000297 set_chan_dig_gain
40064b7c g       *ABS*	00000000 __clrsbdi2
40134c3c g     F .text	000000dc pm_go_to_wake
4014e5f4 g     F .text	00000064 pmksa_cache_flush
40149118 g     F .text	00000021 eap_peer_register_methods
4011fccc g     F .text	0000001c ieee80211_rfid_locp_recv
401102ec g     F .text	00000076 ampdu_alloc_rx_ba_index
40115fc4 g     F .text	0000001f ieee80211_ioctl_init
4010ff8c g     F .text	000001c2 ieee80211_ht_attach
40152c80 g     F .text	0000003f get_master_key
3ffb14d8 g     O .data	00000100 g_timer_info
40087ba8 g     F .rwtext.wifi	00000053 pm_handle_tbtt_interval
40133980 g     F .text	0000006d lmacDisableTransmit
4013288c g     F .text	00000014 ic_register_config_cb
4010aec4 g     F .text	00000046 wifi_api_lock
4013eae4 g     F .text	000000ba tls_verify_hash_init
40117e50 g     F .text	00000066 nan_send_ndp_resp
40138acc g     F .text	00000146 hal_crypto_set_key_entry
3ffd0a08 g     O .bss	00000070 wDevMacSleep
4008c9c4 g     F .rwtext.wifi	00000150 lmacProcessTxComplete
40150a34 g     F .text	00000024 wpabuf_alloc_ext_data
4011f9e0 g     F .text	00000024 ieee80211_update_phy_country
40086d6c g     F .rwtext.wifi	0000001b pm_beacon_monitor_tbtt_timeout_process
40082844 g     F .rwtext.wifi	0000006f lmacTxDone
400896b8 g     F .rwtext.wifi	00000040 bb_rst_en_set
40089404 g     F .rwtext.wifi	00000032 phy_set_bbfreq_init
400877f8 g     F .rwtext.wifi	000000e7 wdevProcessRxSucDataAll
40142920 g     F .text	00000018 crypto_private_key_sign_pkcs1
40130434 g     F .text	000001dd rfcal_txiq
40089480 g     F .rwtext.wifi	000000af pwdet_sar2_init
4013e9b8 g     F .text	0000003f tls_parse_cert
40063790 g     F *ABS*	0000004d .hidden __ltdf2
40152cc0 g     F .text	00000065 get_asymetric_start_key
4010b938 g     F .text	0000006a esp_wifi_set_config
40125a34 g     F .text	0000002b esp_wifi_deauthenticate_internal
3ffd0784 g     O .bss	00000001 bt_dig_gain_force
4008bee0 g     F .rwtext.wifi	00000047 hal_mac_rx_get_end_info
40125f30 g     F .text	00000060 esp_wifi_set_sta_key_internal
4010aa64 g     F .text	000001f0 .hidden _ZN17compiler_builtins5float3div3div17heda295e2dcc7b110E
401180c0 g     F .text	000000b2 nan_dp_parse_time_bitmap
4012d7b0 g     F .text	000003ae set_rx_gain_cal_dc
40138f58 g     F .text	00000019 hal_mac_is_txq_valid
401197e4 g     F .text	000000f0 nan_nmns_event_hdlr
40110ba0 g     F .text	0000011c ieee80211_parse_htcap
40148d40 g     F .text	00000025 aes_gmac
400863dc g     F .rwtext.wifi	00000024 pm_disable_sleep_delay_timer
40085ac8 g     F .rwtext.wifi	0000004e rc_get_trc
40001274 g       *ABS*	00000000 strcmp
4012b670 g     F .text	0000006f wr_rf_freq_mem
40086fac g     F .rwtext.wifi	00000025 ppDequeueRxq_Locked
400633c0 g     F *ABS*	00000049 .hidden __lesf2
4013c08c g     F .text	00000023 wpa_install_key
4015206c g     F .text	00000018 bignum_sub
40120198 g     F .text	00000011 scan_set_act_duration
4012b950 g     F .text	00000570 bt_i2c_write_set
40002ed0 g       *ABS*	00000000 __popcountsi2
400f958c g     F .text	00000000 TG0_T1_EDGE
40144e74 g     F .text	00000031 sha1_vector
40133dd0 g     F .text	0000005e pm_noise_check
4010a99c g     F .text	00000025 default_post_init
40117f90 g     F .text	000000dd nan_dp_parse_elem_container
40142314 g     F .text	000000e9 aes_unwrap
401454e0 g     F .text	0000001d hmac_sha256
4012cea0 g     F .text	000000ea ram_check_noise_floor
40089d38 g     F .rwtext.wifi	0000006e btpwr_tsens_track
40082670 g     F .rwtext.wifi	000001c2 lmacTxFrame
4010c20c g     F .text	000000cb ieee80211_ifattach
40155ae4 g     F .text	0000001e wpa_mic_len
3ffd0504 g     O .bss	00000004 mesh_rxcb
40088550 g     F .rwtext.wifi	0000005d ram_cbw2040_cfg
40089fc8 g     F .rwtext.wifi	000000a5 force_txrxoff
40155d3c g     F .text	0000000f eap_sm_request_password
3ffd0655 g     O .bss	00000001 s_avail_seq
401349dc g     F .text	00000022 pm_sleep_delay_timeout_process
4008d478 g     F .rwtext.wifi	00000087 rcGetRate
4011cc24 g     F .text	00000032 ieee80211_vnd_lora_ie_set
40137f18 g     F .text	00000072 wDev_SnifferRxAmpdu
40152dcc g     F .text	00000022 nt_password_hash_encrypted_with_block
4014523c g     F .text	00000093 sha256_process
4014f100 g     F .text	0000004d wpa_sm_init
4013ce30 g     F .text	00000119 tlsv1_client_decrypt
3ffb1f7d g     O .data.wifi	00000001 g_sta_connected_flag
40113f68 g     F .text	000007f5 wifi_softap_set_config
401003ac g     F .text	0000008f WIFI_MAC
401375d4 g     F .text	000000ae rcReachRetryLimit
40134f54 g     F .text	00000059 pm_active_timeout_process
400f958c g     F .text	00000000 SPI1_DMA
40155768 g     F .text	0000000b tlsv1_client_set_session_ticket_cb
40152488 g     F .text	0000011b crypto_rsa_exptmod
4010b344 g     F .text	00000079 wifi_init_in_caller_task
3ffd073f g     O .bss	00000001 g_in_blacklist_flag
40084a10 g     F .rwtext.wifi	00000089 ampdu_dispatch_as_many_as_possible
401525a4 g     F .text	00000038 crypto_rsa_free
4008a470 g     F .rwtext.wifi	000001b0 set_most_pwr_reg
400860d0 g     F .rwtext.wifi	0000000a ic_mac_deinit
40119dd8 g     F .text	00000371 nan_scan_event_hdlr
40126bbc g     F .text	00000022 chm_get_chan_info
40155a34 g     F .text	00000005 crypto_global_deinit
4010d9f8 g     F .text	0000011f hostap_recv_ctl
401327f4 g     F .text	00000014 ic_ebuf_alloc
40116330 g     F .text	0000000e nan_get_tsf
3ffb1705 g     O .data	00000001 phy_in_most_power
4011c974 g     F .text	00000026 ieee80211_add_dsparams
40155160 g     F .text	00000031 scan_fill_wps_scan_ie
40135f0c g     F .text	0000001e ppRecordBarRRC
4000c44c g     F *ABS*	00000031 .hidden memset
4008d10c g     F .rwtext.wifi	00000055 ppProcessWaitingQueue
401452d0 g     F .text	000000d4 sha256_done
4010c3ec g     F .text	00000064 wifi_destroy_softap
40063768 g     F *ABS*	0000004d .hidden __gedf2
40148f6c g     F .text	0000002b eap_peer_get_type
4012c550 g     F .text	0000009c set_chan_freq_hw_init
4000c8c0 g     F *ABS*	00000031 .hidden __floatdisf
4013b1ac g     F .text	00000026 dup_binstr
4013e9f8 g     F .text	0000007e tls_verify_hash_add
4013b0a4 g     F .text	00000108 printf_decode
40141e30 g     F .text	0000001a aes_encrypt_deinit
4013b1d4 g     F .text	000000e2 wpa_config_parse_string
40145b74 g     F .text	00000011 os_get_random
4000ca50 g     F *ABS*	00000031 .hidden __clzdi2
3ffd23b0 g     O .bss	00000ef8 g_cnxMgr
4000c584 g       *ABS*	00000000 strlcpy
3ffd0c14 g     O .bss	00000004 g_wpa_anonymous_identity
3ffd0bc5 g     O .bss	00000001 g_wpa_suiteb_certification
40138d20 g     F .text	0000001b hal_crypto_mgmt_rx_enabled
4011daf8 g     F .text	00000058 ieee80211_disassoc_construct
40155550 g     F .text	00000018 rcGetDefaultHigestRateIdx
40155274 g     F .text	00000023 phy_byte_to_word
401482c8 g     F .text	00000143 wpa_parse_wpa_ie_wpa
4013bd94 g     F .text	00000030 esp_eap_client_set_ttls_phase2_method
4012627c g     F .text	00000048 esp_wifi_register_mgmt_frame_internal
40132e54 g     F .text	0000000a ic_create_wifi_task
40122d1c g     F .text	000000a2 wifi_station_start
3ffd0b4c g     O .bss	00000004 global_hapd
40101408 g     F .text	00000025 net80211_printf
40132e00 g     F .text	0000000f ic_trc_set_per_pkt_rate
40125474 g     F .text	00000056 esp_wifi_get_pmf_config_internal
401164ec  w    F .text	000002d8 nan_input
4013c154 g     F .text	0000003a wpa_sta_connect
40139954 g     F .text	0000013d hal_mac_tsf_reset
401256a8 g     F .text	0000000d esp_wifi_sta_get_prof_password_internal
4014b580 g     F .text	00000017 eap_peer_tls_ssl_deinit
40127808 g     F .text	0000000e cnx_assoc_timeout
40080ba8 g     F .rwtext	0000002d __level_4_interrupt
4012cdb4 g     F .text	00000076 ram_start_tx_tone
40101408 g     F .text	00000025 coexist_printf
40133fec g     F .text	000000b9 pm_off_channel
401428d8 g     F .text	0000002e crypto_private_key_import
401346c8 g     F .text	0000002d pm_beacon_timestamp_statistic
40080140 g     F .vectors	00000000 _WindowUnderflow12
40002c34 g     F *ABS*	00000031 .hidden __extendsfdf2
40120430 g     F .text	00000170 scan_update_scan_history
4013590c g     F .text	00000019 pp_default_event_handler
3ffd076c g     O .bss	00000001 bt_pwr_track_num
4013f180 g     F .text	0000004b tlsv1_record_change_read_cipher
40155ecc g     F .text	000000f9 eap_fast_parse_tlv
3ffd04f4 g     O .bss	00000004 g_misc_nvs
401453e4 g     F .text	000000f9 hmac_sha256_vector
4000ca14 g       *ABS*	00000000 __negdi2
401488ec g     F .text	000000df ccmp_encrypt
40155070 g     F .text	0000001f nan_service_type_diff
4013a148 g     F .text	0000001b hal_disable_softap_tsf
4013bd60 g     F .text	00000018 esp_eap_client_clear_new_password
40116aec g     F .text	00000127 nan_alloc_action
4012063c g     F .text	00000015 scan_set_desChan
40155fd4 g     F .text	0000000c pmksa_cache_clear_current
40083054 g     F .rwtext.wifi	0000017d ppMapTxQueue
400895d4 g     F .rwtext.wifi	000000e2 pll_correct_dcap
4013a17c g     F .text	000000fb coex_bt_high_prio
3ffd0bd4 g     O .bss	00000004 g_wpa_ttls_phase2_type
3ffd0796 g     O .bss	00000001 phy_pwdet_onetime_flag
400fed30 g     F .text	000000d1 malloc
4008c7f4 g     F .rwtext.wifi	000000a6 lmacDiscardFrameExchangeSequence
4012a8c0 g     F .text	00000070 ieee80211_decrypt_espnow_pkt
40135050 g     F .text	0000003b pm_on_coex_start
3ffd0770 g     O .bss	00000002 bt_pwr_cap_sum
3ffd336c g     O .bss	00000001 phy_dcur_org
4008a6d4 g     F .rwtext.wifi	0000008b bt_tx_gain_cal
4008be90 g     F .rwtext.wifi	00000010 hal_mac_interrupt_clr_event
401359a8 g     F .text	0000001b ppCheckTxQIdle
4012a4cc g     F .text	0000006e ieee80211_send_action
50000000 g       *ABS*	00000000 _rtc_slow_bss_start
40002ac4 g     F *ABS*	00000033 .hidden __fixdfdi
40152b38 g     F .text	00000040 generate_nt_response
40086bd4 g     F .rwtext.wifi	00000098 pm_rx_beacon_process
4014596c g     F .text	0000009b sha512_process
40086790 g     F .rwtext.wifi	000001ba pm_sleep
4008a070 g     F .rwtext.wifi	0000001b ram_disable_agc
401343b4 g     F .text	00000060 pm_go_to_sleep
3ffd37dc g       *ABS*	00000000 _stack_end
4012f6e0 g     F .text	0000028b register_chipv7_phy
4013eea4 g     F .text	00000011 tlsv1_cred_alloc
40084934 g     F .rwtext.wifi	00000012 trc_isTxAmpduOperational
400f958c g     F .text	00000000 BT_BB
4015565c g     F .text	00000005 wpa_sm_disassociate
40084534 g     F .rwtext.wifi	00000057 wdev_mac_reg_store
40116dac  w    F .text	00000076 nan_stop
40130a6c g     F .text	00000064 rxdc_est_min
40152d28 g     F .text	00000076 encrypt_pw_block_with_password_hash
40156364 g     F .wifiorslpiram.27	0000002b wDev_GetNoiseFloor
400633a0 g     F *ABS*	00000049 .hidden __gtsf2
4012a3f8 g     F .text	0000000b offchan_in_progress
40137a8c g     F .text	0000001d wDev_SetCurChannel
4008af44 g     F .rwtext.wifi	00000107 correct_rf_ana_gain_new
4010c8a4 g     F .text	00000071 ieee80211_crypto_encap
4008174c g     F .rwtext	00000068 random
40138978 g     F .text	00000081 hal_ba_session_restore_by_hw_index
401560b4 g     F .text	0000000f wpabuf_put
4013cf4c g     F .text	0000000a tlsv1_client_global_init
40138a28 g     F .text	0000008c hal_crypto_clr_key_entry
40133ea8 g     F .text	0000000b pm_mac_sleep
401109c0 g     F .text	000000aa ampdu_process_multicast_address_qos_frame
4008254c g     F .rwtext.wifi	00000011 GetAccess
401386e4 g     F .text	000000f5 hal_agreement_add_rx_ba
40136830 g     F .text	000000b2 rcUpdateAMPDUParam
40080bd8 g     F .rwtext	0000002d __level_5_interrupt
40147754 g     F .text	0000019a wpa_write_rsn_ie
40122cdc g     F .text	00000026 ieee80211_parse_obss_scan_param
4012e074 g     F .text	00000025 chip_sleep_prot_dis
40147ca0 g     F .text	00000104 wpa_parse_kde_ies
4013c448 g     F .text	0000001a esp_supplicant_common_deinit
4000c3c0 g     F *ABS*	00000031 .hidden memmove
40089988 g     F .rwtext.wifi	000000a3 ram_chip_i2c_writeReg
4011df9c  w    F .text	0000029e ieee80211_alloc_proberesp
4014c920 g     F .text	000000c0 mschapv2_derive_response
3ffb12f0 g     O .data	00000004 g_wifi_nvs
4015549c g     F .text	0000001c rcLoRaRate2SchedIdx
3ffd0c08 g     O .bss	00000004 g_wpa_username_len
40123f7c g     F .text	00000086 sta_retry_assoc
40127620 g     F .text	00000036 ieee80211_cnx_attach
40063374 g     F *ABS*	00000049 .hidden __nesf2
4012f238 g     F .text	000000af fe_reg_init
401153b0 g     F .text	00000190 wifi_set_country
3ffd068c g     O .bss	00000001 rssi_index
4000ab7c g       *ABS*	00000000 roundup2
401388d0 g     F .text	0000003e hal_ba_session_store
401196c8 g     F .text	00000119 nan_nms_event_hdlr
40110d84 g     F .text	00000372 ieee80211_update_channel
4012b3b0 g     F .text	0000004f phy_freq_correct_opt
40116340 g     F .text	0000001d nan_update_tsf
40155d74 g     F .text	0000000d eap_get_config_password
4013862c g     F .text	00000037 wDev_remove_KeyEntry
401428c4 g     F .text	00000011 crypto_public_key_import
4012a77c g     F .text	0000002c ieee80211_action_vendor_spec_attach
401317cc g     F .text	0000024a ram_rfcal_pwrctrl
4000c518 g       *ABS*	00000000 strcat
40119a6c g     F .text	00000078 nan_fill_dynamic_attr
401496c8 g     F .text	00000031 eap_get_config_blob
4011cbd4 g     F .text	00000038 ieee80211_vnd_ie_set
4008aa14 g     F .rwtext.wifi	0000015a write_txrate_power_offset
40087a24 g     F .rwtext.wifi	00000013 pm_disable_dream_timer
40153694 g     F .text	000005c2 pkcs5_decrypt
401120f0 g     F .text	00000070 ieee80211_setup_lr_rates
401401ec g     F .text	0000002e x509_certificate_free
4013c664 g     F .text	0000004a hostapd_cleanup
40087128 g     F .rwtext.wifi	00000117 wDev_AppendRxBlocks
4014722c g     F .text	000003a7 wpa_receive
4010f238 g     F .text	000006b7 hostap_input
4008c4bc g     F .rwtext.wifi	000001ca esf_buf_alloc_dynamic
4000c5f4 g       *ABS*	00000000 strncmp
4013ca20 g     F .text	00000015 tls_connection_decrypt
4012febc g     F .text	0000001a ram_index_to_txbbgain
401147e4 g     F .text	00000050 wifi_reset_mac
40139054 g     F .text	00000054 hal_mac_enable_low_rate
40115fe4 g     F .text	0000000f ieee80211_ioctl_deinit
40125464 g     F .text	0000000e esp_wifi_sta_get_prof_authmode_internal
40131d14 g     F .text	00000175 tx_pwctrl_init_cal
40150998 g     F .text	0000001a wpabuf_alloc
40139f60 g     F .text	00000087 hal_sniffer_disable
401267f4 g     F .text	0000008a ieee80211_timer_do_process
400f958c g     F .text	00000000 GPIO
4010e07c g     F .text	00000169 ap_try_sa_query_process
3ffb120f g     O .data	00000001 s_ndp_id
40085a44 g     F .rwtext.wifi	00000080 rcUpdateRxDone
401490f4 g     F .text	00000024 eap_sm_allowMethod
4008d010 g     F .rwtext.wifi	000000f2 ppMapWaitTxq
3ffd0690 g     O .bss	00000008 rssi_saved
40080a48 g     F .rwtext	00000000 __naked_level_6_interrupt
40113f1c g     F .text	0000001a wifi_softap_max_support_num
40118898 g     F .text	0000004d nan_dp_init
3ffd0508 g     O .bss	00000004 s_wifi_api_lock
40115f94 g     F .text	00000025 wifi_mesh_ps_duty_cycle_get_process
40152c54 g     F .text	0000002a nt_challenge_response
40138ff8 g     F .text	00000057 hal_mac_disable_low_rate
40134fc4 g     F .text	00000012 pm_send_wake_null_cb
40138f74 g     F .text	00000043 hal_now
4012ce30 g     F .text	00000024 ram_bb_tx_ht20_cen
40080fdc g     F .rwtext	000001a0 __level_3_interrupt
4008d59c g     F .rwtext.wifi	00000024 hal_mac_txq_disable
400013ac g       *ABS*	00000000 strcpy
400819e8 g     F .rwtext	00000000 Software0
40133d88 g     F .text	00000047 pm_enable_disconnected_sleep_delay_timer
401259a4 g     F .text	00000013 esp_wifi_register_wpa_cb_internal
40155654 g     F .text	00000007 wpa_sm_mlme_setprotection
401001f4 g     F .text	00000099 Software1
40155694 g     F .text	00000007 tls_connection_get_failed
40086fdc g     F .rwtext.wifi	00000129 ppRxPkt
40140668 g     F .text	0000001c x509_sha512_oid
4011a87c g     F .text	00000052 nan_sd_parse_availability
40138910 g     F .text	00000067 hal_ba_session_restore
4010a99c g     F .text	00000025 DefaultPreInit
40148fd8 g     F .text	00000081 eap_get_phase2_types
40064ae0 g     F *ABS*	00000043 .hidden __bswapsi2
4010c538 g     F .text	0000002e ieee80211_setup_pmf
401431e0 g     F .text	0000000e des_block_decrypt
4012a15c g     F .text	00000296 cnx_auth_done
4012604c g     F .text	00000052 esp_wifi_sta_wpa2_ent_enable_internal
4013c05c g     F .text	0000002d wpa_ap_rx_eapol
4014319c g     F .text	0000001a des_key_setup
4011581c g     F .text	0000012e wifi_send_mgmt_frame
4013e944 g     F .text	0000002b tls_get_cipher_suite
4013ca7c g     F .text	0000001a tls_get_cipher
4008d5d4 g     F .rwtext.wifi	00000067 hal_get_tsf_time
401358e0 g     F .text	0000000f pp_register_timer_cb
40080774 g     F .rwtext	00000000 restore_context
4000d280 g     F *ABS*	0000003a .hidden __umoddi3
40132ad0 g     F .text	0000000a ic_get_next_tbtt
3ffb172a g     O .data	00000001 rfcal_bb_atten_init
4011fc6c g     F .text	0000001e ieee80211_regdomain_chan_in_range
4011c30c g     F .text	00000050 ieee80211_wapi_alloc_tx_buf
40138fbc g     F .text	00000023 hal_mac_tx_set_cca
401200f0 g     F .text	0000007a scan_cancel
4010128c g     F .text	00000023 strrchr
3ff96544 g       *ABS*	00000000 __popcount_tab
4010c4bc g     F .text	00000050 ieee80211_find_elem_match
4011e69c g     F .text	0000013c ieee80211_send_nulldata
401338b4 g     F .text	00000012 lmacProcessTxseckiderr
40145f0c g     F .text	0000003d hostapd_setup_wpa_psk
400844dc g     F .rwtext.wifi	00000057 wdev_mac_reg_load
4012f9c4 g     F .text	000000e6 chan14_mic_cfg
40139138 g     F .text	0000003a hal_disable_mac
4013627c g     F .text	0000002f ppDisableQueue
4011a17c  w    F .text	0000000f nan_sm_handle_event
4012dfc8 g     F .text	00000027 set_chanfreq_nomac
4013c9b4 g     F .text	00000014 tls_connection_handshake
40142178 g     F .text	00000166 omac1_aes_vector
40110920 g     F .text	000000a0 ieee80211_ampdu_age_all
40115610 g     F .text	0000005b wifi_ipc_process
400f958c g     F .text	00000000 I2C_EXT0
40137ae0 g     F .text	00000031 wDev_Get_Next_TBTT
3ffb1204 g     O .data	00000004 g_wifi_event_mask
4011db68 g     F .text	000000d2 ieee80211_search_node
4011532c g     F .text	0000005d wifi_set_chan_range
4011f9a8 g     F .text	00000036 ieee80211_regdomain_get_country
3ffb1f28 g     O .data	00000038 wDevCtrl
40080c38 g     F .rwtext	0000002d __level_7_interrupt
4012f194 g     F .text	0000008f i2cmst_reg_init
40137ab0 g     F .text	0000000d wDev_Set_Beacon_Int
4013cab4 g     F .text	00000014 tls_connection_set_session_ticket_cb
4008d3f0 g     F .rwtext.wifi	00000078 ppRegressAmpdu
4014b778 g     F .text	0000001a eap_peer_tls_reauth_init
401509b4 g     F .text	0000007e wpabuf_resize
3ff80000 g       *ABS*	00000000 _rtc_dummy_end
400809a8 g     F .rwtext	00000000 __default_naked_level_4_interrupt
4011d428  w    F .text	00000316 ieee80211_assoc_resp_construct
4011d74c g     F .text	00000312 ieee80211_auth_construct
4008a6a4 g     F .rwtext.wifi	0000001b bb_wdt_timeout_clear
40128d80 g     F .text	0000001e cnx_update_bss
40126f28 g     F .text	0000001f cnx_sta_connect_led_timer_cb
4010c724 g     F .text	00000178 wifi_mode_set
40087c04 g     F .rwtext.wifi	000002ae pm_update_next_tbtt
40121284 g     F .text	0000005b clear_bss_queue
401328b0 g     F .text	00000014 ic_register_pm_tx_null_cb
400ffc4c g     F .text	0000002d esp_wifi_free_internal_heap
4011c534 g     F .text	00000135 ieee80211_send_setup
3ffd0787 g     O .bss	00000001 lr_enable
40133fb4 g     F .text	00000035 pm_send_probe_start
40148f98 g     F .text	0000003e eap_get_phase2_type
40155bcc g     F .text	0000005b rsn_cipher_put_suites
40152a60 g     F .text	00000039 challenge_hash
4014b80c g     F .text	000000e5 eap_peer_select_phase2_methods
400f958c g     F .text	00000000 TIMER2
4011b9ec g     F .text	00000064 ieee80211_adjust_2nd_chan
400845b4 g     F .rwtext.wifi	00000014 wdev_mac_special_reg_store
40155298 g     F .text	000000ca phy_rfcal_data_check
40114ebc g     F .text	00000024 wifi_hmac_init
4011b830 g     F .text	00000038 wifi_nvs_commit
40126a24 g     F .text	00000030 chm_end_op
4008be7c g     F .rwtext.wifi	0000000d hal_mac_interrupt_get_event
4012cf8c g     F .text	00000022 ram_bb_bss_bw_40_en
4012c860 g     F .text	000000c5 set_channel_rfpll_freq
3ff80000 g       *ABS*	00000000 _rtc_fast_bss_end
4015536c g     F .text	00000005 pm_force_scan_unlock
4010af0c g     F .text	00000021 wifi_api_unlock
4014e474 g     F .text	0000001e eap_fast_put_tlv_buf
4011a1bc g     F .text	0000000f nan_dw_end_process
40135390 g     F .text	000001c6 pm_stop
4000cd4c g     F *ABS*	00000092 .hidden __moddi3
4011a8d0 g     F .text	0000024c nan_sd_receive_ctrl
4013c498 g     F .text	0000000a wps_get_wps_sm_cb
401422fc g     F .text	00000018 omac1_aes_128
400ffa88 g     F .text	00000038 strnlen
4012f334 g     F .text	000002f7 phy_rfcal_data_check_value
3ffb1c20 g     O .data	00000060 g_pp_timer_info
4011ac14 g     F .text	0000008a nan_sdf_txcb
401381f8 g     F .text	00000100 wDev_IndicateCtrlFrame
400ffd48 g     F .text	0000002f fclose
3ffd0779 g     O .bss	00000001 phy_sw_set_chan_en
401161c8 g     F .text	000000c8 is_esp_mesh_assoc
401500d0 g     F .text	0000004e wpa_sm_set_ap_rsnxe
40132b18 g     F .text	00000008 ic_reset_tbtt
4013c76c g     F .text	00000042 tls_init
400f958c g     F .text	00000000 TIMER1
40125434 g     F .text	00000010 esp_wifi_ap_get_prof_authmode_internal
400881d8 g     F .rwtext.wifi	00000096 i2c_bt_filter_set
4013c3e8 g     F .text	0000000a wpa_sm_free_eapol
4013e900 g     F .text	00000043 tlsv1_client_send_alert
40138864 g     F .text	0000006c hal_agreement_del_rx_ba
40127c80 g     F .text	0000005f cnx_clear_blacklist
40132880 g     F .text	0000000c ic_register_pp_tx_done_cb
3ffb1f70 g     O .data.wifi	00000004 g_intr_lock_mux
3ffb1728 g     O .data	00000001 wifi_txband_ht40
3ffd2054 g     O .bss	00000001 he_dcm_max_constellation_tx
401182ac g     F .text	0000013d nan_dp_parse_availability
4015566c g     F .text	00000005 supplicant_sta_disconn_handler
401171dc g     F .text	00000030 nan_sched_avail_entries_len
4000c7e8 g     F *ABS*	0000002f .hidden __clzsi2
401327dc g     F .text	00000011 ic_tx_pkt
40125570 g     F .text	00000016 esp_wifi_sta_disable_sae_pk_internal
401357fc g     F .text	00000016 pm_coex_reconnect_policy
40084720 g     F .rwtext.wifi	0000002c hal_mac_tx_config_timeout
40127b08 g     F .text	0000002c cnx_check_bssid_in_blacklist
3ffb1f08 g     O .data	0000001c trc_ctl
4013c4a4 g     F .text	0000000a hostapd_get_hapd_data
401424c4 g     F .text	000000ac crypto_cipher_init
40080000 g       *ABS*	00000000 _init_start
40127ebc g     F .text	00000039 cnx_rc_search
3ffd0564 g     O .bss	00000001 g_beacon_idx
40128564 g     F .text	00000220 cnx_sta_connect_cmd
4011c500 g     F .text	00000025 ieee80211_output_init
4008bf8c g     F .rwtext.wifi	00000062 ieee80211_align_eb
3ffb1708 g     O .data	00000004 tx_rf_ana_gain
40132da8 g     F .text	0000000a ic_get_pp_hdl
4011f5b0 g     F .text	000000c9 pwrsave_flushq
4012842c g     F .text	00000052 cnx_start_handoff_cb
400ffd78 g     F .text	00000094 strdup
40150cdc g     F .text	00000079 asn1_parse_oid
40143c40 g     F .text	000010eb SHA1Transform
4014ee94 g     F .text	0000026b wpa_supplicant_process_1_of_4
4000c804 g       *ABS*	00000000 __ffssi2
40127014 g     F .text	0000000e cnx_connect_timeout
4015563c g     F .text	00000016 wpa_ap_get_peer_spp_msg
401422e0 g     F .text	00000019 omac1_aes_128_vector
4012f978 g     F .text	0000003d phy_set_most_tpw
4014ec80 g     F .text	00000103 wpa_supplicant_send_2_of_4
4014e524 g     F .text	0000001d eap_fast_derive_eap_msk
400ffac0 g     F .text	0000006e sleep
40139d88 g     F .text	00000050 hal_mac_get_txq_pmd
4012d124 g     F .text	0000015b ram_gen_rx_gain_table
40143ae0 g     F .text	00000031 md5_vector
3ffd0590 g     O .bss	00000004 g_wifi_global_lock
4000c938 g     F *ABS*	00000066 .hidden __floatunsidf
4010af30 g     F .text	00000023 wifi_init_completed
401365a8 g     F .text	0000000a ppGetTaskHdl
400f958c g     F .text	00000000 I2C_EXT1
400898b0 g     F .rwtext.wifi	000000d8 ram_chip_i2c_readReg
4000c8b0 g     F *ABS*	00000092 .hidden __floatundisf
4000178c g       *ABS*	00000000 open
4011dd78 g     F .text	00000060 ieee80211_amsdu_encap_check
4011c24c g     F .text	00000081 ieee80211_empty_txq
40137b90 g     F .text	000000fb wdev_csi_rx_process
4013c254 g     F .text	0000001a esp_supplicant_deinit
40125508 g     F .text	0000001b esp_wifi_sta_get_rsnxe
3ffd3370 g     O .bss	0000005e chip7_phy_init_ctrl
40002c98 g       *ABS*	00000000 __addvsi3
40084854 g     F .rwtext.wifi	00000023 hal_mac_is_low_rate_enabled
40137c94 g     F .text	00000070 wdev_set_promis_misc_pkt
4013bcd0 g     F .text	0000003a esp_eap_client_set_password
4008ccd4 g     F .rwtext.wifi	0000004d ppRecycleRxPkt
4000244c g     F *ABS*	00000031 .hidden __fixsfdi
401385a8 g     F .text	00000082 wDev_Insert_KeyEntry
4008cb18 g     F .rwtext.wifi	000001a8 pm_tx_data_process
400824f8 g     F .rwtext.wifi	0000004d cnx_node_is_existing
40138de4 g     F .text	0000003c hal_crypto_disable
40136734 g     F .text	00000049 RC_GetCtsTime
4013cf58 g     F .text	00000008 tlsv1_client_global_deinit
40152084 g     F .text	00000018 bignum_mul
40130ad0 g     F .text	00000679 pbus_rx_dco_cal_1step
4008a84c g     F .rwtext.wifi	00000072 phy_close_rf
400017f4 g       *ABS*	00000000 sbrk
400024ac g     F *ABS*	00000059 .hidden __fixunssfsi
3ffb1850 g     O .data	00000004 pTxRx
40152da0 g     F .text	0000002c new_password_encrypted_with_old_nt_password_hash
4010a99c g     F .text	00000000 __pre_init
4011c224 g     F .text	00000024 ieee80211_recycle_cache_eb
40132e48 g     F .text	0000000a ic_txq_empty
4014cec8 g     F .text	0000002d eap_fast_get_pac
3ff80000 g       *ABS*	00000000 _rtc_fast_persistent_end
4012a7a8 g     F .text	00000083 ccmp_encap
4015567c g     F .text	00000005 esp_set_assoc_ie
40002e78 g       *ABS*	00000000 __negvsi2
400f958c g     F .text	00000000 TG1_T1_LEVEL
40138c14 g     F .text	00000017 hal_crypto_is_key_valid
401556e8 g     F .text	00000011 tlsv1_client_established
40089ebc g     F .rwtext.wifi	0000006f i2c_write_master
400632c8 g     F *ABS*	00000031 .hidden __mulsf3
40115288 g     F .text	00000042 wifi_connect_process
4014ed84 g     F .text	0000006c wpa_supplicant_pairwise_gtk
4013281c g     F .text	0000000e ic_ebuf_recycle_rx
4011f78c g     F .text	0000003a ieee80211_wme_updateparams
3ffd0f78 g     O .bss	000002a8 g_ic
401277f8 g     F .text	0000000e cnx_auth_timeout
4000c674 g       *ABS*	00000000 strstr
40115f68 g     F .text	0000001e wifi_on_coex_start_process
4011fc04 g     F .text	00000026 ieee80211_regdomain_max_chan
4014f150 g     F .text	00000076 wpa_sm_notify_assoc
401500b0 g     F .text	0000001f wpa_sta_clear_curr_pmksa
40132664 g     F .text	00000028 ic_disable_crypto
4013595c g     F .text	00000049 ppRegisterTxCallback
3ffd33d0 g     O .bss	00000010 phy_rxbb_dc
401529a4 g     F .text	000000bb aes_ccm_ad
3ffd33e0 g     O .bss	00000004 adc_ana_conf_org
401294b8 g     F .text	00000090 cnx_beacon_timeout_process
401121c0 g     F .text	000005d2 ieee80211_parse_beacon
40150dd0 g     F .text	00000042 asn1_bit_string_to_long
401201ac g     F .text	0000000f scan_set_pas_duration
40118614 g     F .text	0000007f nan_parse_ndp_confirm
40130628 g     F .text	00000097 ram_iq_est_enable
4012cb0c g     F .text	000002a3 ram_set_pbus_mem
4012878c g     F .text	0000007c cnx_connect_timeout_process
4014b8f4 g     F .text	00000047 eap_peer_tls_phase2_nak
40086f8c g     F .rwtext.wifi	0000001e ppEnqueueRxq
3ffb1701 g     O .data	00000001 phy_wifi_pll_track_en
401484d0 g     F .text	00000032 wpa_compare_rsn_ie
4008b860 g     F .rwtext.wifi	0000000f lmacProcessCollisions
3ffb16d0 g     O .data	00000018 tkip
401475d4 g     F .text	00000038 hostap_eapol_resend_process
401260f8 g     F .text	00000010 esp_wifi_set_wpa2_ent_state_internal
4013c8d8 g     F .text	00000028 tls_connection_export_key
4008b7c8 g     F .rwtext.wifi	00000018 wifi_11g_rate_chg
4013c954 g     F .text	0000005e tls_connection_handshake2
4011ffe0 g     F .text	000000a3 ieee80211_scan_attach
4011fc44 g     F .text	0000001c ieee80211_regdomain_min_chan
40156044 g     F .text	00000055 cipher_type_map_public_to_supp
4014f284 g     F .text	000000a8 wpa_set_passphrase
401528f8 g     F .text	000000a9 aes_ccm_ae
4013cc4c g     F .text	000001b8 tlsv1_client_handshake
401186d8 g     F .text	00000138 nan_rx_naf
401492f4 g     F .text	0000019f eap_peer_config_init
40132eb8 g     F .text	0000001d lmacIsLongFrame
3ffd0a7c g     O .bss	00000004 g_wdev_csi_rx
40155db0 g     F .text	00000046 eap_hdr_len_valid
40129a34  w    F .text	000001e0 cnx_node_leave
40133d10 g     F .text	00000013 pm_noise_check_enable
401254d0 g     F .text	00000038 esp_wifi_get_config_sae_pwe_h2e_internal
401256c8 g     F .text	00000016 esp_wifi_sta_set_reset_param_internal
400f958c g     F .text	00000000 level5_interrupt
40145560 g     F .text	0000002b sha384_done
40155a2c g     F .text	00000007 crypto_global_init
3ffd0bf0 g     O .bss	00000004 g_wpa_private_key_passwd_len
40146d54 g     F .text	00000036 wpa_remove_ptk
4011f0c8 g     F .text	0000005d ieee80211_phy_mode_show
40125398 g     F .text	00000023 wifi_sta_connect_internal_process
4013c1ac g     F .text	00000008 wpa_neg_complete
40080280 g     F .vectors	00000000 _Level6InterruptVector
3ffb1700 g     O .data	00000001 dreg_1p2_set
40083338 g     F .rwtext.wifi	0000005b ppCalFrameTimes
40139e78 g     F .text	00000059 hal_mac_rate_autoack_init
40085f24 g     F .rwtext.wifi	0000004a sta_reset_beacon_timeout
4008c078 g     F .rwtext.wifi	00000178 ieee80211_output_do
40132adc g     F .text	0000000b ic_del_rx_ba
401334a8 g     F .text	0000017f lmacProcessLongRetryFail
40116198 g     F .text	00000021 config_get_wifi_task_stack_size
4012558c g     F .text	00000037 esp_wifi_enable_sae_pk_only_mode_internal
40154f38  w    F .text	00000007 adc2_wifi_acquire
4000c864 g     F *ABS*	0000005b .hidden __floatunsisf
4012e968 g     F .text	000000b8 bb_init
40152040 g     F .text	00000011 bignum_cmp
3ffd33e4 g     O .bss	00000001 set_most_tpw
4010ad7c  w    F .text	00000052 .hidden __multi3
40148550 g     F .text	0000017b wpa_pmk_to_ptk
4013271c g     F .text	00000050 ic_get_key
40120184 g     F .text	00000013 scan_hidden_ssid
40110ae0 g     F .text	00000035 ieee80211_ht_node_cleanup
401115e0 g     F .text	0000003c ieee80211_add_htinfo
400faac4 g     F .text	00000100 __assert_func
401163d8 g     F .text	00000011 nan_action_frames_queued
400f958c g     F .text	00000000 TG0_LACT_EDGE
40132ae8 g     F .text	00000014 ic_reset_rx_ba
40139a9c g     F .text	00000088 mac_tx_set_plcp1
40002e98 g       *ABS*	00000000 __negvdi2
4000c7d0 g     F *ABS*	00000031 .hidden __umodsi3
4011f264 g     F .text	000000a0 ieee80211_phy_init
4013671c g     F .text	00000017 RC_GetAckTime
40135588 g     F .text	00000115 pm_attach
40139b38 g     F .text	0000006a mac_tx_set_plcp2
4014b330 g     F .text	000000a3 eap_peer_tls_derive_session_id
40134fb0 g     F .text	00000012 pm_send_sleep_null_cb
4005cfec g       *ABS*	00000000 crc32_le
3ffb1cc8 g     O .data	00000060 rcP2P11GSchedTbl
4012784c g     F .text	000000d4 cnx_csa_fn_process
400887b4 g     F .rwtext.wifi	0000008a set_chan_rxcomp
40132868 g     F .text	0000000c ic_register_timer_post_cb
40002d20 g       *ABS*	00000000 __subvdi3
40155090  w    F .text	00000058 ieee80211_is_bufferable_mmpdu
4014e758 g     F .text	000000d3 pmksa_cache_add
40136fe0 g     F .text	00000008 rc_get_G6M_sched
40132d30 g     F .text	0000001b ic_disable_rx
400880d0 g     F .rwtext.wifi	00000106 bb_bss_cbw40_ana
40126108 g     F .text	0000000e esp_wifi_sta_pmf_enabled
40138e34 g     F .text	000000a0 mac_tx_set_plcp0
4015513c g     F .text	00000024 scan_check_hidden
4010d860 g     F .text	0000001e ap_rx_cb
40140528 g     F .text	00000013 x509_name_string
40155374 g     F .text	00000023 getle32
40154f18 g     F .text	00000018 ieee80211_is_lr_only
40088000 g     F .rwtext.wifi	0000001a wdev_csi_len_align
4010aa0c g     F .text	00000027 default_mem_hook
400f958c g     F .text	00000000 UHCI1
40085eac g     F .rwtext.wifi	00000078 wifi_rf_phy_disable
40152df0 g     F .text	0000003b old_nt_password_hash_encrypted_with_new_nt_password_hash
4011bd58 g     F .text	0000001d wifi_nvs_validate_ap_num
40126ab4 g     F .text	00000035 chm_acquire_lock
4010ae18 g     F .text	0000006f esp_wifi_set_inactive_time_local
40116004 g     F .text	0000017e ieee80211_ioctl
4011c360 g     F .text	00000089 ieee80211_copy_eb_header
40084948 g     F .rwtext.wifi	00000017 trc_tid_isTxAmpduOperational
40127920 g     F .text	00000108 cnx_validate_owe_bss
40083854 g     F .rwtext.wifi	0000012d ppProcessTxQ
401365b4 g     F .text	00000012 dbg_lmac_ps_statis_reset
400808b4 g     F .rwtext	00000000 __naked_double_exception
4011a5d8 g     F .text	0000005f nan_insert_peer_svc_record
4012caa4 g     F .text	0000001f chip_v7_set_chan_ana
4011f040 g     F .text	0000000a ieee80211_phy_deinit
400fd5fc g     F .text	00000035 ets_timer_arm
4011ca34 g     F .text	0000001e ieee80211_add_assoc_resp_ies
4014760c g     F .text	0000002b wpa_deinit
4013667c g     F .text	0000000f pp_timer_register_post_cb
4013bf14 g     F .text	00000024 wpa_deattach
40063c90 g       *ABS*	00000000 __muldc3
4013c828 g     F .text	00000010 tls_connection_shutdown
40111390 g     F .text	0000008c ieee80211_setup_basic_htrates
4013bc04 g     F .text	00000011 esp_eap_client_clear_ca_cert
4008b880 g     F .rwtext.wifi	0000000f lmacPostTxComplete
40133d28 g     F .text	00000037 pm_enable_sleep_delay_timer
4010c2ec g     F .text	000000a8 wifi_create_nan
4008801c g     F .rwtext.wifi	00000020 wDev_DiscardFrame
40088cd0 g     F .rwtext.wifi	00000107 bb_reg_init
40150a90 g     F .text	0000001c wpabuf_free
4014913c g     F .text	0000005f eap_sm_build_identity_resp
4010b6ec g     F .text	0000002a esp_wifi_get_mode
40111de4 g     F .text	000000dc ieee80211_setup_rates
4012bed4 g     F .text	000000e2 bt_i2c_set_wifi_data
401379c4 g     F .text	000000c8 rc_enable_trc
4011fcbc g     F .text	00000010 ieee80211_rfid_locp_recv_reset
401560e0 g     F .text	00000005 asn1_unexpected
4015570c g     F .text	0000001e tlsv1_client_get_keyblock_size
40129130 g     F .text	0000037f cnx_update_bss_more
3ffd1684 g     O .bss	000004c4 s_sd
40115570 g     F .text	0000000b wifi_wps_is_started
40144d2c g     F .text	00000024 SHA1Init
400f958c g     F .text	00000000 UHCI0
4000c53c g       *ABS*	00000000 strchr
400855cc g     F .rwtext.wifi	0000001c pm_on_data_rx
3ffd1b48 g     O .bss	00000504 s_wifi_nvs
3ffd32a8 g     O .bss	00000014 sta_con_timer
40145c70 g     F .text	000000f5 eloop_register_timeout
4008a798 g     F .rwtext.wifi	00000039 phy_wifi_enable_set
4012b404 g     F .text	0000002f i2c_bias_init
40125cb0 g     F .text	00000150 esp_wifi_set_ap_key_internal
40002504 g     F *ABS*	0000007a .hidden __fixunssfdi
4013308c g     F .text	000000c7 lmacDiscardMSDU
401188e8 g     F .text	00000068 nan_dp_deinit
40117174 g     F .text	00000066 nan_sched_reset_avail_flags_sdf
4012c474 g     F .text	000000d4 write_wifi_chan_data
401426ac g     F .text	0000015b crypto_cipher_decrypt
4014e44c g     F .text	00000026 eap_fast_put_tlv_hdr
3ffb1f80 g     O .data.wifi	00000080 eb_txdesc_space
400f958c g     F .text	00000000 RTC_CORE
4014cfe0 g     F .text	0000026a eap_fast_load_pac
4010dfe0 g     F .text	00000086 ap_sa_query_timeout_process
4012f638 g     F .text	00000076 reset_rf_dig
3ffd37dc g       *ABS*	00000000 _bss_end
40083204 g     F .rwtext.wifi	00000124 ppProcTxSecFrame
401554d8 g     F .text	00000011 trc_calc_duration
40135f58 g     F .text	0000015d pp_create_task
4008a678 g     F .rwtext.wifi	0000002a bb_wdt_int_enable
40114fb8 g     F .text	00000022 wifi_deinit
40148444 g     F .text	00000036 wpa_use_aes_key_wrap
40080a98 g     F .rwtext	00000000 __default_naked_level_7_interrupt
40084884 g     F .rwtext.wifi	00000033 hal_mac_deinit
4013282c g     F .text	0000000e esp_wifi_internal_free_rx_buffer
40135c6c g     F .text	000000f2 ppFillAMPDUBar
3f4102c4 g     O .rodata	00000006 NAN_STANDARD_BSSID
40154f50 g     F .text	00000056 nan_dp_alloc_ndp
50000000 g       *ABS*	00000000 _rtc_slow_data_end
4008d33c g     F .rwtext.wifi	00000049 ppDirectRecycleAmpdu
4008acdc g     F .rwtext.wifi	00000132 get_rate_fcc_index
40133eb8 g     F .text	00000031 pm_disconnected_wake
40084aa0 g     F .rwtext.wifi	00000089 ampdu_dispatch_all
40151f34 g     F .text	0000001e bignum_get_unsigned_bin_len
40132ce8 g     F .text	0000002c ic_clear_interrupt_handler
4011ff64 g     F .text	00000024 ieee80211_scan_deattach
3ffd1298 g     O .bss	00000068 g_wifi_menuconfig
40155398 g     F .text	00000020 putle32
401373c4 g     F .text	000001f2 rcUpdateRate
400020e8 g     F *ABS*	00000031 .hidden __addsf3
3ffd0776 g     O .bss	00000002 rfpll_offset_delta
4011768c g     F .text	00000084 nan_dp_alloc_ndl
4013c4b0 g     F .text	000001b2 hostap_init
4008943c g     F .rwtext.wifi	00000025 ram_tx_pwctrl_bg_init
3ff80000 g       *ABS*	00000000 _rtc_fast_data_end
40137d78 g     F .text	00000088 wdev_process_misc_pkt
4011bd0c g     F .text	0000004b wifi_nvs_validate_ap_chan
4010b6b0 g     F .text	0000003c esp_wifi_set_mode
400833a8 g     F .rwtext.wifi	000001db ppTxPkt
40132de4 g     F .text	0000000b ic_set_sta_auth_flag
4011f008 g     F .text	00000037 ieee80211_pm_tx_null_process
4014e8f4 g     F .text	0000006f pmksa_cache_set_current
40128e50 g     F .text	0000011c mgd_probe_send_timeout_process
40082e00 g     F .rwtext.wifi	00000023 ppResumeTxAMPDU
4013c464 g     F .text	00000031 esp_supplicant_common_init
4012af9c g     F .text	00000010 phy_change_channel_nomac
401128c4 g     F .text	00000025 ieee80211_better_rsn_pairwise_cipher
401390c8 g     F .text	0000005e mac_rxbuf_init
40133c6c g     F .text	00000022 pm_is_sleeping
40101100 g     F .text	00000060 misc_nvs_deinit
4010bb44 g     F .text	000000ae esp_wifi_vnd_lora_enable
40089ab4 g     F .rwtext.wifi	00000087 wifi_track_pll_cap
400f958c g     F .text	00000000 GPIO_NMI
4013c8c0 g     F .text	00000016 tls_connection_get_random
4013772c g     F .text	0000001e rc_disable_trc_by_interface
4013bbb0 g     F .text	00000035 esp_eap_client_clear_certificate_and_key
401260a4 g     F .text	00000052 esp_wifi_sta_wpa2_ent_disable_internal
40135730 g     F .text	0000009c pm_set_sleep_type
4008c8a4 g     F .rwtext.wifi	000000ea lmacProcessTxSuccess
40132b90 g     F .text	000000a8 ic_set_trc
4013b2d0 g     F .text	00000065 os_mktime
40126210 g     F .text	0000001a ieee80211w_get_active_igtk_key_id
3ffb1f24 g     O .data	00000004 BcnInterval
40154f30 g     F .text	00000007 ieee80211_setup_rateset
400f958c g     F .text	00000000 TWAI0
401412bc g     F .text	00000123 x509_certificate_chain_validate
4013a0a4 g     F .text	0000002b hal_sniffer_rx_clr_statistics
3ffd0664 g     O .bss	00000004 s_netstack_free
401301dc g     F .text	000000d0 ram_txiq_get_mis_pwr
40147a4c g     F .text	00000048 wpa_add_kde
40119944 g     F .text	00000126 nan_master_event_hdlr
40138ce8 g     F .text	00000035 hal_crypto_init
40122930 g     F .text	0000000d wifi_sta_reg_rxcb
40125a0c g     F .text	00000014 ieee80211_sta_is_connected
4008803c g     F .rwtext.wifi	00000029 pp_hdrsize
40132e30 g     F .text	00000016 ic_stop_sw_txq
40147f34 g     F .text	00000025 ap_get_sta
4014e4fc g     F .text	00000028 eap_fast_derive_key
400f958c g     F .text	00000000 TG1_T1_EDGE
400860f4 g     F .rwtext.wifi	00000054 pm_sleep_for
3ffd0786 g     O .bss	00000001 corr_cca_thr
40147f5c g     F .text	00000073 ap_free_sta
4011fa14 g     F .text	00000160 ieee80211_regdomain_update
401255cc g     F .text	00000046 esp_wifi_sta_disable_owe_trans_internal
401413fc g     F .text	0000001a x509_certificate_self_signed
400f958c g     F .text	00000000 SDIO_HOST
40152aec g     F .text	0000004a challenge_response
4014905c g     F .text	0000001b eap_peer_method_alloc
400879cc g     F .rwtext.wifi	00000010 hal_mac_rx_is_dscr_reload
40086e28 g     F .rwtext.wifi	00000020 pm_coex_schm_overall_period_get
4013ca60 g     F .text	0000001a tls_get_version
4010e270 g     F .text	00000fae hostap_recv_mgmt
40152ba4 g     F .text	0000007d generate_authenticator_response_pwhash
4015593c g     F .text	000000a9 rc4_skip
4010bf18 g     F .text	00000049 esp_mesh_get_running_active_duty_cycle
4014053c g     F .text	000000f3 x509_parse_time
3ffd37dc g       *ABS*	00000000 _stack_end_cpu0
40085f78 g     F .rwtext.wifi	00000138 esf_buf_alloc
400819d8 g     F .rwtext	00000000 __exception
40120224 g     F .text	0000002d scan_remove_probe_ssid
40132b20 g     F .text	0000000d ic_del_key_all
4011327c g     F .text	00000027 ieee80211_is_ht_cipher
4013b338 g     F .text	0000001c os_memdup
4011a230 g     F .text	00000013 nan_ndc_start_process
40155c28 g     F .text	0000005a wpa_cipher_put_suites
40154ce4 g     F .text	00000035 printf
40149f0c g     F .text	0000003b eap_peer_mschapv2_register
4013c1b4 g     F .text	0000009f esp_supplicant_init
40116424 g     F .text	00000013 nan_disc_enable_rx
4013c710 g     F .text	0000005b esp_send_assoc_resp
40148504 g     F .text	0000004a rsn_pmkid
3ffd0672 g     O .bss	00000002 scannum
40139500 g     F .text	00000059 hal_deinit
400f958c g     F .text	00000000 RSA
40139560 g     F .text	00000066 hal_mac_set_addr
401402ec g     F .text	0000023c x509_parse_name
400885d4 g     F .rwtext.wifi	000001ce ram_spur_coef_cfg
4011b824 g     F .text	0000000a wifi_nvs_get
4008a1d8 g     F .rwtext.wifi	0000005d enable_wifi_agc
4012b208 g     F .text	00000096 ram_rfpll_set_freq
4012588c g     F .text	0000002c ieee80211_get_spp
4011f304 g     F .text	00000019 ieee80211_psq_init
3ffb1702 g     O .data	00000001 phy_bt_pll_track_en
4014f354 g     F .text	00000062 wpa_sm_set_key
3ffd0bfc g     O .bss	00000004 g_wpa_private_key
3ffd0a80 g     O .bss	00000004 g_wdev_is_nan_pkt_in_valid_slot_cb
3ffd0789 g     O .bss	00000001 re_entry
401128f8 g     F .text	000000b6 ieee80211_amsdu_negotiate
4000c830 g     F *ABS*	00000035 .hidden __ashrdi3
4015210c g     F .text	000000a9 pkcs1_encrypt
400847e4 g     F .rwtext.wifi	0000004f hal_mac_tx_get_blockack
4013b3e4 g     F .text	00000036 esp_wifi_sta_enterprise_disable
40145eb0 g     F .text	0000005a eloop_destroy
401229c8 g     F .text	0000009c ieee80211_parse_wmeparams
401159ec g     F .text	00000477 wifi_set_config_process
40125c7c g     F .text	00000028 wifi_init_key
400ffc7c g     F .text	0000004f fwrite
40136e64 g     F .text	00000072 rcTxUpdatePer
4008a180 g     F .rwtext.wifi	00000056 disable_wifi_agc
4013e998 g     F .text	0000001e tls_server_key_exchange_allowed
40134428 g     F .text	00000238 pm_set_next_tbtt
401267bc g     F .text	00000030 ieee80211_register_hostap_timer
40154dcc g     F .text	00000005 ieee80211_crypto_attach
40126990 g     F .text	00000050 chm_mhz2num
401246d0 g     F .text	0000006a sta_sa_query_process_timeout
4011289c g     F .text	00000026 ieee80211_rsn_cipher_priority
4011c674 g     F .text	00000152 ieee80211_tx_mgt_cb
4010a9c4 g     F .text	00000045 Reset
401555c0 g     F .text	0000002c wDev_RxSecError
40127024 g     F .text	0000000e cnx_handshake_timeout
4011ed08 g     F .text	000001ee ieee80211_beacon_alloc
4008ce44 g     F .rwtext.wifi	00000142 ppProcTxDone
40120274 g     F .text	000001a9 scan_prefer_chan
4010d05c  w    F .text	00000049 ieee80211_free_beacon_eb
40002cbc g       *ABS*	00000000 __addvdi3
4011c7dc g     F .text	00000166 ieee80211_classify
400fd930 g     F .text	00000150 ets_timer_setfn
4010be44 g     F .text	0000004a esp_wifi_set_inactive_time
40082c80 g     F .rwtext.wifi	00000068 ppProcTxCallback
3ffd0791 g     O .bss	00000001 phy_set_most_tpw_disbg
4012c5fc g     F .text	0000007e rf_init
40133744 g     F .text	000000b4 lmacProcessAckTimeout
401169b8 g     F .text	00000127 nan_alloc_sdf
3ffd0794 g     O .bss	00000001 sw_scan_mode
40132f28 g     F .text	0000003d lmacInitAc
3ffb14c0 g     O .data	00000004 g_scan
40144ea8 g     F .text	000000d7 pbkdf2_sha1
40152a9c g     F .text	00000034 nt_password_hash
4011a680 g     F .text	0000002f nan_send_replied_event
4013daf4 g     F .text	00000506 tlsv1_client_process_handshake
4013707c g     F .text	0000013c rssi_margin
3ffd073c g     O .bss	00000001 g_rssi_threshold_failure
4013b2b8 g     F .text	00000016 bin_clear_free
4011dcd4 g     F .text	000000a3 ieee80211_amsdu_send_check
401110f8 g     F .text	00000031 ieee80211_ht_updatehtcap
40084980 g     F .rwtext.wifi	0000001e wdev_bank_load
400020c0 g       *ABS*	00000000 __negsf2
3ffd077a g     O .bss	00000001 phy_force_wifi_chan_en
40130780 g     F .text	000002eb ram_pbus_rx_dco_cal
400feeac g     F .text	00000097 esp_fill_random
400f958c g     F .text	00000000 SPI2_DMA
40064b08 g     F *ABS*	00000060 .hidden __bswapdi2
401533dc g     F .text	000000aa sha1_t_prf
40139740 g     F .text	000000ba hal_init
400853f0 g     F .rwtext.wifi	000000ef esf_buf_recycle
3ffb0000 g       *ABS*	00000000 _sidata
3ffd0772 g     O .bss	00000001 btpwr_atten_offset
4011a1e0 g     F .text	00000013 nan_send_sync_bcn_process
4013ce04 g     F .text	0000002a tlsv1_client_encrypt
4012b6e4 g     F .text	00000096 write_freq_mem_all
4011cccc g     F .text	00000217 ieee80211_mgmt_output
40154ed0 g     F .text	00000048 ieee80211_is_support_rate
40129f30 g     F .text	000000c8 cnx_start_obss_scan
40154d80 g     F .text	0000004a ieee80211_is_robust_mgmt_frm
4012aeec g     F .text	0000003f ieee80211_getmgtframe
40110154 g     F .text	00000033 ampdu_free_rx_ba_index
4013a284 g     F .text	000000ad temprature_sens_read
40132d68 g     F .text	0000000d ic_set_bssid
4008bc70 g     F .rwtext.wifi	00000182 wDev_ProcessFiq
4013247c g     F .text	00000015 esf_buf_setdown
4008bea0 g     F .rwtext.wifi	0000001b hal_mac_interrupt_clr_watchdog
3ffd34e8 g     O .bss	00000011 phy_chan_pwr_index
400f958c g     F .text	00000000 UART1
401328d8 g     F .text	00000014 ic_register_timer_cb
40082e28 g     F .rwtext.wifi	00000023 ppCalSubFrameLength
40081964 g     F .rwtext	00000071 rtc_get_xtal
40149084 g     F .text	0000004a eap_peer_method_register
40131770 g     F .text	00000055 ram_meas_tone_pwr_db
401348f0 g     F .text	00000010 pm_coex_schm_process_restart
40080958 g     F .rwtext	00000000 __naked_level_3_interrupt
40126e9c g     F .text	0000003e chm_start_op
40132398 g     F .text	0000004a esf_buf_setup_static
40122dc4 g     F .text	00000082 wifi_station_stop
4013bd0c g     F .text	00000018 esp_eap_client_clear_password
40150d58 g     F .text	0000002e asn1_get_oid
4012c6a0 g     F .text	000001b3 set_chan_freq_sw_start
40145a08 g     F .text	0000010a sha512_done
400f958c g     F .text	00000000 UART0
4011a25c g     F .text	00000012 nan_sm_deinit
40134e84 g     F .text	000000d0 pm_coex_tbtt_process
4014c8c4 g     F .text	0000005c eap_peer_ttls_register
40116324 g     F .text	0000000b nan_get_random_byte
400015d4 g       *ABS*	00000000 strncpy
400f958c g     F .text	00000000 PCNT
40125428 g     F .text	0000000c esp_wifi_sta_get_prof_ssid_internal
3ffb1dc4 g     O .data	00000078 rcP2P11NSchedTbl
40111460 g     F .text	00000034 ieee80211_add_htcap_vendor
40136ae0 g     F .text	00000294 rcUpdatePhyMode
40140684 g     F .text	0000098b x509_certificate_parse
400849ac g     F .rwtext.wifi	0000005c ampdu_dispatch
4014d680 g     F .text	000000b1 eap_fast_save_pac_bin
4008a8c4 g     F .rwtext.wifi	00000046 get_target_power_offset
400638e4 g     F *ABS*	00000035 .hidden __powidf2
3f400120 g       *ABS*	00000000 _rodata_start
40080a98 g     F .rwtext	00000000 __naked_level_7_interrupt
400f958c g     F .text	00000000 TG0_T0_EDGE
40135de4 g     F .text	00000126 ppReSendBar
4008a788 g     F .rwtext.wifi	00000010 bt_tx_gain_cal_set
40113330 g     F .text	000000b2 ieee80211_parse_action
401152d4 g     F .text	00000055 wifi_disconnect_process
4008127c g     F .rwtext	00000173 __level_1_interrupt
3ffd47dc g       *ABS*	00000000 __stack_chk_guard
40145c28 g     F .text	00000048 eloop_init
40080908 g     F .rwtext	00000000 __default_naked_level_2_interrupt
4011a1cc g     F .text	00000013 nan_send_disc_bcn_process
40063868 g       *ABS*	00000000 __absvsi2
401155d0 g     F .text	0000003c wifi_wpa2_ent_disable_process
40114fec g     F .text	00000105 wifi_init_process
400895a8 g     F .rwtext.wifi	0000001a get_i2c_read_mask
401298d4 g     F .text	0000014e cnx_sta_associated
401283ec g     F .text	00000038 cnx_connect_next_ap
40125fdc g     F .text	00000052 esp_wifi_set_appie_internal
40149494 g     F .text	0000003b eap_peer_config_deinit
3ffb1ee4 g     O .data	00000018 rcLoRaSchedTbl
40120ce0 g     F .text	00000556 scan_profile_check
40137ac0 g     F .text	0000000a wDev_Reset_TBTT
40129548 g     F .text	000000c6 ic_set_sta
40133e44 g     F .text	0000004d pm_send_nullfunc
3ffd33e8 g     O .bss	0000000f chip7_phy_api_ctrl
40122830 g     F .text	000000af sta_eapol_txdone_cb
401216b8 g     F .text	0000001c scan_enter_oper_channel_process
40114ea8 g     F .text	0000000c wifi_crypto_init
401167e0 g     F .text	00000082 nan_transmit_bcn
4014919c g     F .text	00000155 eap_sm_build_nak
3ffd0780 g     O .bss	00000004 g_phyFuns
40082f44 g     F .rwtext.wifi	00000108 ppSearchTxframe
4012f018 g     F .text	00000176 rf_cal_data_backup
40155664 g     F .text	00000005 supplicant_sta_conn_handler
4011ebfc g     F .text	000000f4 ieee80211_send_deauth_no_bss
3ffb1f68 g       *ABS*	00000000 _data_end
40142b38 g     F .text	00000039 crypto_hash_update
4011ca54 g     F .text	0000001e ieee80211_add_assoc_req_ies
4008245c g     F .rwtext.wifi	0000001a chm_is_at_home_channel
40127730 g     F .text	00000066 cnx_obss_scan
40132e10 g     F .text	0000000f ic_trc_update_ifx_phy_mode
4011a784 g     F .text	00000078 nan_send_solicited_publish
4011787c g     F .text	00000051 nan_dp_confirm_peer
3ffd079c g     O .bss	00000002 phy_tx_power_out
40082bd4 g     F .rwtext.wifi	00000016 pp_process_hmac_waiting_txq
401259b8 g     F .text	0000004e esp_wifi_get_assoc_bssid_internal
4014129c g     F .text	0000001e x509_certificate_check_signature
3ffd0558 g     O .bss	00000004 ap_rxcb
40155e2c g     F .text	00000013 eap_get_type
4012db68 g     F .text	000001d7 wr_rx_gain_mem
40116884 g     F .text	00000126 nan_alloc_beacon
40155df8 g     F .text	0000001e eap_update_len
40125454 g     F .text	00000010 esp_wifi_ap_get_prof_pairwise_cipher_internal
401358cc g     F .text	0000000f pp_register_config_cb
4012a68c g     F .text	000000ea ieee80211_recv_action_vendor_spec
4013ecb4 g     F .text	000000f9 tls_verify_signature
40127a34 g     F .text	000000b2 cnx_bss_init
401338d0 g     F .text	00000094 lmacProcessTxError
4011a208 g     F .text	00000013 nan_faw_start_process
4013bf38 g     F .text	0000003e wpa_parse_wpa_ie_wrapper
4012b140 g     F .text	0000005e ram_restart_cal
400f958c g     F .text	00000000 TG1_WDT_LEVEL
40149798 g     F .text	00000090 eap_msg_alloc
400f958c g     F .text	00000000 EFUSE
3ffd0c48 g     O .bss	0000032c gWpaSm
4008c32c g     F .rwtext.wifi	00000188 sta_rx_eapol
4011c0e0 g     F .text	00000047 wifi_nvs_deinit
4010aa0c g     F .text	00000000 __zero_bss
40086a0c g     F .rwtext.wifi	00000046 pm_beacon_monitor_timeout_process
4010bdc8 g     F .text	00000033 esp_wifi_internal_on_coex_schm_phase
4012b438 g     F .text	0000006f rfpll_1p2_opt
40152238 g     F .text	00000162 pkcs8_key_import
40155440 g     F .text	00000005 dbg_lmac_init
400fa6b0 g     F .text	000000ce _embassy_time_schedule_wake
4013ec1c g     F .text	00000097 tls_key_x_server_params_hash
40143b14 g     F .text	0000010b hmac_md5_vector
40126aec g     F .text	0000000d chm_get_current_channel
400f958c g     F .text	00000000 RWBLE
4011cf9c g     F .text	00000478 ieee80211_assoc_req_construct
4013b024 g     F .text	00000026 hexstr2bin
3ffb120d g     O .data	00000001 g_phy_cap_rx_stbc
40133c9c g     F .text	00000060 pm_allow_tx
40131c34 g     F .text	000000d3 cal_rf_ana_gain
4008cd24 g     F .rwtext.wifi	0000005b pp_coex_tx_release
401553b8 g     F .text	00000050 ppCheckIsConnTraffic
3ffd065c g     O .bss	00000004 s_netstack_ref
4012578c g     F .text	0000000e esp_wifi_sta_get_pairwise_cipher_internal
400f958c g     F .text	00000000 WIFI_NMI
4010ae9c g     F .text	0000000a wifi_get_init_state
40125948 g     F .text	00000022 esp_wifi_unregister_wpa2_cb_internal
4010a99c g     F .text	00000000 __post_init
3ffd078b g     O .bss	00000001 phy_init_flag
40115178 g     F .text	00000106 wifi_stop_process
4015239c g     F .text	0000009f pkcs8_enc_key_import
3ffd0775 g     O .bss	00000001 btpwr_tsen_init
4014e4c4 g     F .text	00000037 eap_fast_derive_master_secret
4012afcc g     F .text	000000ca ram_pbus_force_mode
40155674 g     F .text	00000005 esp_set_scan_ie
40126ee0 g     F .text	00000045 chm_return_home_channel
40116cf0  w    F .text	000000b4 nan_start
401503d0 g     F .text	00000027 wpa_sm_deinit
4008a0c0 g     F .rwtext.wifi	00000059 ram_write_gain_mem
40127828 g     F .text	00000013 wl_clear_ap_no_lr
400819e8 g     F .rwtext	00000000 NMI
401277a8 g     F .text	0000004d cnx_obss_scan_timeout
40086404 g     F .rwtext.wifi	00000095 pm_get_tbtt_count
40133cfc g     F .text	00000013 pm_noise_check_disable
3ffd0bdc g     O .bss	00000004 g_wpa_new_password
4008a298 g     F .rwtext.wifi	000000f6 wr_bt_tx_gain_mem
40125834 g     F .text	0000003d ieee80211_set_gtk
4012fee8 g     F .text	000001af ram_txdc_cal_v70
40126474  w    F .text	0000002a ieee80211_ap_sa_query_timeout
3ffd3600 g     O .bss	000001d0 g_pm
40088854 g     F .rwtext.wifi	000000a6 tx_delay_cfg
400846a4 g     F .rwtext.wifi	00000078 wdev_mac_sleep
4013283c g     F .text	00000015 ic_register_tx_cb
400828b8 g     F .rwtext.wifi	00000014 lmacDiscardAgedMSDU
4000c818 g     F *ABS*	00000035 .hidden __ashldi3
40002ef8 g       *ABS*	00000000 __popcountdi2
40080a48 g     F .rwtext	00000000 __default_naked_level_6_interrupt
3ffd0be8 g     O .bss	00000004 g_wpa_ca_cert_len
3ffd33f8 g     O .bss	000000c4 chip7_sleep_params
4011a1ac g     F .text	0000000f nan_dw_start_process
4012552c g     F .text	00000042 esp_wifi_sta_disable_wpa2_authmode_internal
40122a90 g     F .text	0000021c sta_rx_csa
400808b4 g     F .rwtext	00000000 __default_naked_double_exception
40080840 g     F .rwtext	00000000 __naked_kernel_exception
4011fb74 g     F .text	00000012 ieee80211_regdomain_update_in_scan
40137e74 g     F .text	00000031 wdev_set_promis_ctrl_pkt
3ffe0000 g       *ABS*	00000000 _stack_start
40121b4c g     F .text	00000080 scan_validate_owe_scenarios
40149078 g     F .text	0000000a eap_peer_method_free
40117714 g     F .text	000000e7 nan_dp_delete_peer
4012765c g     F .text	0000005c _cnx_start_connect_without_scan
40155fe0 g     F .text	00000062 cipher_type_map_supp_to_public
40135110 g     F .text	0000005a pm_disconnected_start
40125614 g     F .text	0000001c esp_wifi_ap_is_sta_sae_reauth_node
4013bb2c g     F .text	0000003a esp_wifi_sta_enterprise_enable
4014d370 g     F .text	00000042 eap_fast_pac_list_truncate
4012b2a8 g     F .text	0000005c get_lna_vga_dcap_val
40127fa0 g     F .text	0000008a cnx_add_rc
40087f78 g     F .rwtext.wifi	00000082 pp_timer_do_process
4013d308 g     F .text	00000010 tlsv1_client_set_flags
3ffb17f4 g     O .data	00000030 lmacConfMib
4011c05c g     F .text	0000000d wifi_nvs_get_sta_listen_interval
401189bc g     F .text	0000005a nan_dp_indicate_faw_start
4010d850 g     F .text	0000000d wifi_ap_reg_rxcb
4015247c g     F .text	0000000c crypto_rsa_get_modulus_len
40118174 g     F .text	0000002c nan_dp_parse_ndca
4012fab8 g     F .text	00000056 phy_enable_low_rate
3ffd2174 g     O .bss	00000010 app_scan_params
4011ef00 g     F .text	00000107 ieee80211_encap_null_data
40125874 g     F .text	00000018 ieee80211_get_ptk
40143a68 g     F .text	00000076 MD5Final
4013caec g     F .text	00000024 tls_derive_pre_master_secret
4013c190 g     F .text	00000019 wpa_config_assoc_ie
40133ef4 g     F .text	0000007e pm_disconnected_sleep
50000000 g       *ABS*	00000000 _rtc_slow_bss_end
40126440  w    F .text	0000002a ieee80211_ap_try_sa_query
40154e6c g     F .text	00000021 addba_timeout_process
40123e00 g     F .text	0000017b sta_auth_sae
40125a88 g     F .text	00000174 wifi_set_rx_policy
40080908 g     F .rwtext	00000000 __naked_level_2_interrupt
401306c0 g     F .text	00000034 ram_iq_est_disable
4008bf2c g     F .rwtext.wifi	0000005e ieee80211_alloc_tx_buf
3ffb120e g     O .data	00000001 g_mesh_self_organized
4012ab08 g     F .text	000000e6 ieee80211_ccmp_encrypt
3ffd073e g     O .bss	00000001 g_authmode_incompatible
3ffd0bd0 g     O .bss	00000004 g_wpa_phase1_options
4011e294 g     F .text	00000188 ieee80211_output_raw_process
4013eba0 g     F .text	00000030 tls_prf
3ffd0f74 g     O .bss	00000004 net80211_funcs
40131160 g     F .text	0000029a rc_cal
40134660 g     F .text	00000062 pm_mesh_set_next_tbtt
40150d88 g     F .text	00000047 asn1_oid_to_str
400809a8 g     F .rwtext	00000000 __naked_level_4_interrupt
40002b30 g     F *ABS*	00000081 .hidden __fixunsdfsi
401525dc g     F .text	00000088 crypto_rsa_import_public_key
40127034 g     F .text	00000010 cnx_csa_fn
40148864 g     F .text	00000087 ccmp_decrypt
4010c63c g     F .text	000000d0 wifi_create_sta
4008622c g     F .rwtext.wifi	000001aa pm_parse_beacon
401328c4 g     F .text	00000014 ic_register_net80211_tx_cb
400ffd04 g     F .text	00000044 fgets
4012d2ac g     F .text	0000033b set_rx_gain_cal_iq
40130128 g     F .text	0000009d ram_get_fm_sar_dout
4012ce5c g     F .text	0000003e ram_phy_get_noisefloor
4013d240 g     F .text	00000082 tlsv1_client_hello_ext
40125630 g     F .text	00000015 esp_wifi_sta_is_ap_notify_completed_rsne_internal
401480fc g     F .text	0000002c wpa_parse_wpa_ie_rsnxe
3ffd0c0c g     O .bss	00000004 g_wpa_username
4014e898 g     F .text	00000059 pmksa_cache_get_opportunistic
40155d5c g     F .text	00000008 eap_get_config
40122ef4 g     F .text	0000000e sta_is_wifi_ent_enabled
40155b04 g     F .text	00000022 wpa_cipher_valid_mgmt_group
4011c134 g     F .text	00000069 wifi_nvs_init
4011f394  w    F .text	0000007f ieee80211_set_tim
40112794 g     F .text	00000104 ieee80211_parse_wpa
401198f4 g     F .text	0000004e nan_schedule_disc_bcn
400802c0 g     F .vectors	00000000 _Level7InterruptVector
4008aca8 g     F .rwtext.wifi	0000002a ram_read_sar_dout
40084b30 g     F .rwtext.wifi	000000d3 ampdu_dispatch_upto
401471c4 g     F .text	00000067 wpa_auth_sta_associated
401415e4 g     F .text	00000418 aes_decrypt
4012a93c g     F .text	000001c5 ieee80211_ccmp_decrypt
401315f8 g     F .text	00000178 tx_cap_init
40139d30 g     F .text	00000053 hal_mac_clr_txq_state
40111624 g     F .text	00000052 ieee80211_add_htinfo_vendor
40144dc4 g     F .text	000000b0 SHA1Final
40116318 g     F .text	0000000a nan_get_random_word
40148eac g     F .text	00000083 tls_prf_sha256
400fa644 g     F .text	0000006a _embassy_time_now
40101408 g     F .text	00000025 phy_printf
40080c08 g     F .rwtext	0000002d __level_6_interrupt
40081bd4 g     F .rwtext.wifi	00000060 nan_dp_search_node
4014f1c8 g     F .text	00000064 wpa_set_profile
40134fd8 g     F .text	00000008 pm_on_coex_schm_process_restart
40008534 g       *ABS*	00000000 ets_delay_us
3ffd0aac g     O .bss	00000004 wifi_funcs
4000c7b0 g       *ABS*	00000000 __mulsi3
4013c430 g     F .text	00000017 esp_supplicant_unset_all_appie
4000240c g     F *ABS*	0000002f .hidden __fixsfsi
40138598 g     F .text	0000000d wDev_is_low_rate_enable
3ffd1220 g     O .bss	00000074 wpa_crypto_funcs
4011fc2c g     F .text	00000018 ieee80211_regdomain_ap_max_chan
40087a78 g     F .rwtext.wifi	00000126 pm_update_by_connectionless_status
401369ec g     F .text	00000042 rcGetHighestRateIdx
40116ff0 g     F .text	00000066 nan_sched_get_chan_bitmap
4008bb40 g     F .rwtext.wifi	0000000e wdev_record_rx_linked_list
40125444 g     F .text	00000010 esp_wifi_ap_get_max_sta_conn
4008a90c g     F .rwtext.wifi	00000034 ram_txbbgain_to_index
40086650 g     F .rwtext.wifi	00000136 pm_dream
400860dc g     F .rwtext.wifi	00000012 pm_is_waked
401324b8 g     F .text	0000017f esf_buf_setup
4011497c g     F .text	00000028 wifi_stop_sw_txq
401150f4 g     F .text	0000000a wifi_deinit_process
40112a84 g     F .text	000007f8 ieee80211_parse_rsn
4008bb54 g     F .rwtext.wifi	00000065 wdev_push_promis_misc_buf
40113cf0 g     F .text	00000062 wifi_station_save_ap_channel
3ffd0bc4 g     O .bss	00000001 g_wpa_default_cert_bundle
40137b18 g     F .text	0000006a wdev_csi_hw_bug_check
4010bbf4 g     F .text	00000045 esp_wifi_vnd_lora_disable
3f411a44 g     O .rodata	0000000a rcons
40126890 g     F .text	000000a0 ieee80211_timer_process
400f958c g     F .text	00000000 TG0_LACT_LEVEL
40136540 g     F .text	00000068 pp_stop_sw_txq
4013c900 g     F .text	00000054 tls_connection_get_eap_fast_key
4000c7c0 g     F *ABS*	0000003b .hidden __modsi3
3ffd076d g     O .bss	00000001 bt_pwr_freq_old
40080380 g     F .vectors	00000000 _DoubleExceptionVector
40148f30 g     F .text	0000001d eap_peer_get_eap_method
4008abe0 g     F .rwtext.wifi	00000084 force_txrx_off
4013c6cc g     F .text	00000041 esp_wifi_build_rsnxe
4011bcb8 g     F .text	00000054 wifi_nvs_validate_country
40152ad0 g     F .text	0000001c hash_nt_password_hash
401360b8 g     F .text	00000036 pp_deattach
3ffb1f74 g     O .data.wifi	00000001 g_mesh_is_root
4011c4c8 g     F .text	00000029 ieee80211_amsdu_length_check
40148128 g     F .text	0000019d wpa_parse_wpa_ie_rsn
40155b9c g     F .text	0000002e wpa_cipher_valid_pairwise
401377ac g     F .text	000000d4 trc_init
40155634 g     F .text	00000005 __hide_aliasing_typecast
4013beb8 g     F .text	00000021 wpa_attach
40139ce4 g     F .text	0000003d hal_mac_get_txq_state
4013c9c8 g     F .text	00000037 tls_connection_encrypt
40001778 g       *ABS*	00000000 close
40002f3c g       *ABS*	00000000 __paritysi2
40136ff8 g     F .text	00000080 rcGetAmpduSched
401139ec g     F .text	0000001f current_task_is_wifi_task
4010c91c g     F .text	00000099 ieee80211_crypto_decap
4000c1f4 g       *ABS*	00000000 bzero
40132350 g     F .text	00000019 esf_buf_alloc_default_handler
4010de78 g     F .text	00000160 wifi_softap_stop
40130098 g     F .text	0000005b txcal_debuge_mode
4010bb0c g     F .text	00000037 wifi_mesh_event_post
4008ab78 g     F .rwtext.wifi	00000065 get_phy_target_power
4011c3f0 g     F .text	000000d7 ieee80211_amsdu_adjust_head
4011dc40 g     F .text	00000019 ieee80211_output
401181a4 g     F .text	000000f6 nan_sched_parse_avail_entries
40125658 g     F .text	0000000d wifi_sta_get_prof_password
40137eb0 g     F .text	00000066 wdev_set_promis
40154dd4 g     F .text	0000002a ieee80211_get_cipher_mic_len
4014847c g     F .text	00000054 wpa_eapol_key_mic
400f958c g     F .text	00000000 TG0_T1_LEVEL
4014671c g     F .text	00000314 __wpa_send_eapol
4008bbc0 g     F .rwtext.wifi	0000007b wdev_process_panic_watchdog
400021d0 g     F *ABS*	00000038 .hidden __subsf3
3ffd09a8 g     O .bss	00000004 s_fix_rate_mask
40132904 g     F .text	0000000a ic_disable_sniffer
4010b778 g     F .text	0000016f esp_wifi_stop
401336f0 g     F .text	00000044 lmacProcessCollisions_task
40082cec g     F .rwtext.wifi	00000114 pp_coex_tx_request
3ffd08f0 g     O .bss	000000b4 g_lmac_cnt
40136a64 g     F .text	00000033 rcClearCurAMPDUSched
4010b4e0 g     F .text	000000ea esp_wifi_init_internal
40110678 g     F .text	00000012 ieee80211_ampdu_enable
4012a468 g     F .text	0000005f ieee80211_send_action_register
40155408 g     F .text	00000005 ppSetInterface
40116368 g     F .text	0000001e nan_is_in_dw
40116e2c g     F .text	0000009c nan_set_config_local
400645a4 g       *ABS*	00000000 __divdc3
3ff96544 g       *ABS*	00000000 __nsau_data
401257ac g     F .text	00000018 ieee80211_get_key
40111c24 g     F .text	000001bf ieee80211_decap
40087998 g     F .rwtext.wifi	0000001d hal_mac_init
40132330 g     F .text	00000019 esf_buf_alloc_dynamic_default_handler
4014f32c g     F .text	00000027 set_assoc_ie
40115674 g     F .text	0000017b ieee80211_set_appie
4006340c g     F *ABS*	00000049 .hidden __gesf2
4008065c g     F .rwtext	00000000 save_context
401431f0 g     F .text	0000004e des3_key_setup
40132650 g     F .text	00000014 ic_get_ptk_alg
400fd770 g     F .text	000001c0 ets_timer_done
401257c4 g     F .text	0000003c ieee80211_set_key
400f958c g     F .text	00000000 RWBT_NMI
40117ebc g     F .text	000000b5 nan_dp_parse_ndpa
40088274 g     F .rwtext.wifi	000002a7 phy_i2c_init
40155d84 g     F .text	00000019 eap_get_config_password2
40085b30 g     F .rwtext.wifi	000002da wDev_IndicateAmpdu
40131f38 g     F .text	000001da bt_tx_pwctrl_init
4011bc74 g     F .text	00000041 wifi_nvs_validate_sta_password
3ffb1729 g     O .data	00000001 wifi_txband
3ffd0773 g     O .bss	00000001 btpwr_tsen_flag
4012b77c g     F .text	00000036 get_rfrx_dcap_bt
3f411b50 g     O .rodata	00000400 Td0
40142964 g     F .text	000001d4 crypto_hash_init
4013b430 g     F .text	00000097 wpa2_post
4011f6e0 g     F .text	00000037 ieee80211_pwrsave_node_cleanup
4015609c g     F .text	00000016 wpa_supplicant_gtk_tx_bit_workaround
4010b71c g     F .text	00000034 esp_wifi_start
4000681c g       *ABS*	00000000 intr_matrix_set
40145d68 g     F .text	00000058 eloop_cancel_timeout
400f958c g     F .text	00000000 ETH_MAC
4011c99c g     F .text	00000056 ieee80211_add_xrates
40142b74 g     F .text	000001eb crypto_hash_finish
4012884c g     F .text	00000024 cnx_assoc_timeout_process
4013b744 g     F .text	00000046 eap_sm_send_eapol
4013980c g     F .text	000000be hal_mac_tsf_get_time
400f958c g     F .text	00000000 TG0_WDT_EDGE
40137944 g     F .text	00000075 rc_set_per_conn_fix_rate
4008c1f0 g     F .rwtext.wifi	00000019 esp_wifi_internal_tx
400f958c g     F .text	00000000 TG0_WDT_LEVEL
4014e82c g     F .text	0000002e pmksa_cache_deinit
400637f4 g     F *ABS*	00000069 .hidden __unorddf2
3ffb13cc g     O .data	000000e6 country_info_24ghz
3ffb0e38 g     O .data	00000004 WIFI_EVENT
40131e90 g     F .text	00000098 tx_pwctrl_init
4011f508 g     F .text	00000035 ieee80211_psq_is_buff_pkt
400fee04 g     F .text	000000a6 calloc
4011f324 g     F .text	0000003a ieee80211_gpsq_init
4014964c g     F .text	0000003a eap_peer_blob_deinit
4014b3f4 g     F .text	0000002c eap_peer_tls_status
4008be00 g     F .rwtext.wifi	00000076 wdev_dump_rx_linked_list
4013a0f4 g     F .text	0000001b hal_disable_sta_tsf
4012e7b4 g     F .text	000000d8 txiq_cal_init
3ffd0795 g     O .bss	00000001 force_tx_gain_en
40132d14 g     F .text	0000001b ic_enable_rx
40145f84 g     F .text	0000001b hostapd_config_clear_wpa_psk
4011a738 g     F .text	00000047 nan_send_static_sdfs
4010d63c g     F .text	0000009e hostap_deliver_data
4011acb0 g     F .text	000000ce nan_update_static_sdfs
401360f0 g     F .text	00000062 ppInitTxq
4011749c g     F .text	000000c8 nan_dp_alloc_node
40133968 g     F .text	00000018 lmacRxDone
401551c8 g     F .text	0000001b cnx_rc_update_age
3ffb0e60 g     O .data	00000008 g_wifi_feature_caps
400f958c g     F .text	00000000 BT_BB_NMI
401395d8 g     F .text	00000093 hal_mac_set_bssid
4013e164 g     F .text	000001d7 tls_send_client_hello
400f958c g     F .text	00000000 WIFI_BB
40135c30 g     F .text	00000035 ppDequeueTxQ
4008ce0c g     F .rwtext.wifi	00000025 ppDequeueTxDone_Locked
40138328 g     F .text	0000005d wDev_Rxbuf_Deinit
40088dd8 g     F .rwtext.wifi	0000006a mac_enable_bb
40084918 g     F .rwtext.wifi	0000001c ppSubFromAMPDU
3ffb1f68 g     O .data.wifi	00000004 g_wifi_mac_time_delta
40132854 g     F .text	00000012 ic_register_rx_cb
3ffb170c g     O .data	00000001 wifi_bbgain_max
40136204 g     F .text	00000077 pp_delete_task
4013f1cc g     F .text	0000012d tlsv1_record_send
40128cb4 g     F .text	00000072 cnx_rc_update_state_metric
4008ac68 g     F .rwtext.wifi	0000003b phy_pwdet_onetime_en
401106a4 g     F .text	00000150 ieee80211_ampdu_request
3ffd0510 g     O .bss	00000001 s_wifi_stop_in_progress
3ffd0797 g     O .bss	00000001 phy_dis_pwdet_one
3ffd0a78 g     O .bss	00000004 g_wdev_csi_rx_ctx
40136df0 g     F .text	0000006e rcUpSched
3f4102ce g     O .rodata	00000004 NAN_STANDARD_OUI
40080340 g     F .vectors	00000000 _UserExceptionVector
4006358c g     F *ABS*	00000037 .hidden __muldf3
4012a420 g     F .text	00000037 offchan_send_action_tx_status
4014b7d0 g     F .text	0000003b eap_peer_tls_encrypt
40155774 g     F .text	00000026 tlsv1_client_set_cb
40132d78 g     F .text	0000000c ic_set_current_channel
4011cb20 g     F .text	00000034 ieee80211_add_csa
4008a628  w    F .rwtext.wifi	00000029 set_xpd_sar
401356a0 g     F .text	00000085 pm_deattach
4012fb94 g     F .text	00000321 phy_dig_reg_backup
4011720c g     F .text	000000ac nan_sched_add_entry
40132d58 g     F .text	0000000d ic_set_mac
401466ec g     F .text	00000030 wpa_auth_sta_deinit
4008cf88 g     F .rwtext.wifi	00000087 ppGetTxframe
4011cc0c g     F .text	00000018 ieee80211_vnd_lora_ie_size
40114954 g     F .text	00000024 wifi_txq_empty
4014b420 g     F .text	000000bb eap_peer_tls_process_init
40089e8c g     F .rwtext.wifi	00000030 get_i2c_write_data
40150064 g     F .text	00000026 wpa_sta_in_4way_handshake
40080080 g     F .vectors	00000000 _WindowOverflow8
40089284 g     F .rwtext.wifi	00000057 i2c_master_reset
400f958c g     F .text	00000000 MCPWM0
40064bec g       *ABS*	00000000 __udiv_w_sdiv
40132b68 g     F .text	0000001d ic_ampdu_op
400f958c g     F .text	00000000 MCPWM2
400f958c g     F .text	00000000 FROM_CPU_INTR2
4013ca98 g     F .text	0000001a tls_connection_client_hello_ext
40133d64 g     F .text	00000024 pm_disable_disconnected_sleep_delay_timer
400017dc g       *ABS*	00000000 read
40136a34 g     F .text	0000002d rcClearCurSched
400f958c g     F .text	00000000 MCPWM1
3ffd0a04 g     O .bss	00000004 BcnSendTick
4014eab4 g     F .text	000000a3 wpa_eapol_key_send
400f958c g     F .text	00000000 FROM_CPU_INTR1
40080240 g     F .vectors	00000000 _Level5InterruptVector
3ffd0670 g     O .bss	00000001 connect_scan_flag
40142938 g     F .text	0000000a crypto_public_key_free
4011ab1c g     F .text	000000b9 nan_rx_sdf
40080000 g     F .vectors	00000000 _WindowOverflow4
4014ad4c g     F .text	0000005c eap_peer_peap_register
3ffb20b8 g     O .data.wifi	00000084 s_record_list
401339f0 g     F .text	0000003e lmacProcessTxTimeout
4010d894 g     F .text	00000155 hostap_auth_open
50000000 g       *ABS*	00000000 _rtc_slow_persistent_end
4013c804 g     F .text	00000014 tls_connection_deinit
4014b114 g     F .text	000001ec eap_peer_tls_ssl_init
4011f540  w    F .text	0000006e ieee80211_pwrsave
4011f458 g     F .text	0000004f ieee80211_psq_drop_one_pkt
4013cff8 g     F .text	000000b0 tlsv1_client_prf
401328f8 g     F .text	0000000a ic_enable_sniffer
4011bd78 g     F .text	0000001c wifi_nvs_validate_sta_listen_interval
4000c7b8 g     F *ABS*	00000031 .hidden __divsi3
4014ee10 g     F .text	0000002a wpa_supplicant_key_neg_complete
40126a08 g     F .text	0000001c chm_release_lock
40125418 g     F .text	0000000f esp_wifi_ap_get_prof_ap_ssid_internal
4011a280 g     F .text	00000013 nan_sm_stop
401149b8 g     F .text	000000f4 wifi_hw_stop
3ffd064c g     O .bss	00000004 g_mesh_topology
401413e0 g     F .text	0000001c x509_certificate_get_subject
400f958c g     F .text	00000000 CACHE_IA
4011f04c g     F .text	0000005b ieee80211_phy_type_get
40128bb8 g     F .text	00000088 cnx_remove_rc_except
4011a18c g     F .text	0000000f nan_warmup_timeout_process
40118958 g     F .text	00000064 nan_dp_indicate_ndc_start
40081848 g     F .rwtext	0000002a esp_dport_access_reg_read
4012a66c g     F .text	00000018 get_iav_key
40115580 g     F .text	0000000b wifi_wpa2_is_started
40132d4c g     F .text	0000000a ic_set_beacon_int
40151fe8 g     F .text	00000056 bignum_set_unsigned_bin
4011f360 g     F .text	00000033 ieee80211_psq_find_max_bss
4012c024 g     F .text	00000448 bt_get_i2c_data
40117b30 g     F .text	000002d2 nan_construct_ndp_resp
40147638 g     F .text	000000c5 wpa_ap_join
40083f7c g     F .rwtext.wifi	00000097 ppProcessLifeTime
40116460 g     F .text	00000076 nan_set_trc
40115e70 g     F .text	000000f6 wifi_ap_remove_sta_node_process
4014e544 g     F .text	0000001d eap_fast_derive_eap_emsk
40155410 g     F .text	0000002d pp_gettid
4014e964 g     F .text	0000001e pmksa_cache_init
40132b30 g     F .text	00000020 ic_del_key
400f958c g     F .text	00000000 MCPWM3
4011c06c g     F .text	00000072 wifi_nvs_reset_current_ap_info
40115590 g     F .text	0000003c wifi_wpa2_ent_enable_process
401461f8 g     F .text	0000001a resend_eapol_handle
4008d204 g     F .rwtext.wifi	0000008b ppAssembleAMPDU
401358b8 g     F .text	0000000f pp_register_net80211_tx_cb
4015572c g     F .text	0000003a tlsv1_client_set_cipher_list
40122f04 g     F .text	0000000f sta_get_owe_data
4008a398 g     F .rwtext.wifi	000000c6 set_tx_gain_table
3ffd0c04 g     O .bss	00000004 g_wpa_client_cert
40126338 g     F .text	0000002e esp_wifi_sta_connect_internal
400f958c g     F .text	00000000 FROM_CPU_INTR3
00000000 g       *ABS*	00000000 RESERVE_DRAM
4013bc74 g     F .text	00000042 esp_eap_client_set_username
401290f8 g     F .text	00000031 cnx_sta_pm
40139bac g     F .text	0000012d mac_tx_set_htsig
40127f00 g     F .text	0000009c cnx_do_handoff_internal
400f958c g     F .text	00000000 FROM_CPU_INTR0
4008aee0 g     F .rwtext.wifi	00000059 write_wifi_dig_gain
4013c0b0 g     F .text	0000001d wpa_get_key
3ffb2094 g     O .data.wifi	0000001e pp_sig_cnt
4013eeec g     F .text	000000ba tlsv1_set_ca_cert
401218d0 g     F .text	00000127 scan_start
401557b8 g     F .text	00000014 tls_version_ok
401256e0 g     F .text	0000002b esp_wifi_sta_prof_is_wpa_internal
4012008c g     F .text	00000060 scan_flush_all_tx_buf
40132ed8 g     F .text	0000004d lmacSetAcParam
40135818 g     F .text	00000033 pm_coex_set_reconnect_policy
40117060 g     F .text	00000110 nan_sched_allocate_crbs
3ffb2000 g     O .data.wifi	00000004 xphyQueue
4012e0d4 g     F .text	000002a0 set_rx_sense
4014b3d4 g     F .text	0000001e eap_peer_tls_build_ack
40145b54 g     F .text	0000001d os_get_time
400819e8 g     F .rwtext	0000003e __default_user_exception
4014b570 g     F .text	00000010 eap_peer_tls_reset_output
3ffd0c18 g     O .bss	00000030 assoc_ie_buf
4014f22c g     F .text	00000056 wpa_set_pmk
40155364 g     F .text	00000005 pm_noise_check_process
40085640 g     F .rwtext.wifi	00000402 ppRxFragmentProc
40136954 g     F .text	0000005c rcGet11GHighestRateIdx
401387e0 g     F .text	0000007e hal_agreement_clr_rx_ba
40132370 g     F .text	0000001a esf_buf_recycle_default_handler
4008cdb4 g     F .rwtext.wifi	00000057 ppEnqueueTxDone
4014029c g     F .text	0000004f x509_parse_algorithm_identifier
4008459c g     F .rwtext.wifi	00000014 wdev_mac_special_reg_load
4010b9e0 g     F .text	00000040 esp_wifi_set_ps
3ffd0650 g     O .bss	00000004 ndp_rxcb
40125710 g     F .text	00000029 esp_wifi_sta_prof_is_wpa2_internal
4010b5e0 g     F .text	000000cc esp_wifi_deinit_internal
4011a150 g     F .text	0000002b nan_sm_handle_event_internal
401306f4 g     F .text	00000076 ram_dc_iq_est
4013830c g     F .text	00000016 wDev_isNANPktInValidSlot
40154fa8 g     F .text	0000005e nan_dp_construct_device_caps
4012b4ac g     F .text	000000a3 get_rf_freq_cap
3ffd0bc8 g     O .bss	00000004 g_wpa_pac_file_len
4008694c g     F .rwtext.wifi	0000003a pm_check_state
40150964 g     F .text	00000016 base64_decode
3ffd078a g     O .bss	00000001 force_hw_set_freq_flag
40147ebc g     F .text	0000005c pmksa_cache_auth_get
40134aa0 g     F .text	0000019c pm_tx_null_data_done_process
401201bc g     F .text	00000066 scan_add_probe_ssid
40111678 g     F .text	00000021 ht_action_output
3ffd0774 g     O .bss	00000001 btpwr_tsen_old
4010db38 g     F .text	0000033a wifi_softap_start
4011a6b0 g     F .text	0000005c nan_send_receive_event
4008a948 g     F .rwtext.wifi	00000081 ram_set_chan_cal_interp
4013cf60 g     F .text	00000049 tlsv1_client_init
40082200 g     F .rwtext.wifi	00000258 ieee80211_output_process
40063820 g       *ABS*	00000000 __cmpdi2
40147a94 g     F .text	0000020c wpa_validate_wpa_ie
40155b70 g     F .text	0000002a wpa_cipher_to_alg
400848d8 g     F .rwtext.wifi	0000001e ieee80211_is_tx_allowed
40133e98 g     F .text	0000000b pm_mac_wakeup
40121a4c g     F .text	0000006d scan_parse_ht2040_coex
40118814 g     F .text	0000002f nan_naf_txcb
400f958c g     F .text	00000022 EspDefaultHandler
40145204 g     F .text	00000035 sha256_init
40082e54 g     F .rwtext.wifi	000000ee ppSearchTxQueue
40132e20 g     F .text	0000000a ic_stop_hw_txq
40126a74 g     F .text	00000040 chm_cancel_op
40131a18 g     F .text	0000020d ram_tx_pwr_backoff
40132874 g     F .text	0000000c ic_register_michael_mic_failure_cb
4010c450 g     F .text	0000006a wifi_destroy_sta
400f958c g     F .text	00000000 SPI3
40132f70 g     F .text	00000098 lmacInit
4013c0d0 g     F .text	0000000b wpa_deauthenticate
401496fc g     F .text	00000099 eap_hdr_validate
400fda80 g     F .text	00000031 ets_timer_arm_us
401520e4 g     F .text	00000026 bignum_exptmod
40134d18 g     F .text	00000055 pm_send_probe_stop
4008d508 g     F .rwtext.wifi	00000091 trc_onPPTxDone
400879dc g     F .rwtext.wifi	0000001a hal_mac_rx_set_dscr_reload
40155da0 g     F .text	0000000d eap_get_config_new_password
40147e94 g     F .text	00000028 pmksa_cache_auth_deinit
4012bfc0 g     F .text	0000005d tsens_read_init
40134d70 g     F .text	0000008a pm_on_channel
4008b890 g     F .rwtext.wifi	0000004b lmacProcessRxSucData
4010d0e8 g     F .text	0000035a ieee80211_hostap_send_beacon_process
4013276c g     F .text	0000006f ic_obtain_key
400f958c g     F .text	00000000 TG1_LACT_LEVEL
40134a00 g     F .text	0000001f pm_disconnected_sleep_delay_timeout_process
400f958c g     F .text	00000000 SPI1
4012c940 g     F .text	000000dd chip_v7_set_chan_nomac
400f958c g     F .text	00000000 RWBLE_NMI
400853cc g     F .rwtext.wifi	00000018 sta_rx_cb
3ffd076e g     O .bss	00000001 bt_pwr_cap_sum_old
4013c6b0 g     F .text	00000019 hostap_deinit
40126a54 g     F .text	0000001f chm_end_op_timeout_process
3ff80000 g       *ABS*	00000000 _rtc_dummy_start
400f958c g     F .text	00000000 SPI2
40087970 g     F .rwtext.wifi	0000000d hal_mac_rx_read_rxdscrnext
4013ae54 g     F .text	000000de sha256_prf_bits
40132934 g     F .text	0000019b ic_set_vif
401118cc g     F .text	0000006b ieee80211_decap1
400fdc64 g     F .text	0000006a esp_timer_get_time
3ffd0be0 g     O .bss	00000004 g_wpa_password_len
401173f0 g     F .text	00000057 nan_dp_send_confirm_event
40137884 g     F .text	00000090 trc_update_ifx_phy_mode
40137ad0 g     F .text	0000000f wDev_reset_bcnSendTick
401219f8 g     F .text	0000004c check_bss_queue
4010b8ec g     F .text	00000044 esp_wifi_connect
4013ebd0 g     F .text	0000004c tlsv12_key_x_server_params_hash
400f958c g     F .text	00000000 SPI0
4014cef8 g     F .text	000000e7 eap_fast_add_pac
40155a74 g     F .text	00000014 ap_sta_hash_add
40089cc8 g     F .rwtext.wifi	00000062 tsens_code_read
3f410334 g     O .rodata	00000038 gNanSm
3ffb14c4 g     O .data	0000000c g_dynamic_cs
4011adc4 g     F .text	0000004c nan_services_deinit
400809f8 g     F .rwtext	00000000 __default_naked_level_5_interrupt
4012e394 g     F .text	0000015a noise_check_loop
40112164 g     F .text	0000003a ieee80211_alloc_challenge
4011f67c g     F .text	00000062 ieee80211_node_pwrsave
40002d60 g       *ABS*	00000000 __mulvsi3
40126afc g     F .text	0000000d chm_get_home_channel
3ffd1460 g     O .bss	00000224 s_dp
400634a0 g       *ABS*	00000000 __negdf2
40084754 g     F .rwtext.wifi	00000057 hal_mac_tx_config_edca
4010cdf8 g     F .text	000000a8 wifi_log
4012fb10 g     F .text	00000056 phy_disable_low_rate
4012ea30 g     F .text	00000215 register_chipv7_phy_init_param
4008117c g     F .rwtext	000000ff __level_2_interrupt
401288e4 g     F .text	000002d0 cnx_bss_alloc
3ffd078e g     O .bss	00000002 target_power_backoff_qdb
40142944 g     F .text	0000000a crypto_private_key_free
4008d388 g     F .rwtext.wifi	00000068 ppRecycleAmpdu
40149688 g     F .text	00000021 eap_sm_abort
40089ba0 g     F .rwtext.wifi	000000c5 btpwr_pll_track
40135898 g     F .text	0000001a xswap
40116184 g     F .text	0000000e config_is_cache_tx_buf_enabled
4011b08c g     F .text	00000795 wifi_nvs_cfg_init
4013bcb8 g     F .text	00000018 esp_eap_client_clear_username
4012ade8 g     F .text	00000099 tkip_encap
40089b3c g     F .rwtext.wifi	0000001e phy_get_fetx_delay
4011bc20 g     F .text	0000001a wifi_nvs_validate_ap_ssid
40145b88 g     F .text	0000001c os_sleep
40080040 g     F .vectors	00000000 _WindowUnderflow4
40088b04 g     F .rwtext.wifi	0000017b agc_reg_init
3ffd0744 g     O .bss	00000004 g_cnx_probe_rc_list_cb
40122cb0 g     F .text	0000002a reset_cs_thres
400892f0 g     F .rwtext.wifi	00000050 reg_init_begin
3f413258 g       *ABS*	00000000 _rodata_end
4011b884 g     F .text	00000166 wifi_nvs_set
4012b0a0 g     F .text	000000a0 ram_pbus_xpd_tx_on
40139fec g     F .text	000000b3 hal_sniffer_rx_set_promis
40089104 g     F .rwtext.wifi	0000016b set_chan_reg
40145fa0 g     F .text	00000012 hostapd_config_free_bss
4011adb0 g     F .text	00000013 nan_services_init
40133638 g     F .text	000000b4 lmacProcessCollision
401376d4 g     F .text	00000056 rc_disable_trc
3ffb1824 g     O .data	0000002c g_pm_cfg
4013b000 g     F .text	00000023 hex2byte
4012016c g     F .text	00000015 scan_remove_bssid
401114a0 g     F .text	00000135 ieee80211_add_htinfo_body
4008b8dc g     F .rwtext.wifi	00000094 pm_get_null_max_tx_time
40080300 g     F .vectors	00000000 _KernelExceptionVector
400879f8 g     F .rwtext.wifi	00000027 pm_get_connectionless_status
4008c690 g     F .rwtext.wifi	0000015a lmacSetTxFrame
40122944 g     F .text	00000032 sta_michael_mic_failure
400840b8 g     F .rwtext.wifi	0000032e rcUpdateTxDoneAmpdu2
401490d0 g     F .text	00000022 eap_peer_unregister_methods
40155d2c g     F .text	0000000f eap_sm_request_identity
3ffd2184 g     O .bss	00000004 s_eapol_txdone_cb
3ffb1854 g     O .data	000003cc TxRxCxt
401371b8 g     F .text	0000004d TRC_PER_IS_GOOD
40147dfc g     F .text	00000065 pmksa_cache_free_entry
4000c7d8 g       *ABS*	00000000 __umulsidi3
3ffd0c10 g     O .bss	00000004 g_wpa_anonymous_identity_len
4012dffc g     F .text	00000072 chip_sleep_prot_en
4011a454 g     F .text	00000155 nan_construct_subscribe_sdf
40084e90 g     F .rwtext.wifi	0000053b sta_input
00000000 g     O .espressif.metadata	00000007 bootloader.NAME
40115100 g     F .text	00000073 wifi_start_process
4008b870 g     F .rwtext.wifi	0000000f lmacProcessAllTxTimeout
40088fa4 g     F .rwtext.wifi	0000007a opt_11b_resart
40138f10 g     F .text	00000022 hal_mac_tx_set_ppdu
4011a5ac g     F .text	0000002b nan_get_peer_svc_record
401350fc g     F .text	00000011 pm_on_data_tx_done
40063478 g     F *ABS*	0000003e .hidden __unordsf2
40155e94 g     F .text	00000027 mschapv2_remove_domain
40087a38 g     F .rwtext.wifi	00000028 pm_enable_dream_timer
4014b300 g     F .text	00000030 eap_peer_tls_derive_key
401248f8 g     F .text	00000a9f sta_recv_mgmt
40082920 g     F .rwtext.wifi	00000292 lmacEndFrameExchangeSequence
4010b4ac g     F .text	00000020 net80211_funcs_deinit
4010c1a8 g     F .text	00000026 ieee80211_freedom_init
40087f10 g     F .rwtext.wifi	0000004c pm_connectionless_wake_window_timeout_process
4014ce30 g     F .text	00000027 eap_fast_free_pac
3ffb1e3c g     O .data	000000a8 rc11NSchedTbl
40084c28 g     F .rwtext.wifi	0000021a ieee80211_ampdu_reorder
40155008 g     F .text	0000002c nan_dp_parse_dev_caps
4011f414 g     F .text	00000041 ieee80211_psq_take_head
4010b298 g     F .text	00000072 wifi_check_chan_param
4010ba74 g     F .text	0000004e esp_wifi_internal_reg_rxcb
40143100 g     F .text	0000009c des_encrypt
40125c24 g     F .text	00000054 esp_wifi_ap_deauth_internal
4012ca3c g     F .text	00000066 chip_v7_set_chan_offset
40064a70 g       *ABS*	00000000 __gcc_bcmp
40145500 g     F .text	00000060 sha384_init
4011a270 g     F .text	0000000f nan_sm_start
4012302c g     F .text	00000aa1 ieee80211_sta_new_state
40116c90 g     F .text	00000027 nan_tx_action_frame
40145f4c g     F .text	00000037 hostapd_get_psk
40008534 g       *ABS*	00000000 esp_rom_delay_us
4011ceec g     F .text	0000008b ieee80211_getcapinfo
400f958c g     F .text	00000000 level4_interrupt
4010cad4 g     F .text	00000141 ieee80211_crypto_aes_128_cmac_decrypt
3ffd077b g     O .bss	00000001 phy_freq_wifi_only
40110a70 g     F .text	0000006f ieee80211_recv_bar
4014e658 g     F .text	000000fd pmksa_cache_add_entry
4013d1ec g     F .text	00000052 tlsv1_client_shutdown
4000cff8 g     F *ABS*	0000003a .hidden __udivdi3
3ffd0ab8 g     O .bss	00000090 g_wpa_supp
4013323c g     F .text	000001fb lmacProcessShortRetryFail
40150aac g     F .text	0000001b wpabuf_clear_free
400845e0 g     F .rwtext.wifi	00000089 wdev_mac_wakeup
40147fd0 g     F .text	0000004a ap_sta_add
40115970 g     F .text	00000062 wifi_nan_set_config_local
40113a14 g     F .text	00000070 _do_wifi_stop
40110cbc g     F .text	000000a8 ieee80211_has_ht40_bss
401364fc g     F .text	00000040 ppClearTxq
40138690 g     F .text	00000022 wDev_Crypto_Disable
40132db4 g     F .text	00000018 ic_set_rx_policy_ubssid_check
40150750 g     F .text	00000126 wpa_supplicant_parse_ies
4013a12c g     F .text	0000001b hal_disable_nan_tsf
40113d68 g     F .text	000000bc ieee80211_sta_connect
40132134 g     F .text	00000170 ram_phy_get_vdd33
40128488 g     F .text	000000bf cnx_remove_rc
4012b568 g     F .text	00000107 correct_rfpll_offset
3ffb1c80 g     O .data	00000048 rc11BSchedTbl
40080840 g     F .rwtext	00000000 __naked_user_exception
4013efc8 g     F .text	00000109 tlsv1_set_private_key
40118848 g     F .text	0000004f nan_sched_init_availability
40125648 g     F .text	0000000f esp_wifi_ap_get_prof_password_internal
40122980 g     F .text	00000047 ieee80211_wme_standard_ac_to_esp_ac
40084670 g     F .rwtext.wifi	0000002e wdev_is_data_in_rxlist
50000000 g       *ABS*	00000000 _rtc_slow_data_start
400860c4 g     F .rwtext.wifi	0000000a ic_mac_init
400fa5b8 g     F .text	0000008a __pender
400800c0 g     F .vectors	00000000 _WindowUnderflow8
4011a294 g     F .text	000001be nan_construct_publish_sdf
4000c84c g     F *ABS*	00000035 .hidden __lshrdi3
3ffb1efc g     O .data	0000000c BasicOFDMSched
40080180 g     F .vectors	00000000 _Level2InterruptVector
4013bd78 g     F .text	0000000d esp_eap_client_set_disable_time_check
4013efa8 g     F .text	00000020 tlsv1_set_cert
3ffd0778 g     O .bss	00000001 phy_bt_power_track_en
40151f54 g     F .text	00000093 bignum_get_unsigned_bin
3f411720 g     O .rodata	00000074 g_wifi_default_wpa_crypto_funcs
4012404c g     F .text	00000676 sta_recv_assoc
3ff80000 g       *ABS*	00000000 _rtc_fast_bss_start
4010c184 g     F .text	0000001e ieee80211_rate_ref_init
4013c3f4 g     F .text	0000001a wpa_sm_deauthenticate
401453a4 g     F .text	00000040 sha256_vector
4012123c g     F .text	0000003e free_bss_info
4013c0dc g     F .text	0000003d wpa_config_profile
40141a18 g     F .text	0000002a aes_encrypt_init
40132c38 g     F .text	00000013 ic_deinit
40101408 g     F .text	00000025 rtc_printf
40136154 g     F .text	0000004f ppEnableQueue
4008c214 g     F .rwtext.wifi	000000ed ieee80211_set_tx_desc
40089e54 g     F .rwtext.wifi	00000036 chan_to_freq
4013b04c g     F .text	00000056 wpa_get_ntp_timestamp
4013c838 g     F .text	00000085 tls_connection_set_params
3f40b0d0 g     O .rodata	000001e0 g_wifi_osi_funcs
401386b4 g     F .text	0000000d wdev_is_mgmt_hwdecr_enabled
40123cc0 g     F .text	0000013a sta_auth_shared
4011644c g     F .text	00000014 nan_set_update_sdf_pending
40001808 g       *ABS*	00000000 times
40082bb4 g     F .rwtext.wifi	0000001c is_lmac_idle
40150b64 g     F .text	00000176 asn1_get_next
3ffcfcf8 g     O .bss	00000001 _ESP_HAL_DEVICE_PERIPHERALS
3ffd0790 g     O .bss	00000001 phy_set_most_tpw_flag
400847b4 g     F .rwtext.wifi	00000024 hal_mac_txq_enable
400825f4 g     F .rwtext.wifi	0000004a lmacAdjustTimestamp
40153304 g     F .text	000000d5 md4_vector
40126030 g     F .text	00000016 esp_wifi_unset_appie_internal
40088a00 g     F .rwtext.wifi	00000098 tx_paon_set
40081a28 g     F .rwtext	0000003e __default_interrupt
40116f84 g     F .text	00000031 nan_sched_in_ndc_slot
40155d0c g     F .text	0000001e eap_deinit_prev_method
40084960 g     F .rwtext.wifi	0000001e wdev_bank_store
40126154 g     F .text	000000bc esp_wifi_set_igtk_internal
3ffb120c g     O .data	00000001 TmpSTAAPCloseAP
3ffd050c g     O .bss	00000004 wifi_sta_rx_probe_req
40089a2c g     F .rwtext.wifi	00000083 phy_unforce_wifi_chan
400879bc g     F .rwtext.wifi	0000000d hal_mac_rx_get_last_dscr
4013cac8 g     F .text	00000023 tlsv1_client_free_dh
40101160 g     F .text	00000062 misc_nvs_init
4011f148 g     F .text	00000115 ieee80211_setup_ratetable
400f958c g     F .text	00000000 RWBT
4012474c g     F .text	00000169 sta_try_sa_query_process
4010b0fc g     F .text	0000019a wifi_softap_get_config
4013c378 g     F .text	00000058 wpa_supplicant_transition_disable
4011a19c g     F .text	0000000f nan_scan_timeout_process
40064bf4 g     F *ABS*	00000045 .hidden __udivmoddi4
3ffd34bc g     O .bss	00000028 phy_version_str
4013c2d4 g     F .text	0000004a wpa_ether_send
4008a150 g     F .rwtext.wifi	00000029 ram_set_rxclk_en
401419fc g     F .text	0000001a aes_decrypt_deinit
40117e08 g     F .text	00000044 nan_send_ndp_confirm
4011fba0 g     F .text	00000061 ieee80211_add_countryie
4008a08c g     F .rwtext.wifi	0000001b ram_enable_agc
40125760 g     F .text	00000029 esp_wifi_sta_prof_is_rsn_internal
401486cc g     F .text	00000077 wpa_cipher_to_suite
4014ee64 g     F .text	00000030 wpa_sm_set_pmk_from_pmksa
40089da8 g     F .rwtext.wifi	00000038 bt_track_tx_power
40155908 g     F .text	00000032 x509_sha1_oid
40089758 g     F .rwtext.wifi	00000100 phy_force_wifi_chan
4010cc28 g     F .text	000001b7 ieee80211_crypto_gmac_decrypt
3ffd34fc g     O .bss	00000008 phy_chan_gain_table
400854f0 g     F .rwtext.wifi	0000006e pm_enable_active_timer
400feb4c g     F .text	000000b7 free
3ffd073d g     O .bss	00000001 g_authmode_threshold_failure
4011ca74 g     F .text	0000001e ieee80211_add_probe_req_ies
4008a6c0 g     F .rwtext.wifi	00000010 bb_wdt_get_status
401177fc g     F .text	0000007a nan_dp_setup_peer
3ffd0bcc g     O .bss	00000004 g_wpa_pac_file
3ffd04f0 g     O .bss	00000004 g_log_level
401328a0 g     F .text	0000000d ic_is_mgmt_hwdecr_enabled
4000c7c8 g     F *ABS*	00000031 .hidden __udivsi3
0000000c g     O .espressif.metadata	00000006 espflash.LOG_FORMAT
3ffd34e4 g     O .bss	00000001 phy_dac_org
40139494 g     F .text	0000005d mac_last_rxbuf_init
40133440 g     F .text	00000058 lmacProcessCtsTimeout
401383ac g     F .text	000001d5 wDev_Rxbuf_Init
4013b948 g     F .text	000001e4 wpa2_task
3ffb0000 g       *ABS*	00000000 _data_start
400828cc g     F .rwtext.wifi	00000023 lmacRecycleMPDU
4013e970 g     F .text	00000027 tls_get_cipher_data
40136d74 g     F .text	0000007a rcLowerSched
4014e85c g     F .text	0000003a pmksa_cache_get
40132808 g     F .text	0000000e ic_ebuf_recycle_tx
40132e7c g     F .text	0000001b lmacIsIdle
40150a74 g     F .text	0000001c wpabuf_dup
400880b8 g     F .rwtext.wifi	00000011 i2c_bbpll_init
3ffd079f g     O .bss	00000001 g_pp_tx_pkt_num
40122ee4 g     F .text	0000000e sta_is_11r_enabled
400848bc g     F .rwtext.wifi	0000001c hal_mac_tx_is_cbw40
40126268 g     F .text	0000000e esp_wifi_skip_supp_pmkcaching
40136ed8 g     F .text	000000e1 trc_onAmpduOp
401478f0 g     F .text	00000032 wpa_write_rsnxe
40118af4 g     F .text	0000005f nan_dp_schedule_ndc_start
40132c54 g     F .text	00000057 ic_init
4000c9fc g     F *ABS*	00000037 .hidden __muldi3
400026e4 g     F *ABS*	0000003b .hidden __subdf3
400ffe0c g     F .text	000000f5 atoi
40080100 g     F .vectors	00000000 _WindowOverflow12
40155fc8 g     F .text	0000000a pmksa_cache_get_current
3ffd0788 g     O .bss	00000001 chan14_mic_en
401253bc g     F .text	0000000f esp_wifi_ap_get_prof_pmk_internal
40063704 g     F *ABS*	0000004d .hidden __ledf2
40118070 g     F .text	00000048 nan_dp_chan_from_bitmap
3ffd0514 g     O .bss	00000040 g_hmac_cnt
40083d9c g     F .rwtext.wifi	000001d3 ppTask
40147700 g     F .text	00000027 wpa_ap_remove
4010be28 g     F .text	00000018 esp_wifi_set_tx_done_cb
40116fb8 g     F .text	00000034 nan_sched_is_peer_available
401157f0 g     F .text	00000018 wifi_set_appie_process
4013c7cc g     F .text	00000037 tls_connection_init
401256b8 g     F .text	0000000e esp_wifi_sta_get_reset_param_internal
3ffd32d0 g     O .bss	00000014 bt_wifi_chan_data
3ffd078c g     O .bss	00000001 phy_set_most_tpw_index
4013774c g     F .text	0000005a rc_get_trc_by_index
40002590 g     F *ABS*	00000037 .hidden __adddf3
40132afc g     F .text	00000019 ic_add_rx_ba
3ffb14d0 g     O .data	00000001 send_deauth
40152054 g     F .text	00000018 bignum_add
40002954 g     F *ABS*	00000037 .hidden __divdf3
4011a21c g     F .text	00000013 nan_faw_end_process
3ffb2180 g       *ABS*	00000000 _bss_start
4010aeac g     F .text	0000000b wifi_is_stop_in_progress
4013f134 g     F .text	0000004b tlsv1_record_change_write_cipher
4008b054 g     F .rwtext.wifi	000000a0 tx_gain_table_set
40138584 g     F .text	00000008 wDev_disable_low_rate
4010cf2c g     F .text	000000b6 ieee80211_hostapd_beacon_txcb
4011a1f4 g     F .text	00000013 nan_send_action_process
401362ac g     F .text	000000b0 ppCheckTxIdle
4012dd54 g     F .text	00000228 set_rx_gain_testchip_70
40128f6c g     F .text	000000ca cnx_node_alloc
401163ec g     F .text	00000026 nan_flush_action_q
400fff78 g     F .text	000001b6 mktime
4008ae14 g     F .rwtext.wifi	00000047 get_rate_target_power
400819e8 g     F .rwtext	00000000 Profiling
4000ca2c g       *ABS*	00000000 __ffsdi2
4012611c g     F .text	00000022 esp_wifi_sta_get_mgmt_group_cipher
4010b474 g     F .text	00000037 net80211_funcs_init
40064b64 g       *ABS*	00000000 __clrsbsi2
40089de8 g     F .rwtext.wifi	0000005f bt_track_pll_cap
401340ac g     F .text	0000004c pm_wake_done
4015008c g     F .text	00000022 wpa_sta_cur_pmksa_matches_akm
40133010 g     F .text	0000006f lmacEndRetryAMPDUFail
40127b38 g     F .text	00000089 cnx_remove_from_blacklist
4014edf0 g     F .text	0000001d wpa_sm_set_state
40089048 g     F .rwtext.wifi	000000ab phy_reg_init
4011a7fc g     F .text	0000007d nan_match_filters
40154e90 g     F .text	0000003e ampdu_dispatch_movement
40117f74 g     F .text	0000001b nan_dp_parse_ndla
4008b6c8 g     F .rwtext.wifi	000000e4 tx_pwctrl_background
4012e890 g     F .text	000000bf analog_gain_init
401167c4 g     F .text	00000010 nan_rx_cb
40134dfc g     F .text	00000085 pm_update_params
3ffd0698 g     O .bss	00000001 in_rssi_adjust
40082bf0 g     F .rwtext.wifi	0000008d ppTxProtoProc
4010c50c g     F .text	0000001a ieee80211_find_ie
40155a24 g     F .text	00000007 crypto_public_key_from_cert
40004100 g       *ABS*	00000000 phy_get_romfuncs
3ffd0688 g     O .bss	00000004 sta_rxcb
4010c9c4 g     F .text	000000fe ieee80211_crypto_aes_128_cmac_encrypt
40152c24 g     F .text	0000002e generate_authenticator_response
4012df9c g     F .text	0000002b set_tx_gain_table_bt
40139674 g     F .text	000000be hal_mac_rx_set_policy
3ffb1200 g     O .data	00000004 WIFI_MESH_EVENT
400f958c g     F .text	00000000 I2S0
3ffd0674 g     O .bss	00000014 sta_csa_timer
40155514 g     F .text	0000003b rcSetTxAmpduLimit
401258bc g     F .text	0000007f esp_wifi_wpa_ptk_init_done_internal
4011851c g     F .text	000000f0 nan_parse_ndp_resp
40114798 g     F .text	0000001c chip_enable
400f958c g     F .text	00000000 I2S1
4010bacc g     F .text	00000037 wifi_event_post
4008ccc0 g     F .rwtext.wifi	00000010 pm_on_data_tx
401550e8 g     F .text	00000036 ieee80211_gettid
40122914 g     F .text	0000001a wifi_sta_reg_eapol_txdone_cb
40132d88 g     F .text	0000000d ic_get_random
40117478 g     F .text	0000001f nan_dp_node_available
4015568c g     F .text	00000007 tls_connection_enable_workaround
401011c4 g     F .text	00000079 puts
4013f0d4 g     F .text	0000005e tlsv1_record_set_cipher_suite
4013c320 g     F .text	00000058 hostapd_send_eapol
40126ce4 g     F .text	000000d4 chm_init
4014021c g     F .text	0000001b x509_certificate_chain_free
4013bedc g     F .text	00000008 wpa_config_done
3ffd1300 g     O .bss	00000158 s_ni
40129038  w    F .text	000000bf cnx_node_remove
400f958c g     F .text	00000000 MMU_IA
40141504 g     F .text	000000df aes_decrypt_init
40125c08 g     F .text	0000001b esp_wifi_get_macaddr_internal
3ffd0792 g     O .bss	00000002 phy_meas_noise_floor
40150a58 g     F .text	0000001a wpabuf_alloc_copy
40080840 g     F .rwtext	00000000 __default_naked_exception
3ffd0568 g     O .bss	00000008 g_beacon_eb
4014e494 g     F .text	00000030 eap_fast_tlv_eap_payload
401175b0 g     F .text	0000006a nan_dp_get_peer_ndp
40122f14 g     F .text	00000065 sta_update_power_off_reset_flag
40138d4c g     F .text	00000095 hal_crypto_enable
4008a120 g     F .rwtext.wifi	00000029 ram_set_txclk_en
3f411f50 g     O .rodata	00000400 Te0
3ffd0785 g     O .bss	00000001 init_wifi_disable
4013eeb8 g     F .text	00000032 tlsv1_cred_free
40111154 g     F .text	00000167 ieee80211_ht_updateparams
40112014 g     F .text	000000da ieee80211_setup_phy_mode
4013af54 g     F .text	00000092 sha1_prf
401431b8 g     F .text	00000028 des_block_encrypt
3ffd34e6 g     O .bss	00000002 pwrdet_offset
40133e34 g     F .text	0000000f pm_register_pm_tx_null_cb
400ffccc g     F .text	00000038 fopen
40089b60 g     F .rwtext.wifi	0000002c get_temp_cal
40139438 g     F .text	00000041 hal_mac_set_rxq_policy
4011abd8 g     F .text	00000036 nan_get_service_by_id
4012b1a4 g     F .text	00000040 ram_wait_rfpll_cal_end
4013c2c4 g     F .text	0000000d wpa_free_eapol
401556fc g     F .text	0000000e tlsv1_client_resumed
401216dc g     F .text	00000068 scan_inter_channel_timeout_process
4012a5cc g     F .text	0000009b ieee80211_recv_action
400848f8 g     F .rwtext.wifi	00000020 ppEmptyDelimiterLength
400f958c g     F .text	00000000 TG1_T0_EDGE
4008b974 g     F .rwtext.wifi	00000136 pp_post
4011193c g     F .text	00000104 ieee80211_decap_amsdu
40135a74 g     F .text	00000088 ppAssembleMicHdr
40136780 g     F .text	00000046 RC_GetBlockAckTime
401147b8 g     F .text	0000001c chip_disable
40132e60 g     F .text	0000000a ic_delete_wifi_task
4013f2fc g     F .text	0000018f tlsv1_record_receive
40132df0 g     F .text	0000000d ic_set_interface
4013592c g     F .text	0000000f ppRegisterTxDoneUserActionCallback
4000c944 g     F *ABS*	00000031 .hidden __floatsidf
4013720c g     F .text	0000006e TRC_AMPDU_PER_DOWN_THRESHOLD
3ffb2004 g     O .data.wifi	00000090 bars
4013668c g     F .text	0000001a pp_timer_process
4013c11c g     F .text	00000035 wpa_config_bss
4008660c g     F .rwtext.wifi	00000035 pm_disable_beacon_monitor_timer
4008bab0 g     F .rwtext.wifi	00000013 wifi_gpio_debug
3ffb172c g     O .data	000000c8 g_eb_list_desc
4011643c g     F .text	0000000d wifi_nan_reg_rxcb
40155d64 g     F .text	0000000d eap_get_config_identity
40085e24 g     F .rwtext.wifi	0000007f wifi_rf_phy_enable
4010ae88 g     F .text	0000000d esp_wifi_send_deauth_local
401183f8 g     F .text	0000011a nan_parse_ndp_req
401556ac g     F .text	0000003a tls_client_highest_ver
4010ad48  w    F .text	00000031 .hidden __divsf3
4011dc60 g     F .text	0000006c ieee80211_output_pending_eb
4011c1ec g     F .text	00000033 ieee80211_set_hmac_stop
40114ab0 g     F .text	000001e2 wifi_set_mode_process
4008cd80 g     F .rwtext.wifi	0000002a ppTxqUpdateBitmap
40086c88 g     F .rwtext.wifi	000000e3 pm_tbtt_process
3ffd0bec g     O .bss	00000004 g_wpa_ca_cert
40113414 g     F .text	000000de ieee80211_ioctl_process
400874e8 g     F .rwtext.wifi	000002f5 wDev_ProcessRxSucData
40147f18 g     F .text	0000001c pmksa_cache_auth_init
400f958c g     F .text	00000000 TG1_LACT_EDGE
40145dc0 g     F .text	000000e4 eloop_run
40141a44 g     F .text	000003ea aes_encrypt
40132b50 g     F .text	00000017 ic_set_ac_param
4013bc5c g     F .text	00000018 esp_eap_client_clear_identity
3ffb16a0 g     O .data	00000018 ccmp
4013b41c g     F .text	00000014 eap_client_get_eap_state
40153488 g     F .text	00000029 chap_md5
4010bc40 g     F .text	00000023 esp_wifi_get_event_mask
4012ca20 g     F .text	0000001b chip_v7_set_chan
400819d8 g     F .rwtext	0000000d __default_exception
4010cff4 g     F .text	0000000e hostap_handle_timer
400801c0 g     F .vectors	00000000 _Level3InterruptVector
40155d4c g     F .text	0000000f eap_sm_request_new_password
40120c6c g     F .text	0000002f scan_reset_cipher_and_akm
40117564 g     F .text	00000041 nan_dp_remove_node
4011fc60 g     F .text	0000000b ieee80211_regdomain_ap_min_chan
401391fc g     F .text	00000236 mac_txrx_init
40138664 g     F .text	0000002a wDev_remove_KeyEntry_all_cnx
4008399c g     F .rwtext.wifi	000003c3 ppResortTxAMPDU
40134748 g     F .text	000001a5 pm_coex_schm_process
40155a60 g     F .text	00000012 wpa_auth_uses_mfp
400f958c g     F .text	00000000 LEDC
4005cfec g       *ABS*	00000000 esp_rom_crc32_le
4011ca14 g     F .text	0000001f ieee80211_add_beacon_app_ies
4011f8f4 g     F .text	00000060 ieee80211_get_chan_info
40113a90 g     F .text	000000a6 _do_wifi_start
4011f95c g     F .text	0000004c ieee80211_is_40mhz_valid_bw
40134904 g     F .text	000000be pm_coex_slice_timeout_process
3ffb15d8 g     O .data	00000004 g_chm
40116cb8 g     F .text	0000002d nan_tx_queued_action_frames
40155e18 g     F .text	00000013 eap_get_id
40082574 g     F .rwtext.wifi	0000007e lmacMSDUAged
40150720 g     F .text	00000030 wpa_gen_rsnxe
401300f4 g     F .text	0000002e ram_txcal_work_mode
40136804 g     F .text	0000001b rx11NRate2AMPDULimit
401495d4 g     F .text	00000076 eap_sm_buildIdentity
40132e98 g     F .text	0000001a lmacGetTxFrame
401359c4 g     F .text	000000b0 ppCheckTxConnTrafficIdle
40154d1c g     F .text	00000032 sprintf
3ffd08a8 g     O .bss	00000048 g_pm_cnt
40125a20 g     F .text	00000012 esp_wifi_get_hostap_private_internal
40142824 g     F .text	0000009d crypto_mod_exp
50000000 g       *ABS*	00000000 _rtc_slow_persistent_start
40136fbc g     F .text	00000020 trc_set_per_pkt_rate
401269e0 g     F .text	00000026 chm_deinit
4011f7d8 g     F .text	000000e7 ieee80211_mlme_connect_bss
4011ca9c g     F .text	00000084 ieee80211_add_wme_param
3ffb1704 g     O .data	00000001 phy_in_most_power_bk
40123b9c g     F .text	0000011b sta_auth_open
4011da98 g     F .text	00000059 ieee80211_deauth_construct
4010bf64 g     F .text	00000034 ieee80211_freedom_inside_cb
401198d4 g     F .text	0000000e nan_send_started_event
4011a244 g     F .text	00000017 nan_sm_init
4013d318 g     F .text	0000003e tlsv1_client_get_version
40138c38 g     F .text	00000098 hal_crypto_get_key_entry
401496ac g     F .text	0000001a eap_set_config_blob
40084838 g     F .rwtext.wifi	0000000d hal_random
40150120 g     F .text	00000045 wpa_sm_set_assoc_rsnxe
4010bd90 g     F .text	00000033 esp_wifi_internal_on_coex_start
400f958c g     F .text	00000000 MPU_IA
3f400020 g     O .rodata_desc	00000100 esp_app_desc
4010b438  w    F .text	00000036 net80211_softap_funcs_init
4014064c g     F .text	0000001c x509_sha384_oid
4011a710 g     F .text	00000027 nan_static_sdfs_present
4012596c g     F .text	00000013 esp_wifi_register_wpa2_cb_internal
40087eb4 g     F .rwtext.wifi	0000005a pm_connectionless_wake_interval_timeout_process
4000c2c8 g     F *ABS*	00000031 .hidden memcpy
4011e7e0 g     F .text	00000235 ieee80211_send_probereq
400f958c g     F .text	00000000 TG1_WDT_EDGE
40151f00 g     F .text	00000020 bignum_init
400636a8 g     F *ABS*	0000004d .hidden __nedf2
400864c8 g     F .rwtext.wifi	000000cf pm_beacon_monitor_tbtt_start
40148cd0 g     F .text	0000006e aes_gcm_ae
40087984 g     F .rwtext.wifi	00000010 hal_mac_rx_set_base
401369b4 g     F .text	00000038 rcGet11BHighestRateIdx
40125800 g     F .text	00000029 ieee80211_set_sta_gtk_index
401253f8 g     F .text	0000001e esp_wifi_sta_get_ap_info_prof_pmk_internal
40155b28 g     F .text	00000045 wpa_cipher_key_len
40152b78 g     F .text	0000002c generate_nt_response_pwhash
3ffd32bc g     O .bss	00000008 ctx
4000c7f0 g     F *ABS*	0000002f .hidden __ctzsi2
4012d5e8 g     F .text	000001c3 rx_chan_dc_sort
401173a4 g     F .text	0000004b nan_dp_send_indication_event
4008401c g     F .rwtext.wifi	00000067 rcUpdateTxDone
40123adc g     F .text	000000ae sta_auth_ft
401551f4 g     F .text	00000029 wep_decap
40152664 g     F .text	00000123 crypto_rsa_import_private_key
4012593c g     F .text	0000000a esp_wifi_auth_done_internal
40086988 g     F .rwtext.wifi	00000081 pm_keep_alive
4011484c g     F .text	00000107 wifi_hw_start
3f4102be g     O .rodata	00000006 NAN_NETWORK_ID
40154f48 g     F .text	00000007 wifi_station_get_reconnect_policy
40080200 g     F .vectors	00000000 _Level4InterruptVector
4012e504 g     F .text	0000007b chip_v7_set_chan_misc
3ffd073b g     O .bss	00000001 reconnect_flag
40136430 g     F .text	000000c9 pp_attach
3ffd059a g     O .bss	00000001 g_mac_sleep_en
40154f40  w    F .text	00000007 adc2_wifi_release
40141e4c g     F .text	0000032b rijndaelKeySetupEnc
4012e374 g     F .text	00000014 read_hw_noisefloor
40125bfc g     F .text	0000000c esp_wifi_register_eapol_txdonecb_internal
40128878 g     F .text	00000046 cnx_handshake_timeout_process
401357cc g     F .text	0000002d pm_enable_sta_disconnected_power_management
3ffd3518 g     O .bss	000000c0 eb_space
40122e48 g     F .text	00000072 sta_bip_check
4014ff28 g     F .text	0000013a eapol_txcb
3ffd059c g     O .bss	000000b0 esp_mesh_quick_funcs
4010add0  w    F .text	0000003e .hidden strlen
401262c8 g     F .text	0000006a esp_wifi_send_mgmt_frm_internal
4012af34 g     F .text	00000066 ieee80211_getbcnframe
3ffd073a g     O .bss	00000001 ap_no_lr
4008649c g     F .rwtext.wifi	00000025 pm_save_tbtt_info
40155220 g     F .text	00000005 ram_rfpll_reset
40127bd0 g     F .text	000000ac cnx_add_to_blacklist
40114cc8 g     F .text	000001a6 wifi_menuconfig_init
40145094 g     F .text	0000001d hmac_sha1
3f4102ca g     O .rodata	00000004 NAN_ACTION_OUI
400f958c g     F .text	00000000 WDT
40141418 g     F .text	0000006b aes_128_cbc_encrypt
40135d60 g     F .text	0000007f ppCheckTxAMPDUlength
3ffd35d8 g     O .bss	00000028 if_ctrl
3ffb16e8 g     O .data	00000018 wep
4013858c g     F .text	00000008 wDev_enable_low_rate
401323e4 g     F .text	00000096 esf_buf_free_static
4011629c g     F .text	0000007a nan_mgmt_txcb
401108d4 g     F .text	00000049 ieee80211_ampdu_start_age_timer
4011da60 g     F .text	00000031 ieee80211_get_robustmgtframe
40002b90 g     F *ABS*	00000031 .hidden __truncdfsf2
4013d2f8 g     F .text	00000010 tlsv1_client_set_cred
40087240 g     F .rwtext.wifi	0000027e wDev_IndicateFrame
3ffe0000 g       *ABS*	00000000 _stack_start_cpu0
3ffd0870 g     O .bss	00000010 s_fragment
40085568 g     F .rwtext.wifi	00000064 pm_rx_data_process
40150168 g     F .text	00000215 wpa_set_bss
40089c78 g     F .rwtext.wifi	00000035 phy_bt_ifs_set
4010be00 g     F .text	00000028 esp_wifi_internal_issue_disconnect
400f94e4 g     F .text	00000022 __stack_chk_fail
400f958c g     F .text	00000000 DefaultHandler
4015209c g     F .text	00000046 bignum_mulmod
400ffb30 g     F .text	0000006a usleep
4010d028 g     F .text	0000002a ieee80211_hostapd_ps_txcb
4012e59c g     F .text	00000211 set_rx_gain_table
4013593c g     F .text	0000001f ppRegisterRxCallback
40125980 g     F .text	00000022 esp_wifi_unregister_wpa_cb_internal
40110600 g     F .text	00000076 ieee80211_ht_deattach
40135094 g     F .text	00000067 pm_on_probe_resp_rx
401349c4 g     F .text	00000016 pm_dream_timeout_process
4012781c g     F .text	0000000b wl_is_ap_no_lr
4014ee3c g     F .text	00000027 wpa_supplicant_stop_countermeasures
4013c818 g     F .text	00000010 tls_connection_established
400f958c g     F .text	00000000 RMT
401494d0 g     F .text	00000102 eap_peer_blob_init
4000ca64 g     F *ABS*	00000031 .hidden __ctzdi2
40083598 g     F .rwtext.wifi	000002b4 ppCalTxAMPDULength
40088520 g     F .rwtext.wifi	00000023 ram_bb_bss_cbw40_dig
4011ea20 g     F .text	000000e4 ieee80211_send_mgmt
401465f0 g     F .text	00000098 wpa_init
4011ae1c g     F .text	0000007c wifi_nvs_cfg_item_init
40126b14 g     F .text	000000a5 chm_set_home_channel
40128da0 g     F .text	00000096 send_ap_probe
401205a8 g     F .text	00000091 scan_build_chan_list
40155034 g     F .text	00000007 nan_in_transit_event_hdlr
4013ca48 g     F .text	00000016 tls_connection_set_cipher_list
400809f8 g     F .rwtext	00000000 __naked_level_5_interrupt
40113e24 g     F .text	00000070 ieee80211_sta_disconnect
401276c8 g     F .text	00000056 cnx_can_do_obss_scan
4011fc8c g     F .text	0000002f ieee80211_regdomain_is_active_scan
40089f34 g     F .rwtext.wifi	00000024 ram_pbus_debugmode
4013636c g     F .text	000000bc ppPrepareBarFrame
3ffd0880 g     O .bss	00000004 s_wifi_queue
4011e240 g     F .text	00000048 ieee80211_alloc_deauth
3ffd079b g     O .bss	00000001 tx_pwctrl_track_num
4012573c g     F .text	0000001e esp_wifi_sta_prof_is_wapi_internal
40063840 g       *ABS*	00000000 __ucmpdi2
4014840c g     F .text	00000036 wpa_use_akm_defined
40125f90 g     F .text	00000048 esp_wifi_get_sta_key_internal
40144d50 g     F .text	00000071 SHA1Update
4011f4a8 g     F .text	0000005d ieee80211_psq_send_one_pkt
400fff04 g     F .text	00000073 strcasecmp
4014fec0 g     F .text	00000068 wpa_michael_mic_failure
40116418 g     F .text	00000008 nan_get_clust_id
3ffd0ab0 g     O .bss	00000001 g_wpa_pmk_caching_disabled
40086eb0 g     F .rwtext.wifi	000000d9 ppRxProtoProc
400860b0 g     F .rwtext.wifi	00000014 ic_interface_enabled
400f958c g     F .text	00000000 SPI3_DMA
4008bec0 g     F .rwtext.wifi	00000010 hal_mac_rx_get_end_state
40147924 g     F .text	00000125 wpa_auth_gen_wpa_ie
400636a8 g     F *ABS*	0000004d .hidden __eqdf2
40142400 g     F .text	000000c3 aes_wrap
400f958c g     F .text	00000000 UART2
40133c90 g     F .text	0000000b pm_is_open
400f958c g     F .text	00000000 level7_interrupt
3ffd3504 g     O .bss	00000011 phy_chan_target_power
4014b094 g     F .text	0000003b eap_peer_tls_register
4010ba24 g     F .text	0000004a esp_wifi_set_country
3ffd1458 g     O .bss	00000008 action_q
40100130 g     F .text	000000c4 _putchar
4010d444 g     F .text	00000030 hostap_delete_ptk
40002a78 g     F *ABS*	00000031 .hidden __fixdfsi
4008a244 g     F .rwtext.wifi	00000048 wr_bt_tx_atten
4013bc18 g     F .text	00000042 esp_eap_client_set_identity
40137e04 g     F .text	00000069 wdev_set_promis_misc_buf
40137f90 g     F .text	00000264 wDev_SnifferRxData
401322ac g     F .text	00000080 txpwr_offset
40142950 g     F .text	00000014 crypto_public_key_decrypt_pkcs1
40129c44 g     F .text	000002da cnx_node_join
4010b9a4 g     F .text	00000038 esp_wifi_get_config
40142808 g     F .text	0000001b crypto_cipher_deinit
40133a38 g     F .text	000000c6 lmacStopTransmit
40115540 g     F .text	0000002c wifi_set_rxcb_process
40120654 g     F .text	0000000c scan_get_type
3ffb1f7c g     O .data.wifi	00000001 g_mesh_is_started
400f958c g     F .text	00000000 BT_MAC
40117a6c g     F .text	000000bd nan_construct_ndp_confirm
40146688 g     F .text	00000061 wpa_auth_sta_init
40119ae4 g     F .text	000002e2 nan_am_event_hdlr
4010f8f4  w    F .text	0000004e add_mic_ie_bip


