
target/xtensa-esp32-none-elf/release/esp-test:     file format elf32-xtensa-le
target/xtensa-esp32-none-elf/release/esp-test
architecture: xtensa, flags 0x00000112:
EXEC_P, HAS_SYMS, D_PAGED
start address 0x400efc34

Xtensa header:

Machine     = Base
Insn tables = false
Literal tables = false

Program Header:
    LOAD off    0x00001020 vaddr 0x3f400020 paddr 0x3f400020 align 2**12
         filesz 0x00033600 memsz 0x00033600 flags r--
    LOAD off    0x00035000 vaddr 0x3ffb0000 paddr 0x3ffb0000 align 2**12
         filesz 0x000027d0 memsz 0x00030000 flags rw-
    LOAD off    0x00000e30 vaddr 0x3ffe7e30 paddr 0x3ffe7e30 align 2**12
         filesz 0x00000000 memsz 0x00010000 flags rw-
    LOAD off    0x00038000 vaddr 0x40080000 paddr 0x40080000 align 2**12
         filesz 0x00000400 memsz 0x00000400 flags r-x
    LOAD off    0x00038400 vaddr 0x40080400 paddr 0x40080400 align 2**12
         filesz 0x0000d23c memsz 0x0000d23c flags r-x
    LOAD off    0x00046020 vaddr 0x400d0020 paddr 0x400d0020 align 2**12
         filesz 0x000bc3fb memsz 0x000bc3fb flags r-x
   STACK off    0x00000000 vaddr 0x00000000 paddr 0x00000000 align 2**4
         filesz 0x00000000 memsz 0x00000000 flags rw-

Sections:
Idx Name          Size      VMA       LMA       File off  Algn
  0 .rwtext       000017bc  40080400  40080400  00038400  2**2
                  CONTENTS, ALLOC, LOAD, READONLY, CODE
  1 .rwtext.wifi  0000ba80  40081bbc  40081bbc  00039bbc  2**2
                  CONTENTS, ALLOC, LOAD, READONLY, CODE
  2 .data         000025bc  3ffb0000  3ffb0000  00035000  2**3
                  CONTENTS, ALLOC, LOAD, DATA
  3 .data.wifi    00000214  3ffb25bc  3ffb25bc  000375bc  2**2
                  CONTENTS, ALLOC, LOAD, DATA
  4 .bss          0001efdc  3ffb27d0  3ffb27d0  000377d0  2**3
                  ALLOC
  5 .noinit       00000000  3ffd17ac  3ffd17ac  00000000  2**2
                  ALLOC
  6 .rodata_desc  00000100  3f400020  3f400020  00001020  2**2
                  CONTENTS, ALLOC, LOAD, READONLY, DATA
  7 .rodata       0002ca30  3f400120  3f400120  00001120  2**3
                  CONTENTS, ALLOC, LOAD, READONLY, DATA
  8 .rodata.wifi  00006ad0  3f42cb50  3f42cb50  0002db50  2**2
                  CONTENTS, ALLOC, LOAD, READONLY, DATA
  9 .text         000bc3c5  400d0020  400d0020  00046020  2**2
                  CONTENTS, ALLOC, LOAD, READONLY, CODE
 10 .wifiorslpiram.27 00000033  4018c3e8  4018c3e8  001023e8  2**2
                  CONTENTS, ALLOC, LOAD, READONLY, CODE
 11 .rtc_fast.text 00000000  400c0000  400c0000  0010241b  2**0
                  CONTENTS
 12 .vectors      00000400  40080000  40080000  00038000  2**2
                  CONTENTS, ALLOC, LOAD, READONLY, CODE
 13 .rtc_fast.dummy 00000000  3ff80000  3ff80000  0010241b  2**0
                  CONTENTS
 14 .rtc_fast.data 00000000  3ff80000  3ff80000  0010241b  2**0
                  CONTENTS
 15 .rtc_fast.bss 00000000  3ff80000  3ff80000  0010241b  2**0
                  CONTENTS
 16 .rtc_fast.persistent 00000000  3ff80000  3ff80000  0010241b  2**0
                  CONTENTS
 17 .rtc_slow.text 00000000  50000000  50000000  0010241b  2**0
                  CONTENTS
 18 .rtc_slow.data 00000000  50000000  50000000  0010241b  2**0
                  CONTENTS
 19 .rtc_slow.bss 00000000  50000000  50000000  0010241b  2**0
                  CONTENTS
 20 .rtc_slow.persistent 00000000  50000000  50000000  0010241b  2**0
                  CONTENTS
 21 .stack        0000e854  3ffd17ac  3ffd17ac  000377d0  2**2
                  ALLOC
 22 .dram2_uninit 00010000  3ffe7e30  3ffe7e30  00037e30  2**2
                  ALLOC
 23 .espressif.metadata 00000012  00000000  00000000  0010241b  2**0
                  CONTENTS, READONLY
 24 .debug_loc    001127c5  00000000  00000000  0010242d  2**0
                  CONTENTS, READONLY, DEBUGGING, OCTETS
 25 .debug_abbrev 00015217  00000000  00000000  00214bf2  2**0
                  CONTENTS, READONLY, DEBUGGING, OCTETS
 26 .debug_info   0021f802  00000000  00000000  00229e09  2**0
                  CONTENTS, READONLY, DEBUGGING, OCTETS
 27 .debug_aranges 00006da8  00000000  00000000  0044960b  2**0
                  CONTENTS, READONLY, DEBUGGING, OCTETS
 28 .debug_ranges 00041ab0  00000000  00000000  004503b3  2**0
                  CONTENTS, READONLY, DEBUGGING, OCTETS
 29 .debug_str    00150a52  00000000  00000000  00491e63  2**0
                  CONTENTS, READONLY, DEBUGGING, OCTETS
 30 .comment      0000017f  00000000  00000000  005e28b5  2**0
                  CONTENTS, READONLY
 31 .xtensa.info  00000038  00000000  00000000  005e2a34  2**0
                  CONTENTS, READONLY
 32 .debug_line   000d410e  00000000  00000000  005e2a6c  2**0
                  CONTENTS, READONLY, DEBUGGING, OCTETS
 33 .debug_frame  000078c8  00000000  00000000  006b6b7c  2**2
                  CONTENTS, READONLY, DEBUGGING, OCTETS
SYMBOL TABLE:
40080400 l    d  .rwtext	00000000 .rwtext
40081bbc l    d  .rwtext.wifi	00000000 .rwtext.wifi
3ffb0000 l    d  .data	00000000 .data
3ffb25bc l    d  .data.wifi	00000000 .data.wifi
3ffb27d0 l    d  .bss	00000000 .bss
3ffd17ac l    d  .noinit	00000000 .noinit
3f400020 l    d  .rodata_desc	00000000 .rodata_desc
3f400120 l    d  .rodata	00000000 .rodata
3f42cb50 l    d  .rodata.wifi	00000000 .rodata.wifi
400d0020 l    d  .text	00000000 .text
4018c3e8 l    d  .wifiorslpiram.27	00000000 .wifiorslpiram.27
400c0000 l    d  .rtc_fast.text	00000000 .rtc_fast.text
40080000 l    d  .vectors	00000000 .vectors
3ff80000 l    d  .rtc_fast.dummy	00000000 .rtc_fast.dummy
3ff80000 l    d  .rtc_fast.data	00000000 .rtc_fast.data
3ff80000 l    d  .rtc_fast.bss	00000000 .rtc_fast.bss
3ff80000 l    d  .rtc_fast.persistent	00000000 .rtc_fast.persistent
50000000 l    d  .rtc_slow.text	00000000 .rtc_slow.text
50000000 l    d  .rtc_slow.data	00000000 .rtc_slow.data
50000000 l    d  .rtc_slow.bss	00000000 .rtc_slow.bss
50000000 l    d  .rtc_slow.persistent	00000000 .rtc_slow.persistent
3ffd17ac l    d  .stack	00000000 .stack
3ffe7e30 l    d  .dram2_uninit	00000000 .dram2_uninit
00000000 l    d  .espressif.metadata	00000000 .espressif.metadata
00000000 l    d  .debug_loc	00000000 .debug_loc
00000000 l    d  .debug_abbrev	00000000 .debug_abbrev
00000000 l    d  .debug_info	00000000 .debug_info
00000000 l    d  .debug_aranges	00000000 .debug_aranges
00000000 l    d  .debug_ranges	00000000 .debug_ranges
00000000 l    d  .debug_str	00000000 .debug_str
00000000 l    d  .comment	00000000 .comment
00000000 l    d  .xtensa.info	00000000 .xtensa.info
00000000 l    d  .debug_line	00000000 .debug_line
00000000 l    d  .debug_frame	00000000 .debug_frame
00000000 l    df *ABS*	00000000 esp_test.7a41812277722213-cgu.0
00000000 l       *ABS*	00000000 XT_STK_PC
00000004 l       *ABS*	00000000 XT_STK_PS
00000008 l       *ABS*	00000000 XT_STK_A0
0000000c l       *ABS*	00000000 XT_STK_A1
00000010 l       *ABS*	00000000 XT_STK_A2
00000014 l       *ABS*	00000000 XT_STK_A3
00000018 l       *ABS*	00000000 XT_STK_A4
0000001c l       *ABS*	00000000 XT_STK_A5
00000020 l       *ABS*	00000000 XT_STK_A6
00000024 l       *ABS*	00000000 XT_STK_A7
00000028 l       *ABS*	00000000 XT_STK_A8
0000002c l       *ABS*	00000000 XT_STK_A9
00000030 l       *ABS*	00000000 XT_STK_A10
00000034 l       *ABS*	00000000 XT_STK_A11
00000038 l       *ABS*	00000000 XT_STK_A12
0000003c l       *ABS*	00000000 XT_STK_A13
00000040 l       *ABS*	00000000 XT_STK_A14
00000044 l       *ABS*	00000000 XT_STK_A15
00000048 l       *ABS*	00000000 XT_STK_SAR
0000004c l       *ABS*	00000000 XT_STK_EXCCAUSE
00000050 l       *ABS*	00000000 XT_STK_EXCVADDR
00000054 l       *ABS*	00000000 XT_STK_LBEG
00000058 l       *ABS*	00000000 XT_STK_LEND
0000005c l       *ABS*	00000000 XT_STK_LCOUNT
00000060 l       *ABS*	00000000 XT_STK_THREADPTR
00000064 l       *ABS*	00000000 XT_STK_SCOMPARE1
00000068 l       *ABS*	00000000 XT_STK_BR
0000006c l       *ABS*	00000000 XT_STK_ACCLO
00000070 l       *ABS*	00000000 XT_STK_ACCHI
00000074 l       *ABS*	00000000 XT_STK_M0
00000078 l       *ABS*	00000000 XT_STK_M1
0000007c l       *ABS*	00000000 XT_STK_M2
00000080 l       *ABS*	00000000 XT_STK_M3
00000084 l       *ABS*	00000000 XT_STK_F64R_LO_CPENABLE
00000088 l       *ABS*	00000000 XT_STK_F64R_HI
0000008c l       *ABS*	00000000 XT_STK_F64S
00000090 l       *ABS*	00000000 XT_STK_FCR
00000094 l       *ABS*	00000000 XT_STK_FSR
00000098 l       *ABS*	00000000 XT_STK_F0
0000009c l       *ABS*	00000000 XT_STK_F1
000000a0 l       *ABS*	00000000 XT_STK_F2
000000a4 l       *ABS*	00000000 XT_STK_F3
000000a8 l       *ABS*	00000000 XT_STK_F4
000000ac l       *ABS*	00000000 XT_STK_F5
000000b0 l       *ABS*	00000000 XT_STK_F6
000000b4 l       *ABS*	00000000 XT_STK_F7
000000b8 l       *ABS*	00000000 XT_STK_F8
000000bc l       *ABS*	00000000 XT_STK_F9
000000c0 l       *ABS*	00000000 XT_STK_F10
000000c4 l       *ABS*	00000000 XT_STK_F11
000000c8 l       *ABS*	00000000 XT_STK_F12
000000cc l       *ABS*	00000000 XT_STK_F13
000000d0 l       *ABS*	00000000 XT_STK_F14
000000d4 l       *ABS*	00000000 XT_STK_F15
000000d8 l       *ABS*	00000000 XT_STK_TMP
00000100 l       *ABS*	00000000 XT_STK_FRMSZ
00000003 l       *ABS*	00000000 PS_INTLEVEL_EXCM
0000000f l       *ABS*	00000000 PS_INTLEVEL_MASK
00000010 l       *ABS*	00000000 PS_EXCM
00000020 l       *ABS*	00000000 PS_UM
00040000 l       *ABS*	00000000 PS_WOE
400808a0 l       .rwtext	00000000 .HandleException
40080885 l       .rwtext	00000000 .RestoreContext
40080050 l       .vectors	00000000 _AllocAException
4008034c l       .vectors	00000000 .AllocAException
400ed454 l     F .text	00000021 _ZN4core9panicking11panic_const28panic_const_async_fn_resumed17h89ddfd77833e9119E
400eb0e4 l     F .text	0000002c _ZN4core4cell22panic_already_borrowed17hf3b1af380bdeb115E
400ed860 l     F .text	000000b0 _ZN7smoltcp5iface10socket_set9SocketSet7get_mut17h314257bd5418573cE
400ff248 l     F .text	00000056 _ZN7smoltcp6socket5waker17WakerRegistration8register17h56f68482131ea681E
400e97f4 l     F .text	00000015 _ZN4core9panicking9panic_fmt17hb8555b65dccd58aaE
400e9c58 l     F .text	0000000f _ZN4core5slice5index24slice_end_index_len_fail17h4024239d746064a2E
400eafa4 l     F .text	0000000f _ZN4core5slice5index22slice_index_order_fail17hd4a627f106b56974E
400d4a18 l     F .text	000001f7 _ZN100_$LT$embassy_net..tcp..client..TcpConnection$LT$_$C$_$C$_$GT$$u20$as$u20$embedded_io_async..Read$GT$4read28_$u7b$$u7b$closure$u7d$$u7d$17hf817642ab3279701E
400d4c10 l     F .text	000000d6 _ZN101_$LT$embassy_net..tcp..client..TcpConnection$LT$_$C$_$C$_$GT$$u20$as$u20$embedded_io_async..Write$GT$5flush28_$u7b$$u7b$closure$u7d$$u7d$17h3af1498b47b08c9cE
400d4ce8 l     F .text	000001c0 _ZN101_$LT$embassy_net..tcp..client..TcpConnection$LT$_$C$_$C$_$GT$$u20$as$u20$embedded_io_async..Write$GT$5write28_$u7b$$u7b$closure$u7d$$u7d$17h6e241c8dd539f3bcE
400edd0c l     F .text	00000105 _ZN11embassy_net5Stack4with17h39eb7787277ab837E
3ffcdcc0 l     O .bss	00000004 _ZN3log20MAX_LOG_LEVEL_FILTER17hc604844e5b22008aE.0
400ed678 l     F .text	00000095 _ZN3log13__private_api8log_impl17habc2f9db66e9295fE
400ee2b8 l     F .text	00000055 _ZN12embassy_sync9waitqueue18waker_registration17WakerRegistration8register17h40be9f48a641f733E
400d4ea8 l     F .text	000000d0 _ZN11embassy_net5Stack14wait_config_up28_$u7b$$u7b$closure$u7d$$u7d$17hfcaf3815a22e2779E
400ec504 l     F .text	00000012 _ZN4core6option13expect_failed17h292beaa006b1ba74E
400ed910 l     F .text	000000b2 _ZN7smoltcp5iface10socket_set9SocketSet7get_mut17h3a48ee1de84b0c4fE
400e9788 l     F .text	00000037 _ZN4core9panicking18panic_bounds_check17h25102d32941375b7E
400ea60c l     F .text	00000010 _ZN4core6option13unwrap_failed17h3e21f5807f17ebaaE
400d4f78 l     F .text	00000672 _ZN11embassy_net5Stack9dns_query28_$u7b$$u7b$closure$u7d$$u7d$17h63d55d6105581585E
400e97c0 l     F .text	00000031 _ZN4core3fmt3num3imp54_$LT$impl$u20$core..fmt..Display$u20$for$u20$usize$GT$3fmt17hd62904aa6d0f58d0E
400dfe04 l     F .text	00000043 _ZN59_$LT$embedded_io..ErrorKind$u20$as$u20$core..fmt..Debug$GT$3fmt17h18e6a5b8f61d13feE
400d55ec l     F .text	00000198 _ZN11esp_mbedtls6asynch16PollCtx$LT$T$GT$11raw_receive17hd90409e7b18e909fE
400d5784 l     F .text	00000175 _ZN11esp_mbedtls6asynch16PollCtx$LT$T$GT$8raw_send17h162e7198a5ad5fe5E
400d5d24 l     F .text	00000491 _ZN11esp_mbedtls6asynch16Session$LT$T$GT$7connect28_$u7b$$u7b$closure$u7d$$u7d$17h71322ccb42aa99bdE
400ed478 l     F .text	00000031 _ZN4core3fmt3num53_$LT$impl$u20$core..fmt..LowerHex$u20$for$u20$i32$GT$3fmt17h49e2bff8ac0b1812E
400ed4ac l     F .text	0000003c _ZN4core3fmt3num3imp52_$LT$impl$u20$core..fmt..Display$u20$for$u20$i32$GT$3fmt17h32273e60b10b9867E
400d58fc l     F .text	00000425 _ZN11esp_mbedtls6asynch16Session$LT$T$GT$5write28_$u7b$$u7b$closure$u7d$$u7d$17hd97d584f28e1aae8E
400d61c8 l     F .text	000001e6 _ZN15esp_hal_embassy8executor6thread8Executor9run_inner17h9373f2d7b9e937ceE
400d61b8 l     F .text	0000000d _ZN15esp_hal_embassy8executor6thread8Executor3run17h67e1a8f3f1051d76E
400efeac l     F .text	00000081 _ZN7esp_hal9interrupt6xtensa8vectored6enable17h9c0b7af2e4b6e24cE
400e02a4 l     F .text	0000004b _ZN70_$LT$esp_hal..interrupt..xtensa..Error$u20$as$u20$core..fmt..Debug$GT$3fmt17h8bb562fcfb934ee4E
400ef130 l     F .text	00000086 _ZN91_$LT$esp_hal..sync..critical_section..CriticalSection$u20$as$u20$critical_section..Impl$GT$7acquire17h0a954189851dd493E
3ffb3430 l     O .bss	00000004 _ZN8esp_test14__embassy_main4POOL17h590846b7715e9d3aE.0
3ffc3440 l     O .bss	0000a004 _ZN16embassy_executor7_export5ARENA17h37b65d6a94489129E
3ffb1390 l     O .data	00000004 _ZN7esp_hal4sync16critical_section16CRITICAL_SECTION17h282c67f9cd1fa67dE
400d8980 l     F .text	00004567 _ZN16embassy_executor3raw20TaskStorage$LT$F$GT$4poll17h86390823cb06743fE
400de910 l     F .text	0000002c _ZN16embassy_executor3raw4util19UninitCell$LT$T$GT$14write_in_place17h5dbbda1d083febc3E
3ffcd4b5 l     O .bss	00000002 _ZN15esp_hal_embassy8executor6thread23SIGNAL_WORK_THREAD_MODE17hba2ae0328880930fE
400813f0 l     F .rwtext	00000075 _ZN15esp_hal_embassy8executor6thread8Executor9wait_impl17hc7836ae979d17552E
400e0440 l     F .text	00000035 _ZN74_$LT$embassy_executor..spawner..SpawnError$u20$as$u20$core..fmt..Debug$GT$3fmt17h520c5ba4fda0de38E
3f412338 l     O .rodata	00000010 _ZN16embassy_executor3raw5waker6VTABLE17h0a1812222e206b3bE
400e2554 l     F .text	00006f1b _ZN8esp_test22__print_public_ip_task28_$u7b$$u7b$closure$u7d$$u7d$17h83d3b92edab4d73aE
400d63b0 l     F .text	00000043 _ZN16embassy_executor3raw20TaskStorage$LT$F$GT$4poll17h120a270e79ade3e4E
400f7378 l     F .text	00000064 _ZN8esp_wifi4wifi7embassy83_$LT$impl$u20$embassy_net_driver..Driver$u20$for$u20$esp_wifi..wifi..WifiDevice$GT$16hardware_address17ha731d2456acd4f44E
400edc2c l     F .text	00000074 _ZN11embassy_net27to_smoltcp_hardware_address17hc80d7b74bea7cc5eE
400e9f54 l     F .text	00000025 _ZN4core9panicking5panic17h333c3597a73b7176E
400f92ec l     F .text	0000006c _ZN44_$LT$$RF$T$u20$as$u20$core..fmt..Display$GT$3fmt17h24de23a50a900906E
3ffb1594 l     O .data	0000000c _ZN8esp_wifi4wifi7embassy17STA_RECEIVE_WAKER17he4e2af714bedf225E
3ffb157c l     O .data	0000000c _ZN8esp_wifi4wifi7embassy16AP_RECEIVE_WAKER17he526abdc3dce56caE
400ef1b8 l     F .text	00000082 _ZN12embassy_sync9waitqueue12atomic_waker27GenericAtomicWaker$LT$M$GT$8register17h89c1f2939d375fdbE
3ffb1570 l     O .data	0000000c _ZN8esp_wifi4wifi7embassy14TRANSMIT_WAKER17h8bb5573a1d042354E
3ffb155c l     O .data	00000014 _ZN8esp_wifi4wifi17DATA_QUEUE_RX_STA17h70b0a271cc00ce60E
3ffb1548 l     O .data	00000014 _ZN8esp_wifi4wifi16DATA_QUEUE_RX_AP17hb7703ee3e5edab48E
400ef4ec l     F .text	00000053 _ZN7esp_hal4sync18LockGuard$LT$L$GT$3new17hc1781d30f0f414faE
3ffcdc9c l     O .bss	00000004 _ZN8esp_wifi4wifi16WIFI_TX_INFLIGHT17h112373643bb31872E
400f9c2c l     F .text	000000e9 _ZN7smoltcp5iface9interface14InterfaceInner15in_same_network17h3196cd57d211b94cE
400fa124 l     F .text	000001bb _ZN7smoltcp5iface8neighbor5Cache4fill17ha2d7b0084beae030E
400fa2e0 l     F .text	00000056 _ZN7smoltcp4wire15HardwareAddress17ethernet_or_panic17hc1f8b7dfd7779b72E
400fa0c4 l     F .text	0000005e _ZN7smoltcp4wire4ipv415Packet$LT$T$GT$11new_checked17h2f2bbdb3c1cfb419E
400fa338 l     F .text	00001a1c _ZN7smoltcp5iface9interface4ipv459_$LT$impl$u20$smoltcp..iface..interface..InterfaceInner$GT$12process_ipv417h7d6ce0baf7be0d88E
400e05d8 l     F .text	00000ee7 _ZN7smoltcp5iface9interface14InterfaceInner11dispatch_ip17h6a3461cf93708437E
3ffcd5ce l     O .bss	000005d4 _ZN8esp_wifi4wifi11WifiTxToken13consume_token6BUFFER17h231d48b315b1d5feE
400e0478 l     F .text	0000015d _ZN7smoltcp4wire3arp4Repr4emit17hd579025a2ce4feb2E
400f71f4 l     F .text	0000012a _ZN8esp_wifi4wifi18esp_wifi_send_data17h649ca6fb3e16a816E
400f62f4 l     F .text	00000068 _ZN86_$LT$esp_wifi..wifi..private..EspWifiPacketBuffer$u20$as$u20$core..ops..drop..Drop$GT$4drop17h2425157a9d356c6cE
400ef4b4 l     F .text	00000035 _ZN60_$LT$esp_hal..fmt..NoneError$u20$as$u20$core..fmt..Debug$GT$3fmt17hb76e01d155bbe075E
400f9a1c l     F .text	0000008f _ZN7smoltcp5iface9interface14InterfaceInner12has_neighbor17hb87fc0b714554b27E
400f7320 l     F .text	00000055 _ZN8esp_wifi4wifi7embassy83_$LT$impl$u20$embassy_net_driver..Driver$u20$for$u20$esp_wifi..wifi..WifiDevice$GT$8transmit17hb623dd383039702bE
400fec80 l     F .text	000000a6 _ZN7smoltcp4wire6dhcpv44Repr10buffer_len17h00e81fd36b3827a4E
400f97f4 l     F .text	000000e3 _ZN7smoltcp6socket3tcp6Socket15seq_to_transmit17h05249e564b6a05f9E
400fd5b0 l     F .text	00000051 _ZN7smoltcp6socket3tcp6Socket9set_state17hc43890ee1beec571E
400f99b4 l     F .text	00000065 _ZN7smoltcp6socket3tcp6Socket15ack_to_transmit17h6183d5fb51fc5aa2E
400f98d8 l     F .text	000000da _ZN7smoltcp6socket3tcp6Socket16window_to_update17h0174922482e21a24E
400ff394 l     F .text	000000de _ZN7smoltcp6socket3tcp6Socket5reset17hff4b151eac08934bE
400ff5d8 l     F .text	00000049 _ZN84_$LT$smoltcp..wire..tcp..SeqNumber$u20$as$u20$core..ops..arith..Add$LT$usize$GT$$GT$3add17ha3c27883b3bf53a5E
400ff624 l     F .text	0000004a _ZN71_$LT$smoltcp..wire..tcp..SeqNumber$u20$as$u20$core..ops..arith..Sub$GT$3sub17h0dbddb8c03c0b8f1E
400ff474 l     F .text	00000079 _ZN7smoltcp7storage11ring_buffer19RingBuffer$LT$T$GT$13get_allocated17h0880c3fae2a725bcE
400fe1a4 l     F .text	00000098 _ZN7smoltcp4wire3tcp4Repr10header_len17h4bc0ed7751276aa9E
400ff2a0 l     F .text	00000099 _ZN7smoltcp6socket3tcp5Timer18set_for_retransmit17hb93b33cfa48dc96eE
400ff4f0 l     F .text	0000006b _ZN7smoltcp7storage11ring_buffer19RingBuffer$LT$T$GT$16dequeue_one_with17h32f4259ef491740dE
400ed430 l     F .text	00000021 _ZN4core9panicking11panic_const23panic_const_rem_by_zero17h7fc7a6cc9a838babE
3ffb15a0 l     O .data	0000000c _ZN8esp_wifi4wifi7embassy20STA_LINK_STATE_WAKER17h7bdd19fd069f4e92E
3ffb1588 l     O .data	0000000c _ZN8esp_wifi4wifi7embassy19AP_LINK_STATE_WAKER17hd2a1748b50f32aadE
3ffb1540 l     O .data	00000004 _ZN8esp_wifi4wifi5state9STA_STATE17hc1edc6b39464d063E
3ffb1544 l     O .data	00000004 _ZN8esp_wifi4wifi5state8AP_STATE17h7245206c24b3cbc1E
400f70b4 l     F .text	00000049 _ZN8esp_wifi4wifi5state15AtomicWifiState10from_usize17h0858f1a072a1ab36E
400deee0 l     F .text	0000004a _ZN41_$LT$bool$u20$as$u20$core..fmt..Debug$GT$3fmt17h4f51b4241f1e55a6E
400ed7ac l     F .text	000000b2 _ZN7smoltcp5iface10socket_set9SocketSet7get_mut17h1cfabbcddd505b78E
400ede14 l     F .text	00000414 _ZN11embassy_net5Inner19apply_static_config17h05a8a38f9d45f715E
400f940c l     F .text	000003e5 _ZN7smoltcp5iface9interface9Interface7poll_at28_$u7b$$u7b$closure$u7d$$u7d$17h35a69af72acb3a47E
400d63f4 l     F .text	0000258b _ZN16embassy_executor3raw20TaskStorage$LT$F$GT$4poll17h76ec109fc439d161E
3ffcdcbc l     O .bss	00000004 _ZN3log5STATE17h4a82eb5737cb86e7E.0
3ffb17d4 l     O .data	00000004 _ZN3log6LOGGER17h7a9234779a12fa2cE.1
400ef590 l     F .text	000003bb _ZN7esp_hal6system22PeripheralClockControl21enable_forced_with_cs17h2831481cf09e2e90E
400f05fc l     F .text	000000f8 _ZN7esp_hal8rtc_cntl3Rtc3new17ha889e1809e3999f5E
400f07ac l     F .text	00000158 _ZN7esp_hal8rtc_cntl8RtcClock18calibrate_internal17hee9cb59f5b693a25E
3ffcd44c l     O .bss	00000004 _ZN7esp_hal5clock13ACTIVE_CLOCKS17h72b5fb1e031d8802E.1
3ffcd448 l     O .bss	00000001 _ZN7esp_hal5clock13ACTIVE_CLOCKS17h72b5fb1e031d8802E.0
3ffcd450 l     O .bss	00000001 _ZN7esp_hal5clock13ACTIVE_CLOCKS17h72b5fb1e031d8802E.2
400ef45c l     F .text	00000058 _ZN7esp_hal5clock6Clocks3get17h852572533e4d079bE
40081aa8 l     O .rwtext	00000114 _ZN5esp3212__INTERRUPTS17h84d9b725d44260f3E
40080c68 l     F .rwtext	00000373 _ZN7esp_hal4gpio9interrupt30default_gpio_interrupt_handler17hfcef55acd08996a0E
3ffb3434 l     O .bss	00010000 _ZN8esp_test21____embassy_main_task28_$u7b$$u7b$closure$u7d$$u7d$4HEAP17h43cde611bd768a79E
400ee758 l     F .text	00000059 _ZN9esp_alloc10HeapRegion3new17h7f0e62d0eced2989E
400ee7b4 l     F .text	000000c4 _ZN9esp_alloc7EspHeap10add_region17hdd8a0f7bd356254aE
3ffe7e30 l     O .dram2_uninit	00010000 _ZN8esp_test21____embassy_main_task28_$u7b$$u7b$closure$u7d$$u7d$4HEAP17h5cadedc98f77b90cE
400ef990 l     F .text	00000085 _ZN7esp_hal6system22PeripheralClockControl5reset17h7aae1745bac65f52E
400ef540 l     F .text	00000050 _ZN7esp_hal6system22PeripheralClockControl13enable_forced17h76c309503821affdE
40081468 l     F .rwtext	0000002f _ZN15esp_hal_embassy4init19software3_interrupt17h80f06a11cf1589aeE
3ffcd4b8 l     O .bss	0000000c _ZN73_$LT$esp_hal..timer..timg..Timer$u20$as$u20$esp_hal_embassy..TimeBase$GT$6timers11STATIC_CELL17ha38db5a40874f604E
400f02a0 l     F .text	00000050 _ZN69_$LT$esp_hal..timer..timg..Timer$u20$as$u20$esp_hal..timer..Timer$GT$4stop17hf04f564de7e9c490E
3ffb1394 l     O .data	0000007c _ZN15esp_hal_embassy11time_driver6DRIVER17h0c665c6edb6fb804E
3ffb342c l     O .bss	00000001 _ZN8esp_test7MBEDTLS17hf49a806ec4111b99E
3ffcd4cd l     O .bss	00000001 _ZN11esp_mbedtls11TLS_CREATED17hf5aabd3bf70b4bfbE.0
3ffcd4c8 l     O .bss	00000004 _ZN11esp_mbedtls7esp_hal10SHARED_SHA17h5caf5bc97e3dd834E.0
3ffcd4cc l     O .bss	00000001 _ZN11esp_mbedtls7esp_hal10SHARED_SHA17h5caf5bc97e3dd834E.1
3ffcd4c4 l     O .bss	00000001 _ZN11esp_mbedtls7esp_hal7RSA_REF17h542d00ae1cf92088E.0
3ffb342d l     O .bss	00000001 _ZN8esp_test3RTC17h87d68d91da8a89b3E
400e00fc l     F .text	000000fc _ZN68_$LT$esp_wifi..config..EspWifiConfig$u20$as$u20$core..fmt..Debug$GT$3fmt17h153d4046f7a126f0E
3ffcdca4 l     O .bss	00000004 _ZN8esp_wifi14common_adapter13chip_specific22G_PHY_DIGITAL_REGS_MEM17hc95786e510ffcb19E.0
3ffcdba2 l     O .bss	00000054 _ZN8esp_wifi14common_adapter13chip_specific20SOC_PHY_DIG_REGS_MEM17h3ee21bba012fe099E
400f6f08 l     F .text	00000088 _ZN8esp_wifi15preempt_builtin5timer18timer_tick_handler17h27b7156150b62421E
400f0484 l     F .text	00000176 _ZN7esp_hal5timer4timg5Timer21set_interrupt_handler17h1700246563df19e5E
400f041c l     F .text	00000066 _ZN69_$LT$esp_hal..timer..timg..Timer$u20$as$u20$esp_hal..timer..Timer$GT$15clear_interrupt17hf425deb259e95575E
400f02f0 l     F .text	000000cd _ZN69_$LT$esp_hal..timer..timg..Timer$u20$as$u20$esp_hal..timer..Timer$GT$10load_value17h931e32dafea58fdcE
400f66bc l     F .text	00000043 _ZN58_$LT$esp_hal..timer..Error$u20$as$u20$core..fmt..Debug$GT$3fmt17hfd5a0fe38394c108E.420
400f0158 l     F .text	00000096 _ZN69_$LT$esp_hal..timer..timg..Timer$u20$as$u20$esp_hal..timer..Timer$GT$5start17hb6ca3bde6139e444E
3ffb141c l     O .data	00000010 _ZN8esp_wifi15preempt_builtin5timer5TIMER17h9af68a5154890981E
400f6f90 l     F .text	00000094 _ZN92_$LT$esp_wifi..preempt_builtin..BuiltinScheduler$u20$as$u20$esp_wifi..preempt..Scheduler$GT$6enable17hed8fdeb6dda62481E
400f7f28 l     F .text	00000158 _ZN8esp_wifi5tasks10timer_task17h3745337042ea54e0E
400f6080 l     F .text	00000156 _ZN92_$LT$esp_wifi..preempt_builtin..BuiltinScheduler$u20$as$u20$esp_wifi..preempt..Scheduler$GT$11task_create17h56b62450b639c51dE
3ffb27d0 l     O .bss	00000001 _ZN8esp_test9WIFI_INIT17hd3d7551ec7e4bd20E
3ffb1440 l     O .data	000000e0 _ZN8esp_wifi4wifi8internal8G_CONFIG17hb8ef01242c6cea8dE
400817b4 l     F .rwtext	00000094 _ZN8esp_wifi4wifi19esp_wifi_tx_done_cb17h9c5929343ee10b40E
400f73dc l     F .text	000000df _ZN8esp_wifi4wifi11recv_cb_sta17h44176dff9ccf3a1eE
400f74bc l     F .text	000000df _ZN8esp_wifi4wifi10recv_cb_ap17hc69c008d77094d6fE
400f759c l     F .text	0000004e _ZN10num_traits4cast13FromPrimitive8from_i3217hda308bc023fcbc7dE
3ffcdc6c l     O .bss	00000030 _ZN8esp_wifi4wifi9wifi_init10NVS_STRUCT17hcbc864221f49a8c6E
400f75ec l     F .text	000000bf _ZN8esp_wifi4wifi14WifiController16set_power_saving17h6163ff0b401581ccE
400f76ac l     F .text	00000234 _ZN72_$LT$esp_wifi..wifi..WifiController$u20$as$u20$core..ops..drop..Drop$GT$4drop17h98000990a0c7fb19E
400eb7c0 l     F .text	0000003e _ZN4core6result13unwrap_failed17h5c23218e4cd4625dE
3ffc3438 l     O .bss	00000004 _ZN8esp_test12wifi_connect4POOL17hc121436afb92c7b1E.0
400dcee8 l     F .text	00001a28 _ZN16embassy_executor3raw20TaskStorage$LT$F$GT$4poll17hdbeafd3a620a239aE
400de974 l     F .text	0000002a _ZN16embassy_executor3raw4util19UninitCell$LT$T$GT$14write_in_place17hb51a46abd98f2985E
3ffb27d8 l     O .bss	00000c40 _ZN8esp_test13NET_RESOURCES17h3d8a98c70aad683cE
400dfaf8 l     F .text	00000021 _ZN4core9panicking13assert_failed17hdbfe3470bc8b0127E
400feb3c l     F .text	000000c4 _ZN7smoltcp5iface10socket_set9SocketSet3add3put17h4debfca909b2bdc7E
3ffb3418 l     O .bss	00000008 _ZN8esp_test9NET_STACK17h99b3998a74b9788aE
3ffb3420 l     O .bss	0000000c _ZN8esp_test10NET_RUNNER17h54bc3b7e7d14f198E
3ffc3434 l     O .bss	00000004 _ZN8esp_test8net_task4POOL17h6350a9b63bdbc7c4E.0
400de9a0 l     F .text	0000002f _ZN16embassy_executor3raw4util19UninitCell$LT$T$GT$14write_in_place17hb74bdf75222ded7cE
400dff60 l     F .text	00000057 _ZN62_$LT$smoltcp..wire..ipv4..Cidr$u20$as$u20$core..fmt..Debug$GT$3fmt17h3c9172df985ca343E
400ed9c4 l     F .text	000000b2 _ZN7smoltcp5iface10socket_set9SocketSet7get_mut17hb0b1cc862ecbe97cE
400ee310 l     F .text	00000035 _ZN12embassy_sync9waitqueue18waker_registration17WakerRegistration4wake17hf239f5131736d46dE
400df9a0 l     F .text	000000d9 _ZN4core3ptr79drop_in_place$LT$embassy_net..Stack..dns_query..$u7b$$u7b$closure$u7d$$u7d$$GT$17h5761c2e84808f204E
400ec2b8 l     F .text	0000024c _ZN71_$LT$core..net..socket_addr..SocketAddr$u20$as$u20$core..fmt..Debug$GT$3fmt17ha59ddf862d6e8425E
400ed3c4 l     F .text	00000035 _ZN4core3fmt3num3imp52_$LT$impl$u20$core..fmt..Display$u20$for$u20$u64$GT$3fmt17h64ef4ec31dac3e6aE
400eb110 l     F .text	0000002c _ZN4core4cell30panic_already_mutably_borrowed17h4a05a7215b94019aE
400fded4 l     F .text	0000010b _ZN7smoltcp7storage13packet_buffer21PacketBuffer$LT$H$GT$7enqueue17h30c6673b806e78ecE
400ea798 l     F .text	0000000f _ZN4core5slice29_$LT$impl$u20$$u5b$T$u5d$$GT$15copy_from_slice17len_mismatch_fail17hcd8757f7a1ca6a23E
400ff55c l     F .text	0000007a _ZN7smoltcp7storage11ring_buffer19RingBuffer$LT$T$GT$17dequeue_many_with17hf7054b401ab0e372E
400e0004 l     F .text	00000035 _ZN64_$LT$embassy_net..udp..RecvError$u20$as$u20$core..fmt..Debug$GT$3fmt17h02bfc170196d52e2E
400ff6d8 l     F .text	000006dc _ZN5sntpc16process_response17h043a8a6bfd653424E
400df3d8 l     F .text	0000007a _ZN42_$LT$$RF$T$u20$as$u20$core..fmt..Debug$GT$3fmt17hf2cb904066fcf5c8E
400dfe48 l     F .text	00000078 _ZN60_$LT$sntpc..types..NtpResult$u20$as$u20$core..fmt..Debug$GT$3fmt17hc9ec60016a233a46E
400edbd0 l     F .text	0000005a _ZN69_$LT$embassy_net..udp..UdpSocket$u20$as$u20$core..ops..drop..Drop$GT$4drop17hcd388ee8df7b5bc5E
3ffc343c l     O .bss	00000004 _ZN8esp_test15print_public_ip4POOL17h8a832d1ee96d1948E.0
400de93c l     F .text	00000036 _ZN16embassy_executor3raw4util19UninitCell$LT$T$GT$14write_in_place17had01ca707b22e01eE
400ee348 l     F .text	00000070 _ZN75_$LT$embassy_time..timer..Timer$u20$as$u20$core..future..future..Future$GT$4poll17h665c0fdca16178cdE
3ffcdbf8 l     O .bss	00000064 _ZN9esp_alloc4HEAP17hd7d24eb5f15f4ab9E
400dfcc8 l     F .text	00000081 _ZN57_$LT$esp_alloc..HeapStats$u20$as$u20$core..fmt..Debug$GT$3fmt17h445f5bc679e3e112E
400e003c l     F .text	00000043 _ZN64_$LT$embassy_net..udp..SendError$u20$as$u20$core..fmt..Debug$GT$3fmt17h32bd8fbca5481ca8E
400ff33c l     F .text	00000058 _ZN66_$LT$smoltcp..wire..ip..Endpoint$u20$as$u20$core..fmt..Display$GT$3fmt17h41e039cf97e58f46E
400dfc84 l     F .text	00000043 _ZN56_$LT$sntpc..types..Error$u20$as$u20$core..fmt..Debug$GT$3fmt17h294239007be0fbe4E
3ffb1528 l     O .data	00000018 _ZN8esp_wifi4wifi10os_adapter11WIFI_EVENTS17h51d1ef79ba8535c0E
400e024c l     F .text	00000056 _ZN70_$LT$core..result..Result$LT$T$C$E$GT$$u20$as$u20$core..fmt..Debug$GT$3fmt17h6ae98849330f4470E
400f7100 l     F .text	000000f1 _ZN8esp_wifi4wifi8WifiMode7current17h152d0116ca6c672eE
3ffb15ac l     O .data	0000000c _ZN8esp_wifi4wifi9WifiEvent5waker5WAKER17h65ba450df860283dE
400e96c0 l     F .text	00000059 _ZN5alloc5slice64_$LT$impl$u20$alloc..borrow..ToOwned$u20$for$u20$$u5b$T$u5d$$GT$8to_owned17hd807efbbfaeb5839E
400e9644 l     F .text	0000004b _ZN77_$LT$alloc..raw_vec..RawVec$LT$T$C$A$GT$$u20$as$u20$core..ops..drop..Drop$GT$4drop17h9b697b32291a8463E
400f7ad4 l     F .text	0000018f _ZN8esp_wifi4wifi15apply_ap_config17h0950d6a4d63825e3E
400f78e0 l     F .text	000001f2 _ZN8esp_wifi4wifi16apply_sta_config17h19e6e2ddb2feb5cdE
400f7c64 l     F .text	00000112 _ZN85_$LT$esp_wifi..wifi..MultiWifiEventFuture$u20$as$u20$core..future..future..Future$GT$4poll17h5cb74e2ecbd7403aE
400dfec0 l     F .text	0000009e _ZN62_$LT$esp_wifi..wifi..WifiError$u20$as$u20$core..fmt..Debug$GT$3fmt17hf834e932a5f64e2bE
400e156c l     F .text	000004f1 _ZN85_$LT$reqwless..client..HttpConnection$LT$T$GT$$u20$as$u20$embedded_io_async..Read$GT$4read28_$u7b$$u7b$closure$u7d$$u7d$17haae6495351957d0fE
400e9c10 l     F .text	0000000f _ZN4core5slice5index26slice_start_index_len_fail17h8e8fe2d8cebe01ccE
400de9d0 l     F .text	0000012d _ZN17embedded_io_async4Read10read_exact28_$u7b$$u7b$closure$u7d$$u7d$17hbea088e03d1d72cfE
400deb00 l     F .text	00000102 _ZN17embedded_io_async4Read10read_exact28_$u7b$$u7b$closure$u7d$$u7d$17hcc6eb53ed79f339cE
400f9078 l     F .text	00000074 _ZN4core5slice29_$LT$impl$u20$$u5b$T$u5d$$GT$11copy_within17h901c1ebba19b6176E
400dec04 l     F .text	00000151 _ZN17embedded_io_async4Read10read_exact28_$u7b$$u7b$closure$u7d$$u7d$17he286909ee560ae52E
400ded58 l     F .text	000000e6 _ZN17embedded_io_async5Write9write_all28_$u7b$$u7b$closure$u7d$$u7d$17h416ec6344a347f6fE
400dee40 l     F .text	0000009f _ZN3hex15decode_to_slice17hb906ce4a6097c1b0E
400e9ca0 l     F .text	000002b2 _ZN4core3fmt9Formatter3pad17hbd255515172af9d8E
400df6d8 l     F .text	00000055 _ZN4core3fmt3num52_$LT$impl$u20$core..fmt..Debug$u20$for$u20$usize$GT$3fmt17h8c624e28a34d62acE
400eb3c8 l     F .text	0000012a _ZN4core3fmt8builders11DebugStruct10field_with17h481d2e09a2973289E
400df2e0 l     F .text	000000f6 _ZN42_$LT$$RF$T$u20$as$u20$core..fmt..Debug$GT$3fmt17he30a8302746fdc90E
400eb034 l     F .text	00000067 _ZN4core3fmt8builders11DebugStruct6finish17ha87404231ebf1410E
400def2c l     F .text	00000096 _ZN42_$LT$$RF$T$u20$as$u20$core..fmt..Debug$GT$3fmt17h0c4bb2e2989212c2E
400e9730 l     F .text	00000057 _ZN42_$LT$$RF$T$u20$as$u20$core..fmt..Debug$GT$3fmt17h74504307933db1aaE
400ec9c0 l     F .text	00000069 _ZN4core3fmt9Formatter26debug_struct_field2_finish17h8c48a5ca627768fdE
400defc4 l     F .text	00000055 _ZN42_$LT$$RF$T$u20$as$u20$core..fmt..Debug$GT$3fmt17h1029e26f99a52954E
400ecbcc l     F .text	0000048d _ZN40_$LT$str$u20$as$u20$core..fmt..Debug$GT$3fmt17h97beb5af829d6bf0E
400df01c l     F .text	00000037 _ZN42_$LT$$RF$T$u20$as$u20$core..fmt..Debug$GT$3fmt17h1b6771813f13ced2E
400dfd4c l     F .text	000000b5 _ZN58_$LT$esp_mbedtls..TlsError$u20$as$u20$core..fmt..Debug$GT$3fmt17h15a54fb246ba8239E
400df054 l     F .text	00000031 _ZN42_$LT$$RF$T$u20$as$u20$core..fmt..Debug$GT$3fmt17h1f5bde1ca1359437E
400df088 l     F .text	0000004d _ZN42_$LT$$RF$T$u20$as$u20$core..fmt..Debug$GT$3fmt17h21a19d46ede3cd11E
400df0d8 l     F .text	000000f3 _ZN42_$LT$$RF$T$u20$as$u20$core..fmt..Debug$GT$3fmt17h43a042d05f0e8b1cE
400ecab4 l     F .text	000000cb _ZN4core3fmt9Formatter25debug_tuple_field1_finish17had0ac37a95bc2ff7E
400df1cc l     F .text	00000056 _ZN42_$LT$$RF$T$u20$as$u20$core..fmt..Debug$GT$3fmt17h4a3cd89fd6338356E
400df224 l     F .text	00000045 _ZN42_$LT$$RF$T$u20$as$u20$core..fmt..Debug$GT$3fmt17h4b8cd78e76a8aac3E
400ec8d0 l     F .text	00000075 _ZN4core3fmt3num12GenericRadix7fmt_int17h8a004cc096f36dc8E
400ec948 l     F .text	00000075 _ZN4core3fmt3num12GenericRadix7fmt_int17hac2da43162f53087E
400ea54c l     F .text	0000009b _ZN4core3fmt3num3imp20_$LT$impl$u20$u8$GT$4_fmt17h029bc1a39f06ea85E
400df26c l     F .text	00000071 _ZN42_$LT$$RF$T$u20$as$u20$core..fmt..Debug$GT$3fmt17h823b27a1e791f770E
400eca2c l     F .text	00000088 _ZN4core3fmt9Formatter26debug_struct_fields_finish17h361914f88d33e930E
400df454 l     F .text	00000035 _ZN44_$LT$$RF$T$u20$as$u20$core..fmt..Display$GT$3fmt17h92c242deaa894275E
400df48c l     F .text	0000005f _ZN4core3fmt3num49_$LT$impl$u20$core..fmt..Debug$u20$for$u20$u8$GT$3fmt17hed50e978b0869095E
400ea214 l     F .text	00000089 _ZN4core3fmt3num12GenericRadix7fmt_int17h267f8bbd7f23cb46E
400ea48c l     F .text	00000089 _ZN4core3fmt3num12GenericRadix7fmt_int17ha832d417b33a870bE
400ea2a0 l     F .text	000001ea _ZN4core3fmt3num3imp21_$LT$impl$u20$u64$GT$4_fmt17hd23f56c66462d319E
400df4ec l     F .text	00000088 _ZN4core3fmt3num50_$LT$impl$u20$core..fmt..Debug$u20$for$u20$i64$GT$3fmt17h055e2a946fcbe7abE
400eb13c l     F .text	00000075 _ZN4core3fmt3num12GenericRadix7fmt_int17h96dcff94b179d2d9E
400e9958 l     F .text	000001c2 _ZN4core3fmt9Formatter12pad_integral17h64c6bc1ab36baf49E
400ebf64 l     F .text	000000f9 _ZN4core3fmt3num3imp52_$LT$impl$u20$core..fmt..Display$u20$for$u20$u16$GT$3fmt17h028013635fc526ccE
400df574 l     F .text	000000a2 _ZN4core3fmt3num50_$LT$impl$u20$core..fmt..Debug$u20$for$u20$u16$GT$3fmt17h4a4e152631317e7fE
400ea7e4 l     F .text	00000071 _ZN4core3fmt3num12GenericRadix7fmt_int17h5db32912ad78f381E
400ea858 l     F .text	00000071 _ZN4core3fmt3num12GenericRadix7fmt_int17hb88b1bddb70916d9E
400ea650 l     F .text	00000147 _ZN4core3fmt3num3imp21_$LT$impl$u20$u32$GT$4_fmt17hc62120785855578aE
400df618 l     F .text	0000005c _ZN4core3fmt3num50_$LT$impl$u20$core..fmt..Debug$u20$for$u20$u32$GT$3fmt17hdfa468271695a229E
400df674 l     F .text	00000062 _ZN4core3fmt3num50_$LT$impl$u20$core..fmt..Debug$u20$for$u20$u64$GT$3fmt17h9ad6dbbdbacfa7d4E
400e980c l     F .text	0000014a _ZN4core3fmt3num3imp23_$LT$impl$u20$usize$GT$4_fmt17hafcfffdcbf513db2E
400ea0cc l     F .text	00000148 _ZN4core3fmt5write17h6c72d92f235dad40E
400df730 l     F .text	00000034 _ZN4core3fmt5Write9write_fmt17h5fb74c79c1d98d8cE
400fec00 l     F .text	00000080 _ZN7smoltcp5iface10socket_set9SocketSet6remove17h8f09589e647d6e58E
400edb30 l     F .text	000000a0 _ZN4core3ptr44drop_in_place$LT$smoltcp..socket..Socket$GT$17h2dc74f2068ce08d4E
400df764 l     F .text	00000105 _ZN4core3ptr101drop_in_place$LT$embassy_net..tcp..client..TcpConnection$LT$1_usize$C$1024_usize$C$1024_usize$GT$$GT$17he602fb349aacd18dE
400df86c l     F .text	000000cc _ZN4core3ptr137drop_in_place$LT$esp_mbedtls..asynch..Session$LT$embassy_net..tcp..client..TcpConnection$LT$1_usize$C$1024_usize$C$1024_usize$GT$$GT$$GT$17h4bd00b9acc30f996E
400df938 l     F .text	0000003d _ZN4core3ptr143drop_in_place$LT$$LT$embassy_net..dns..DnsSocket$u20$as$u20$embedded_nal_async..dns..Dns$GT$..get_host_by_name..$u7b$$u7b$closure$u7d$$u7d$$GT$17h32cf4fd44201167eE
400df978 l     F .text	00000025 _ZN4core3ptr62drop_in_place$LT$heapless..string..String$LT$128_usize$GT$$GT$17he9c1b22a5161e304E
400ec64c l     F .text	000000c5 _ZN4core3fmt8builders9DebugList5entry17h9b4414c1ad6a695dE
400dfa7c l     F .text	0000007a _ZN4core5array69_$LT$impl$u20$core..fmt..Debug$u20$for$u20$$u5b$T$u3b$$u20$N$u5d$$GT$3fmt17h6efdf368be157698E
400e9f7c l     F .text	000000b3 _ZN4core9panicking19assert_failed_inner17ha26dfd2aba65107cE
400dfb1c l     F .text	0000004b _ZN52_$LT$esp_test..Error$u20$as$u20$core..fmt..Debug$GT$3fmt17hfe1a24ec59c404d9E
400dfb68 l     F .text	00000043 _ZN52_$LT$httparse..Error$u20$as$u20$core..fmt..Debug$GT$3fmt17h7aedfae811db80a9E
400f121c l     F .text	00000045 _ZN42_$LT$$RF$T$u20$as$u20$core..fmt..Debug$GT$3fmt17h34db8a614580918dE
400dfbac l     F .text	000000d8 _ZN52_$LT$reqwless..Error$u20$as$u20$core..fmt..Debug$GT$3fmt17he6f498c463974e2aE
400ec58c l     F .text	00000055 _ZN42_$LT$$RF$T$u20$as$u20$core..fmt..Debug$GT$3fmt17he658fd37c7bcfe24E
400f6530 l     F .text	00000067 _ZN42_$LT$$RF$T$u20$as$u20$core..fmt..Debug$GT$3fmt17h605e5bebe15976bdE
400f6448 l     F .text	000000e7 _ZN42_$LT$$RF$T$u20$as$u20$core..fmt..Debug$GT$3fmt17heac9460daf59540bE
400f9208 l     F .text	00000061 _ZN42_$LT$$RF$T$u20$as$u20$core..fmt..Debug$GT$3fmt17h577b7efdafb00521E
400ebefc l     F .text	00000031 _ZN65_$LT$core..net..ip_addr..Ipv4Addr$u20$as$u20$core..fmt..Debug$GT$3fmt17h0301b8942b0a95a4E
400dffb8 l     F .text	0000004b _ZN64_$LT$embassy_net..udp..BindError$u20$as$u20$core..fmt..Debug$GT$3fmt17h386070286429cef3E
400f63a8 l     F .text	000000a0 _ZN42_$LT$$RF$T$u20$as$u20$core..fmt..Debug$GT$3fmt17h355b063f113cce5fE
400e0080 l     F .text	0000007a _ZN66_$LT$esp_wifi..InitializationError$u20$as$u20$core..fmt..Debug$GT$3fmt17hc8bdb935d2d2dbe7E
400e01f8 l     F .text	00000053 _ZN70_$LT$core..result..Result$LT$T$C$E$GT$$u20$as$u20$core..fmt..Debug$GT$3fmt17h33a60cb81ef31c65E
400e02f0 l     F .text	000000fa _ZN70_$LT$heapless..string..String$LT$_$GT$$u20$as$u20$core..fmt..Write$GT$10write_char17hd78dcdcab77e1f24E
400e03ec l     F .text	00000054 _ZN70_$LT$heapless..string..String$LT$_$GT$$u20$as$u20$core..fmt..Write$GT$9write_str17h2b405399808b57b0E
400fc904 l     F .text	000000ec _ZN7smoltcp5iface9interface4ipv459_$LT$impl$u20$smoltcp..iface..interface..InterfaceInner$GT$15is_broadcast_v417h5e40d4a16c7ab17fE
400f9aac l     F .text	00000085 _ZN7smoltcp5iface9interface14InterfaceInner5route17h7e30e1e38bb48a94E
400f9b34 l     F .text	000000f6 _ZN7smoltcp5iface8neighbor5Cache6lookup17h3b2eae382ee3c3a4E
400e14c0 l     F .text	000000aa _ZN7smoltcp5iface9interface8ethernet59_$LT$impl$u20$smoltcp..iface..interface..InterfaceInner$GT$17dispatch_ethernet17h73bf295d8c2e8b8fE
400ff0b8 l     F .text	0000018d _ZN7smoltcp4wire4ipv44Repr4emit17h6e9ef43fdb974e3cE
400fefe8 l     F .text	000000d0 _ZN7smoltcp4wire3udp15Packet$LT$T$GT$13fill_checksum17h3eac039e38fec8d2E
400fed28 l     F .text	000002c0 _ZN7smoltcp4wire3tcp9TcpOption4emit17h3c007a54c55e4aafE
400fe358 l     F .text	000000a1 _ZN7smoltcp4wire2ip8checksum13pseudo_header17hac78625511341137E
400fe3fc l     F .text	000000a4 _ZN7smoltcp4wire2ip8checksum4data17h2fe74e3c93c30e13E
400e1be0 l     F .text	0000037e _ZN8reqwless7request9write_str28_$u7b$$u7b$closure$u7d$$u7d$17h04060a317a52993cE
400e1a60 l     F .text	0000017d _ZN8reqwless7request12write_header28_$u7b$$u7b$closure$u7d$$u7d$17h019277531ec8d508E
400ea61c l     F .text	00000033 _ZN4core3fmt3num3imp52_$LT$impl$u20$core..fmt..Display$u20$for$u20$u32$GT$3fmt17h89fbb007eba0bf65E
400e1f60 l     F .text	000001ed _ZN8reqwless8response7chunked26ChunkedBodyReader$LT$C$GT$22read_next_chunk_length28_$u7b$$u7b$closure$u7d$$u7d$17h2339c1d601615623E
400e2150 l     F .text	000001ed _ZN8reqwless8response7chunked26ChunkedBodyReader$LT$C$GT$22read_next_chunk_length28_$u7b$$u7b$closure$u7d$$u7d$17h261e4183e110e805E
400e2340 l     F .text	000001ed _ZN8reqwless8response7chunked26ChunkedBodyReader$LT$C$GT$22read_next_chunk_length28_$u7b$$u7b$closure$u7d$$u7d$17h6c95224af859e9eeE
400ed2e4 l     F .text	000000df _ZN4core3str7pattern14TwoWaySearcher22reverse_maximal_suffix17h10fe4a90b14060a3E
400f8cb4 l     F .text	000001d1 _ZN90_$LT$core..str..iter..Split$LT$P$GT$$u20$as$u20$core..iter..traits..iterator..Iterator$GT$4next17hd389742add78e892E
400f8e88 l     F .text	00000098 _ZN4core3str21_$LT$impl$u20$str$GT$4find17hc263be0a6ba2bb0fE
400ed05c l     F .text	00000013 _ZN4core3str16slice_error_fail17he57f45b08ec2a212E
400f8c74 l     F .text	0000003d _ZN4core3str21_$LT$impl$u20$str$GT$12strip_prefix17h47ea871e0063ba9eE
3ffcd444 l     O .bss	00000001 __rust_no_alloc_shim_is_unstable
400ee3c4 l     F .text	00000199 _ZN9esp_alloc7EspHeap10alloc_caps17he48c5d670eb9bac4E
400e9600 l     F .text	00000042 _ZN5alloc7raw_vec19RawVec$LT$T$C$A$GT$8grow_one17h379db5e45b15ef6fE
400f1288 l     F .text	00000112 _ZN11esp_mbedtls9dbg_print17he0f97ddb7549b662E
400f139c l     F .text	0000003d _ZN11esp_mbedtls3rng17hf831b93217558004E
400f1264 l     F .text	00000021 _ZN4core9panicking13assert_failed17h62835d5dbb37d07eE
400e9514 l     F .text	00000016 _ZN5alloc7raw_vec12handle_error17hf972b4dc453a4f7eE
400f87fc l     F .text	000002dc _ZN8httparse8Response5parse17hcdab8430e5173a76E
400eb1b4 l     F .text	00000212 _ZN4core3str8converts9from_utf817hd25209136f8134aeE
400f90ec l     F .text	0000011a _ZN90_$LT$core..str..iter..Split$LT$P$GT$$u20$as$u20$core..iter..traits..iterator..Iterator$GT$4next17h84c5745267c8fc8bE
400ef23c l     F .text	00000220 _ZN4core3str21_$LT$impl$u20$str$GT$12trim_matches17hce57569a4df2ad8dE
400e9568 l     F .text	00000096 _ZN5alloc7raw_vec11finish_grow17h422ca50b89d9417eE
400e9470 l     F .text	000000a3 _ZN5alloc7raw_vec20RawVecInner$LT$A$GT$14grow_amortized17h201a06a11501f60dE
400e952c l     F .text	0000000b _ZN5alloc5alloc18handle_alloc_error17h89ca94c6f9a11a4eE
400e9538 l     F .text	00000021 _ZN5alloc7raw_vec17capacity_overflow17he3da05015262aacfE
400e955c l     F .text	0000000b _ZN5alloc5alloc18handle_alloc_error8rt_error17ha4f51740834dbe45E
400ee3b8 l     F .text	0000000b _RNvCs6MjFWaQOJWH_7___rustc26___rust_alloc_error_handler
400ee560 l     F .text	000001f5 _ZN71_$LT$esp_alloc..EspHeap$u20$as$u20$core..alloc..global..GlobalAlloc$GT$7dealloc17h9ce9f5bdbca4e94eE
400ec544 l     F .text	0000000b _ZN4core9panicking18panic_nounwind_fmt17hc8414c230f58346dE
400e9690 l     F .text	0000002e _RNvCs6MjFWaQOJWH_7___rustc9___rdl_oom
400e971c l     F .text	00000011 _ZN14allocator_api27raw_vec17capacity_overflow17h304ed6eaa7933d68E
400eee04 l     F .text	000000fc _RNvCs6MjFWaQOJWH_7___rustc17rust_begin_unwind
400e9b1c l     F .text	00000051 _ZN4core3fmt9Formatter12pad_integral12write_prefix17h21333576657d0522E
400e9b70 l     F .text	0000009d _ZN4core3fmt9Formatter7padding17hb9423a1c6b15ff39E
400e9c20 l     F .text	00000037 _ZN4core5slice5index26slice_start_index_len_fail8do_panic7runtime17h247eefc07a9e0f57E
400e9c68 l     F .text	00000037 _ZN4core5slice5index24slice_end_index_len_fail8do_panic7runtime17h2c8b61c540a0674dE
400ea098 l     F .text	00000032 _ZN42_$LT$$RF$T$u20$as$u20$core..fmt..Debug$GT$3fmt17h13220d94613237b6E
400ea064 l     F .text	00000033 _ZN59_$LT$core..fmt..Arguments$u20$as$u20$core..fmt..Display$GT$3fmt17h97663e3ee43f4e51E
400ea030 l     F .text	00000033 _ZN44_$LT$$RF$T$u20$as$u20$core..fmt..Display$GT$3fmt17h7418769cd01a995aE
400ea518 l     F .text	00000034 _ZN4core3fmt3num3imp51_$LT$impl$u20$core..fmt..Display$u20$for$u20$u8$GT$3fmt17h7cffdc3b24fec957E
400ea5e8 l     F .text	00000021 _ZN4core9panicking11panic_const23panic_const_div_by_zero17hf4aac8935cbc0a91E
400ea7a8 l     F .text	00000039 _ZN4core5slice29_$LT$impl$u20$$u5b$T$u5d$$GT$15copy_from_slice17len_mismatch_fail8do_panic7runtime17hd933baf9034e737bE
400eaa78 l     F .text	000000c1 _ZN4core5slice6memchr14memchr_aligned17hc29e85b5fe12d5c2E
400ea8cc l     F .text	00000114 _ZN68_$LT$core..fmt..builders..PadAdapter$u20$as$u20$core..fmt..Write$GT$9write_str17h1ab1446e69ff4804E
400ea9e0 l     F .text	0000005f _ZN68_$LT$core..fmt..builders..PadAdapter$u20$as$u20$core..fmt..Write$GT$10write_char17h809de401989c1e46E
400eaa40 l     F .text	00000036 _ZN4core3fmt5Write9write_fmt17h71b55992f747fd6bE
400eab3c l     F .text	00000097 _ZN71_$LT$core..ops..range..Range$LT$Idx$GT$$u20$as$u20$core..fmt..Debug$GT$3fmt17hc1b0626d351141a1E
3f4122b0 l     O .rodata	00000088 _ZN4core7unicode12unicode_data15grapheme_extend17SHORT_OFFSET_RUNS17h93de17da2ffa8dacE
3f410fe0 l     O .rodata	000002ef _ZN4core7unicode12unicode_data15grapheme_extend7OFFSETS17h886bf0636f062ea5E
400eabd4 l     F .text	000000b8 _ZN4core7unicode12unicode_data15grapheme_extend11lookup_slow17h95035a2c1bd91fefE
400eaec4 l     F .text	000000dd _ZN4core7unicode9printable5check17h8fcc69843977a651E
400eac8c l     F .text	00000129 _ZN4core7unicode9printable12is_printable17h547708ce1f92ed52E
400eadb8 l     F .text	000000c0 _ZN4core6escape14escape_unicode17hce00d1d211866893E
400eae78 l     F .text	0000004b _ZN62_$LT$core..char..EscapeDebug$u20$as$u20$core..fmt..Display$GT$3fmt17h2b16ee35feebfc57E
400eafb4 l     F .text	00000037 _ZN4core5slice5index22slice_index_order_fail8do_panic7runtime17hf074385fa63bd5d9E
400eafec l     F .text	00000048 _ZN60_$LT$core..cell..BorrowError$u20$as$u20$core..fmt..Debug$GT$3fmt17ha849070c621d1f8dE
400eb09c l     F .text	00000048 _ZN63_$LT$core..cell..BorrowMutError$u20$as$u20$core..fmt..Debug$GT$3fmt17h071948f8633d5119E
400eb4f4 l     F .text	0000005a _ZN86_$LT$core..net..display_buffer..DisplayBuffer$LT$_$GT$$u20$as$u20$core..fmt..Write$GT$9write_str17h8409a67cd3a65a13E
400eb550 l     F .text	0000005a _ZN86_$LT$core..net..display_buffer..DisplayBuffer$LT$_$GT$$u20$as$u20$core..fmt..Write$GT$9write_str17h8e34c6230aeb4f89E
400eb5ac l     F .text	0000005a _ZN86_$LT$core..net..display_buffer..DisplayBuffer$LT$_$GT$$u20$as$u20$core..fmt..Write$GT$9write_str17h947d4b8839992fe5E
400eb608 l     F .text	0000005a _ZN86_$LT$core..net..display_buffer..DisplayBuffer$LT$_$GT$$u20$as$u20$core..fmt..Write$GT$9write_str17h9eff0e72d1f0a8dcE
400eb788 l     F .text	00000036 _ZN4core3fmt5Write9write_fmt17h8965df54d2b5582aE
400eb664 l     F .text	00000121 _ZN67_$LT$core..net..ip_addr..Ipv4Addr$u20$as$u20$core..fmt..Display$GT$3fmt17he367c92cfc6ed021E
400eb800 l     F .text	00000035 _ZN53_$LT$core..fmt..Error$u20$as$u20$core..fmt..Debug$GT$3fmt17h8cbe5748aa844b8cE.89
400eb838 l     F .text	000000f2 _ZN4core3fmt5Write10write_char17hbf333d0481601b81E
400eb92c l     F .text	0000046e _ZN44_$LT$$RF$T$u20$as$u20$core..fmt..Display$GT$3fmt17h0d4a912e21513697E
400ebd9c l     F .text	00000036 _ZN4core3fmt5Write9write_fmt17h5d1d8e8583e5e5f0E
400ebdd4 l     F .text	00000034 _ZN45_$LT$$RF$T$u20$as$u20$core..fmt..LowerHex$GT$3fmt17h0579098429a8b0bdE
400ebe08 l     F .text	000000f2 _ZN4core3fmt5Write10write_char17h247b8a42649485dfE
400ebf30 l     F .text	00000031 _ZN44_$LT$$RF$T$u20$as$u20$core..fmt..Display$GT$3fmt17h2f6d3d56a08d5975E
400ec060 l     F .text	00000036 _ZN4core3fmt5Write9write_fmt17h44a24cb3b0880f72E
400ec098 l     F .text	000000f2 _ZN4core3fmt5Write10write_char17hf1ad8c5d5a6c250fE
400ec18c l     F .text	00000036 _ZN4core3fmt5Write9write_fmt17heac5204b8bc3d97eE
400ec1c4 l     F .text	000000f2 _ZN4core3fmt5Write10write_char17h0eb0afc721efcf41E
400ec518 l     F .text	00000029 _ZN4core9panicking13panic_display17h7240913fc1d3c171E
400ec550 l     F .text	00000018 _ZN4core9panicking18panic_nounwind_fmt7runtime17hb12796e67689c4a8E
400ec568 l     F .text	00000021 _ZN4core9panicking13assert_failed17h40715ef93f659cd6E
400ec5e4 l     F .text	00000066 _ZN4core3fmt17pointer_fmt_inner17h39593a7fd53fbebcE
400ec714 l     F .text	000001b9 _ZN41_$LT$char$u20$as$u20$core..fmt..Debug$GT$3fmt17h3f517456281c6f7aE
400ecb80 l     F .text	0000004a _ZN43_$LT$bool$u20$as$u20$core..fmt..Display$GT$3fmt17h0d9837d66ceb8b3aE
400ed070 l     F .text	00000272 _ZN4core3str19slice_error_fail_rt17h3ac2f7ab89cea5ddE
400ed3fc l     F .text	00000032 _ZN4core3fmt3num52_$LT$impl$u20$core..fmt..LowerHex$u20$for$u20$u8$GT$3fmt17h3ca0abd28fe21e85E
400ed4e8 l     F .text	0000005b _ZN4core3fmt3num3imp52_$LT$impl$u20$core..fmt..Display$u20$for$u20$i64$GT$3fmt17hdd7e9b3916f77c99E
400ed544 l     F .text	00000034 _ZN42_$LT$$RF$T$u20$as$u20$core..fmt..Debug$GT$3fmt17h3df0566beee5c9ebE
400ed578 l     F .text	0000002a _ZN16embassy_executor3raw5waker5clone17he59379631a37b1f3E
400ed5fc l     F .text	0000007c _ZN16embassy_executor3raw9wake_task17hb820c1666eb325e6E
400ed5a4 l     F .text	0000002d _ZN16embassy_executor3raw5waker4wake17h7bdc46d25674ce7cE
400ed5d4 l     F .text	00000025 _ZN16embassy_executor3raw5waker4drop17ha6128034456d09c0E
3f418a78 l     O .rodata	00000000 _ZN3log6logger3NOP17hfea756037229ad69E
400f926c l     F .text	0000007f _ZN42_$LT$$RF$T$u20$as$u20$core..fmt..Debug$GT$3fmt17h7c4e1505564e5ddeE
400ed710 l     F .text	00000033 _ZN42_$LT$$RF$T$u20$as$u20$core..fmt..Debug$GT$3fmt17h3a0c3a3e2392f59aE
400ed744 l     F .text	00000033 _ZN42_$LT$$RF$T$u20$as$u20$core..fmt..Debug$GT$3fmt17h7d2c5ce05b6bb852E
400ed778 l     F .text	00000031 _ZN42_$LT$$RF$T$u20$as$u20$core..fmt..Debug$GT$3fmt17hcb1ddf944d1d859eE
400fe9e8 l     F .text	00000072 _ZN65_$LT$smoltcp..wire..ip..Address$u20$as$u20$core..fmt..Display$GT$3fmt17hcab4d8e88bfead83E
400eda78 l     F .text	000000b6 _ZN7smoltcp5iface9interface9Interface15update_ip_addrs17hddc5651c8d5bf1c4E
400edca0 l     F .text	0000006a _ZN72_$LT$embassy_net_driver..HardwareAddress$u20$as$u20$core..fmt..Debug$GT$3fmt17h9e77f584f6a6bc20E
400ee228 l     F .text	00000055 _ZN66_$LT$core..option..Option$LT$T$GT$$u20$as$u20$core..fmt..Debug$GT$3fmt17h8dc39d302863c82fE
400fea5c l     F .text	000000df _ZN7smoltcp5iface5route6Routes25remove_default_ipv4_route17h5e80e85759fd614dE
400ee280 l     F .text	00000035 _ZN74_$LT$smoltcp..iface..route..RouteTableFull$u20$as$u20$core..fmt..Debug$GT$3fmt17hfcfd825a5f7165b7E
400f8ad8 l     F .text	00000056 _ZN21linked_list_allocator4hole8HoleList12align_layout17h02aae243ac275949E
400f8b68 l     F .text	00000056 _ZN21linked_list_allocator8align_up17h80f9af126a09bca1E
400f62c0 l     F .text	00000031 _ZN50_$LT$$BP$mut$u20$T$u20$as$u20$core..fmt..Debug$GT$3fmt17h3ad67fe07f13c91cE
400ee878 l     F .text	0000008e _ZN9esp_alloc7EspHeap9free_caps17h28881d3e4577db2fE
400ee908 l     F .text	0000004d _ZN42_$LT$$RF$T$u20$as$u20$core..fmt..Debug$GT$3fmt17hd7cdaebc9faeaaf6E
400ee958 l     F .text	000000a9 _ZN44_$LT$$RF$T$u20$as$u20$core..fmt..Display$GT$3fmt17h1d3a02c9dc43b953E
400eea04 l     F .text	00000068 _ZN74_$LT$esp_backtrace..arch..ExceptionCause$u20$as$u20$core..fmt..Display$GT$3fmt17h32675b67592bc563E
400eea6c l     F .text	00000283 _ZN65_$LT$esp_backtrace..arch..Context$u20$as$u20$core..fmt..Debug$GT$3fmt17h1a4882cffbecc3a6E
400eed28 l     F .text	0000004e _ZN13esp_backtrace4arch2sp17h1fb0f746ea346b39E
400eed78 l     F .text	0000008c _ZN13esp_backtrace4arch18backtrace_internal17h81e29999c115b98eE
400eecf0 l     F .text	00000035 _ZN13esp_backtrace4arch9backtrace17he69c9875732a17dbE
400eef00 l     F .text	0000005a _ZN13esp_backtrace13pre_backtrace17hce9626e2320b16dfE
400f15dc l     F .text	00000036 _ZN4core3fmt5Write9write_fmt17h4bcaa367fd177f6eE
400eef5c l     F .text	00000054 _ZN13esp_backtrace5abort17hdcc6e13becd089aeE
400eefb0 l     F .text	0000005a _ZN13esp_backtrace14set_color_code17h01ce78f20fe3a825E
400ef00c l     F .text	00000036 _ZN13esp_backtrace4halt17h0a7b21b5e713d4f4E
400ef0ac l     F .text	00000083 _ZN7esp_hal4sync18LockGuard$LT$L$GT$13new_reentrant17hc2ec6cf3c74efa9fE
400ef044 l     F .text	00000067 _ZN87_$LT$esp_hal..sync..RawMutex$u20$as$u20$embassy_sync..blocking_mutex..raw..RawMutex$GT$4lock17hc6fc35834f344a52E
3f4133a2 l     O .rodata	00000100 _ZN4core7unicode12unicode_data11white_space14WHITESPACE_MAP17hb9ff1ba156332c85E
3ffcd45c l     O .bss	00000058 _ZN7esp_hal6system20PERIPHERAL_REF_COUNT17hb236c7041dc0f243E
400ef94c l     F .text	00000043 _ZN64_$LT$esp_hal..system..Peripheral$u20$as$u20$core..fmt..Debug$GT$3fmt17hc63514e4d5d5b5b8E
400efa18 l     F .text	0000021a _ZN7esp_hal6system17assert_peri_reset17h3669f0c0ffa1560dE
400efcd4 l     F .text	000001b2 _ZN7esp_hal9interrupt6xtensa16setup_interrupts17h04053cdccabcc8d3E
400eff54 l     F .text	00000055 _ZN7esp_hal9interrupt15InterruptStatus3set17h877350acf9c4c74dE
400effac l     F .text	0000007e _ZN102_$LT$esp_hal..interrupt..InterruptStatusIterator$u20$as$u20$core..iter..traits..iterator..Iterator$GT$4next17hdc83459adde847b3E
400f002c l     F .text	00000080 _ZN7esp_hal4sync11single_core12PriorityLock20change_current_level17h3ef1ac967d53ccb3E
400f00ac l     F .text	000000ac _ZN96_$LT$esp_hal..sync..single_core..PriorityLock$u20$as$u20$esp_hal..sync..single_core..RawLock$GT$4exit17hb381b904476fe32cE
400f01f0 l     F .text	00000053 _ZN7esp_hal5timer4timg5Timer13reset_counter17h134bf936f7e6148cE
400f0244 l     F .text	0000005b _ZN7esp_hal5timer4timg5Timer16set_alarm_active17h6efefd2109a5c7bdE
400f03c0 l     F .text	0000005b _ZN69_$LT$esp_hal..timer..timg..Timer$u20$as$u20$esp_hal..timer..Timer$GT$16enable_interrupt17h49e14ab3e8a865b0E
400f06f4 l     F .text	000000b5 _ZN7esp_hal8rtc_cntl8RtcClock9calibrate17hb18ff05605003948E
3ffb11e8 l     O .data	00000004 _ZN7esp_hal4gpio9GPIO_LOCK17h63cde3c7cd377d78E
3ffcd454 l     O .bss	00000008 _ZN7esp_hal4gpio8GpioBank16async_operations5FLAGS17h80881aaebed72556E
3ffb11ec l     O .data	0000000c _ZN71_$LT$esp_hal..peripherals..GPIO0$u20$as$u20$esp_hal..gpio..InputPin$GT$5waker5WAKER17h32092fdf9ed092a6E
3ffb1384 l     O .data	0000000c _ZN72_$LT$esp_hal..peripherals..GPIO39$u20$as$u20$esp_hal..gpio..InputPin$GT$5waker5WAKER17h697c314990257520E
3ffb1378 l     O .data	0000000c _ZN72_$LT$esp_hal..peripherals..GPIO38$u20$as$u20$esp_hal..gpio..InputPin$GT$5waker5WAKER17hd29c956cb646fdd7E
3ffb136c l     O .data	0000000c _ZN72_$LT$esp_hal..peripherals..GPIO37$u20$as$u20$esp_hal..gpio..InputPin$GT$5waker5WAKER17h41bcac17f0e3e1ffE
3ffb1360 l     O .data	0000000c _ZN72_$LT$esp_hal..peripherals..GPIO36$u20$as$u20$esp_hal..gpio..InputPin$GT$5waker5WAKER17h50828da390ff8181E
3ffb1354 l     O .data	0000000c _ZN72_$LT$esp_hal..peripherals..GPIO35$u20$as$u20$esp_hal..gpio..InputPin$GT$5waker5WAKER17h30d2134bc0d26072E
3ffb1348 l     O .data	0000000c _ZN72_$LT$esp_hal..peripherals..GPIO34$u20$as$u20$esp_hal..gpio..InputPin$GT$5waker5WAKER17hef37e9819e92a5f5E
3ffb133c l     O .data	0000000c _ZN72_$LT$esp_hal..peripherals..GPIO33$u20$as$u20$esp_hal..gpio..InputPin$GT$5waker5WAKER17ha6bc6e42911b98a9E
3ffb1330 l     O .data	0000000c _ZN72_$LT$esp_hal..peripherals..GPIO32$u20$as$u20$esp_hal..gpio..InputPin$GT$5waker5WAKER17he89a7a21f38c0ec2E
3ffb1324 l     O .data	0000000c _ZN72_$LT$esp_hal..peripherals..GPIO27$u20$as$u20$esp_hal..gpio..InputPin$GT$5waker5WAKER17h9b4eaecb30ae6189E
3ffb1318 l     O .data	0000000c _ZN72_$LT$esp_hal..peripherals..GPIO26$u20$as$u20$esp_hal..gpio..InputPin$GT$5waker5WAKER17h29d7f0b08dc017b2E
3ffb130c l     O .data	0000000c _ZN72_$LT$esp_hal..peripherals..GPIO25$u20$as$u20$esp_hal..gpio..InputPin$GT$5waker5WAKER17h5869e101a76022b3E
3ffb1300 l     O .data	0000000c _ZN72_$LT$esp_hal..peripherals..GPIO23$u20$as$u20$esp_hal..gpio..InputPin$GT$5waker5WAKER17h491c8d1851324d9dE
3ffb12f4 l     O .data	0000000c _ZN72_$LT$esp_hal..peripherals..GPIO22$u20$as$u20$esp_hal..gpio..InputPin$GT$5waker5WAKER17ha3e69e3667ada5daE
3ffb12e8 l     O .data	0000000c _ZN72_$LT$esp_hal..peripherals..GPIO21$u20$as$u20$esp_hal..gpio..InputPin$GT$5waker5WAKER17hd9e5c697ac2b7efaE
3ffb12dc l     O .data	0000000c _ZN72_$LT$esp_hal..peripherals..GPIO20$u20$as$u20$esp_hal..gpio..InputPin$GT$5waker5WAKER17h80466dbdb7c64865E
3ffb12d0 l     O .data	0000000c _ZN72_$LT$esp_hal..peripherals..GPIO19$u20$as$u20$esp_hal..gpio..InputPin$GT$5waker5WAKER17h74f1c5396461e3b0E
3ffb12c4 l     O .data	0000000c _ZN72_$LT$esp_hal..peripherals..GPIO18$u20$as$u20$esp_hal..gpio..InputPin$GT$5waker5WAKER17h172f07b30a654656E
3ffb12b8 l     O .data	0000000c _ZN72_$LT$esp_hal..peripherals..GPIO17$u20$as$u20$esp_hal..gpio..InputPin$GT$5waker5WAKER17hc066f52019669a92E
3ffb12ac l     O .data	0000000c _ZN72_$LT$esp_hal..peripherals..GPIO16$u20$as$u20$esp_hal..gpio..InputPin$GT$5waker5WAKER17hcbde697eb47469a0E
3ffb12a0 l     O .data	0000000c _ZN72_$LT$esp_hal..peripherals..GPIO15$u20$as$u20$esp_hal..gpio..InputPin$GT$5waker5WAKER17h0c92a0b8acfee55bE
3ffb1294 l     O .data	0000000c _ZN72_$LT$esp_hal..peripherals..GPIO14$u20$as$u20$esp_hal..gpio..InputPin$GT$5waker5WAKER17h908c9cab5304b668E
3ffb1288 l     O .data	0000000c _ZN72_$LT$esp_hal..peripherals..GPIO13$u20$as$u20$esp_hal..gpio..InputPin$GT$5waker5WAKER17he27888fcbf3d3ae2E
3ffb127c l     O .data	0000000c _ZN72_$LT$esp_hal..peripherals..GPIO12$u20$as$u20$esp_hal..gpio..InputPin$GT$5waker5WAKER17hc6fd8e4c8015db6aE
3ffb1270 l     O .data	0000000c _ZN72_$LT$esp_hal..peripherals..GPIO11$u20$as$u20$esp_hal..gpio..InputPin$GT$5waker5WAKER17h60d23f9bf9f1b356E
3ffb1264 l     O .data	0000000c _ZN72_$LT$esp_hal..peripherals..GPIO10$u20$as$u20$esp_hal..gpio..InputPin$GT$5waker5WAKER17h42446489b800dca3E
3ffb1258 l     O .data	0000000c _ZN71_$LT$esp_hal..peripherals..GPIO9$u20$as$u20$esp_hal..gpio..InputPin$GT$5waker5WAKER17h098703716258ec79E
3ffb124c l     O .data	0000000c _ZN71_$LT$esp_hal..peripherals..GPIO8$u20$as$u20$esp_hal..gpio..InputPin$GT$5waker5WAKER17h811057eca6cb7c58E
3ffb1240 l     O .data	0000000c _ZN71_$LT$esp_hal..peripherals..GPIO7$u20$as$u20$esp_hal..gpio..InputPin$GT$5waker5WAKER17h6a811fb1a5fcccddE
3ffb1234 l     O .data	0000000c _ZN71_$LT$esp_hal..peripherals..GPIO6$u20$as$u20$esp_hal..gpio..InputPin$GT$5waker5WAKER17hf6aa9f05b26eb679E
3ffb1228 l     O .data	0000000c _ZN71_$LT$esp_hal..peripherals..GPIO5$u20$as$u20$esp_hal..gpio..InputPin$GT$5waker5WAKER17h0af8677ab904ae3cE
3ffb121c l     O .data	0000000c _ZN71_$LT$esp_hal..peripherals..GPIO4$u20$as$u20$esp_hal..gpio..InputPin$GT$5waker5WAKER17hc38e705bea69e423E
3ffb1210 l     O .data	0000000c _ZN71_$LT$esp_hal..peripherals..GPIO3$u20$as$u20$esp_hal..gpio..InputPin$GT$5waker5WAKER17h75d747c49d67487dE
3ffb1204 l     O .data	0000000c _ZN71_$LT$esp_hal..peripherals..GPIO2$u20$as$u20$esp_hal..gpio..InputPin$GT$5waker5WAKER17hb1f7abb104dbee40E
3ffb11f8 l     O .data	0000000c _ZN71_$LT$esp_hal..peripherals..GPIO1$u20$as$u20$esp_hal..gpio..InputPin$GT$5waker5WAKER17h8d2dfc3a2cc4e92cE
400f0904 l     F .text	0000009e _ZN7esp_hal4sync24GenericRawMutex$LT$L$GT$7acquire17hff69d18036d83b1bE
400f09a4 l     F .text	00000021 _ZN15esp_hal_embassy11time_driver17not_enough_timers17heffd8d362e267ceaE
400f09c8 l     F .text	00000024 _ZN4core9panicking13assert_failed17h99e2721b6dbb3f0eE
400f09ec l     F .text	0000005e _ZN42_$LT$$RF$T$u20$as$u20$core..fmt..Debug$GT$3fmt17heabf2a208ecd03bfE
400f0bec l     F .text	00000052 _ZN7esp_hal4sync24GenericRawMutex$LT$L$GT$4lock17h5e563fa0dae1ddf6E
400f0c40 l     F .text	00000411 _ZN15esp_hal_embassy11timer_queue10TimerQueue8dispatch17h87e435d70149f66fE
400f0a4c l     F .text	00000036 _ZN15esp_hal_embassy11time_driver6DRIVER7handler17hf97771a86ad64995E
400f0a84 l     F .text	00000039 _ZN15esp_hal_embassy11time_driver6DRIVER7handler17h1e7788a3d86e6474E
400f0ac0 l     F .text	0000003a _ZN15esp_hal_embassy11time_driver6DRIVER7handler17h059bb22b5f72f14dE
400f0afc l     F .text	0000003a _ZN15esp_hal_embassy11time_driver6DRIVER7handler17h30ec281dfb825a1fE
400f0b38 l     F .text	0000003a _ZN15esp_hal_embassy11time_driver6DRIVER7handler17h22c2f4a30c763704E
400f0b74 l     F .text	0000003a _ZN15esp_hal_embassy11time_driver6DRIVER7handler17hebafa704e743e9d8E
400f0bb0 l     F .text	0000003a _ZN15esp_hal_embassy11time_driver6DRIVER7handler17hbb77a767e767dd47E
400f1484 l     F .text	00000033 _ZN44_$LT$$RF$T$u20$as$u20$core..fmt..Display$GT$3fmt17h175e987886bd6e0dE
400f1584 l     F .text	00000057 _ZN11esp_println7Printer11write_bytes17h9108e274f33b330bE
400f14b8 l     F .text	000000c9 _ZN4core3fmt5Write10write_char17h7015b4ce487e4fb8E
400f1614 l     F .text	00000031 _ZN57_$LT$esp_println..Printer$u20$as$u20$core..fmt..Write$GT$9write_str17haff0bfd56b358ab7E
400f1648 l     F .text	0000003c _ZN56_$LT$log..SetLoggerError$u20$as$u20$core..fmt..Debug$GT$3fmt17h8e6a462754071676E
400f1684 l     F .text	00000033 _ZN62_$LT$esp_println..logger..EspEnvLogger$u20$as$u20$log..Log$GT$7enabled17h0b1bfd9970922f18E
400f8bc0 l     F .text	0000003b _ZN49_$LT$log..Level$u20$as$u20$core..fmt..Display$GT$3fmt17h06e3069ee1bcf4fdE
400f16b8 l     F .text	000000b5 _ZN62_$LT$esp_println..logger..EspEnvLogger$u20$as$u20$log..Log$GT$3log17h85b2355abe42982bE
400f1870 l     F .text	00000055 _ZN64_$LT$core..str..error..Utf8Error$u20$as$u20$core..fmt..Debug$GT$3fmt17h119531337d94ca06E.386
400f18c8 l     F .text	000000a4 _ZN8esp_wifi4wifi10os_adapter8set_intr17hbb1276fce274104dE
400f196c l     F .text	0000007b _ZN8esp_wifi4wifi10os_adapter10clear_intr17hb58b1f962ac187f8E
3ffcdc64 l     O .bss	00000004 _ZN8esp_wifi4wifi10os_adapter15ISR_INTERRUPT_117h7ac8bc9eeee8c479E.0
3ffcdc68 l     O .bss	00000004 _ZN8esp_wifi4wifi10os_adapter15ISR_INTERRUPT_117h7ac8bc9eeee8c479E.1
400f19e8 l     F .text	00000108 _ZN8esp_wifi4wifi10os_adapter24os_adapter_chip_specific7set_isr17h4bddadf2c377ab29E
400f1af0 l     F .text	00000080 _ZN8esp_wifi4wifi10os_adapter7ints_on17h9cd005a1ee485445E
400f1b70 l     F .text	00000085 _ZN8esp_wifi4wifi10os_adapter8ints_off17ha9d290b7c9700400E
400f6240 l     F .text	00000080 _ZN8esp_wifi6compat6common10sem_create17h04fd870232b17096E
400f1bf8 l     F .text	0000007b _ZN8esp_wifi4wifi10os_adapter16spin_lock_create17hb14bbb8a1c257c56E
400f61d8 l     F .text	00000068 _ZN8esp_wifi6compat6common10sem_delete17h73b97423033f9457E
400f1c74 l     F .text	00000079 _ZN8esp_wifi4wifi10os_adapter16spin_lock_delete17hf132f6221c52ca80E
3ffb1520 l     O .data	00000004 _ZN8esp_wifi4wifi10os_adapter9WIFI_LOCK17hfec1204e046ba23aE
400f1cf0 l     F .text	000000c1 _ZN8esp_wifi4wifi10os_adapter16wifi_int_disable17hd28c5a9750772946E
400f1db4 l     F .text	00000077 _ZN8esp_wifi4wifi10os_adapter16wifi_int_restore17h703a9e3367d9aae1E
400f1e2c l     F .text	00000066 _ZN8esp_wifi4wifi10os_adapter19task_yield_from_isr17h1bdd8a7b3ac7d6b9E
400f1e94 l     F .text	00000087 _ZN8esp_wifi14common_adapter13semphr_create17heb75ebe691829077E
400f1f1c l     F .text	00000079 _ZN8esp_wifi14common_adapter13semphr_delete17haa74c814d42efba0E
400f5bc0 l     F .text	0000006a _ZN8esp_wifi4time14systimer_count17hd7c06b56cf0e0eb6E
40081498 l     F .rwtext	0000021e _ZN8esp_wifi14common_adapter11semphr_take17h9543299df939616eE
400816b8 l     F .rwtext	00000094 _ZN8esp_wifi14common_adapter11semphr_give17he2b5dd08df0d7156E
3ffb142c l     O .data	0000000c _ZN8esp_wifi15preempt_builtin15SCHEDULER_STATE17h73d8b0d5996b76c9E
400f1f98 l     F .text	00000086 _ZN8esp_wifi4wifi10os_adapter22wifi_thread_semphr_get17h223b1dfa22ffa971E
400f2020 l     F .text	00000023 _ZN8esp_wifi4wifi10os_adapter12mutex_create17h54b7b8968005b8d7E
400f2044 l     F .text	00000083 _ZN8esp_wifi4wifi10os_adapter22recursive_mutex_create17h15011d53d5467b87E
400f20c8 l     F .text	0000002d _ZN8esp_wifi4wifi10os_adapter12mutex_delete17hd4a66010322e50d7E
400f20f8 l     F .text	000000e6 _ZN8esp_wifi4wifi10os_adapter10mutex_lock17h4a501d2901926b9bE
400f21e0 l     F .text	000000a6 _ZN8esp_wifi4wifi10os_adapter12mutex_unlock17h22b7e1f9a790917bE
400f5880 l     F .text	0000012c _ZN8esp_wifi6compat6common12create_queue17h737d6bb57b7e929eE
400f2288 l     F .text	00000076 _ZN8esp_wifi4wifi10os_adapter12queue_create17hd5fc8c70ed916c32E
400f5740 l     F .text	00000085 _ZN8esp_wifi6compat6common12delete_queue17h177d71825710abcaE
400f2300 l     F .text	0000002d _ZN8esp_wifi4wifi10os_adapter12queue_delete17h0d301e505d2ad22fE
400f2330 l     F .text	00000116 _ZN8esp_wifi4wifi10os_adapter10queue_send17h2ade7bb99ae98f82E
400f2448 l     F .text	00000071 _ZN8esp_wifi4wifi10os_adapter19queue_send_from_isr17hbab6792befae944aE
400f24bc l     F .text	00000023 _ZN8esp_wifi4wifi10os_adapter18queue_send_to_back17h91861543cd336412E
400f24e0 l     F .text	00000023 _ZN8esp_wifi4wifi10os_adapter19queue_send_to_front17h656b2f9a88656a95E
400f2504 l     F .text	00000211 _ZN8esp_wifi4wifi10os_adapter10queue_recv17hc3eb9a418743e66fE
400f2718 l     F .text	0000009c _ZN8esp_wifi4wifi10os_adapter17queue_msg_waiting17had510194fe5e49bcE
400f27b4 l     F .text	00000023 _ZN8esp_wifi4wifi10os_adapter18event_group_create17hff0bd1f742c0d315E
400f27d8 l     F .text	00000023 _ZN8esp_wifi4wifi10os_adapter18event_group_delete17h7c66deae8b383c11E
400f27fc l     F .text	00000023 _ZN8esp_wifi4wifi10os_adapter20event_group_set_bits17h4a69fe29d64558c8E
400f2820 l     F .text	00000023 _ZN8esp_wifi4wifi10os_adapter22event_group_clear_bits17h4355edd75b4d7f98E
400f2844 l     F .text	00000023 _ZN8esp_wifi4wifi10os_adapter21event_group_wait_bits17h1a4a44d1a6222f29E
400f2868 l     F .text	000000e6 _ZN8esp_wifi4wifi10os_adapter26task_create_pinned_to_core17hb7f3cc0bc78fe58aE
400f2950 l     F .text	0000003f _ZN8esp_wifi4wifi10os_adapter11task_create17h92dda1871c950d4dE
400f602c l     F .text	00000054 _ZN92_$LT$esp_wifi..preempt_builtin..BuiltinScheduler$u20$as$u20$esp_wifi..preempt..Scheduler$GT$22schedule_task_deletion17h10b5d42835201e8fE
400f2990 l     F .text	0000009d _ZN8esp_wifi4wifi10os_adapter11task_delete17h7eb0c7eead331d30E
400f2a30 l     F .text	000000ae _ZN8esp_wifi4wifi10os_adapter10task_delay17he258162f8344a54fE
400f2ae0 l     F .text	00000077 _ZN8esp_wifi4wifi10os_adapter15task_ms_to_tick17h2971f5673bf0dfebE
400f2b58 l     F .text	00000090 _ZN8esp_wifi4wifi10os_adapter21task_get_current_task17he791a5c80d7a82c2E
400f2be8 l     F .text	00000063 _ZN8esp_wifi4wifi10os_adapter21task_get_max_priority17h1f04195c1a7c4821E
400f5fe8 l     F .text	00000042 _ZN62_$LT$esp_wifi..wifi..WifiEvent$u20$as$u20$core..fmt..Debug$GT$3fmt17h2f66d1dbe9dd4242E
3ffb17c8 l     O .data	0000000c _ZN94_$LT$esp_wifi..wifi..event..StaNeighborRep$u20$as$u20$esp_wifi..wifi..event..sealed..Event$GT$7handler6HANDLE17h73f9d91d66f441cbE
3ffb17bc l     O .data	0000000c _ZN97_$LT$esp_wifi..wifi..event..HomeChannelChange$u20$as$u20$esp_wifi..wifi..event..sealed..Event$GT$7handler6HANDLE17h8cbcac0e19f68047E
3ffb17b0 l     O .data	0000000c _ZN93_$LT$esp_wifi..wifi..event..NdpTerminated$u20$as$u20$esp_wifi..wifi..event..sealed..Event$GT$7handler6HANDLE17ha7205ca066b8f3d9E
3ffb17a4 l     O .data	0000000c _ZN90_$LT$esp_wifi..wifi..event..NdpConfirm$u20$as$u20$esp_wifi..wifi..event..sealed..Event$GT$7handler6HANDLE17h7c685607cbcbcf72E
3ffb1798 l     O .data	0000000c _ZN93_$LT$esp_wifi..wifi..event..NdpIndication$u20$as$u20$esp_wifi..wifi..event..sealed..Event$GT$7handler6HANDLE17h14659608a4f06f2dE
3ffb178c l     O .data	0000000c _ZN90_$LT$esp_wifi..wifi..event..NanReceive$u20$as$u20$esp_wifi..wifi..event..sealed..Event$GT$7handler6HANDLE17h11a866cd8b137199E
3ffb1780 l     O .data	0000000c _ZN90_$LT$esp_wifi..wifi..event..NanReplied$u20$as$u20$esp_wifi..wifi..event..sealed..Event$GT$7handler6HANDLE17he937c5c41d66d2ecE
3ffb1774 l     O .data	0000000c _ZN91_$LT$esp_wifi..wifi..event..NanSvcMatch$u20$as$u20$esp_wifi..wifi..event..sealed..Event$GT$7handler6HANDLE17h981860418b6a7a44E
3ffb1768 l     O .data	0000000c _ZN90_$LT$esp_wifi..wifi..event..NanStopped$u20$as$u20$esp_wifi..wifi..event..sealed..Event$GT$7handler6HANDLE17h2053df1ac29eccefE
3ffb175c l     O .data	0000000c _ZN90_$LT$esp_wifi..wifi..event..NanStarted$u20$as$u20$esp_wifi..wifi..event..sealed..Event$GT$7handler6HANDLE17h768f03e09323fc8eE
3ffb1750 l     O .data	0000000c _ZN92_$LT$esp_wifi..wifi..event..BtwtTeardown$u20$as$u20$esp_wifi..wifi..event..sealed..Event$GT$7handler6HANDLE17hdb8d95e6c2904f37E
3ffb1744 l     O .data	0000000c _ZN89_$LT$esp_wifi..wifi..event..BtwtSetup$u20$as$u20$esp_wifi..wifi..event..sealed..Event$GT$7handler6HANDLE17h8e906f47978ca915E
3ffb1738 l     O .data	0000000c _ZN89_$LT$esp_wifi..wifi..event..TwtWakeup$u20$as$u20$esp_wifi..wifi..event..sealed..Event$GT$7handler6HANDLE17hf7722636741ed28fE
3ffb172c l     O .data	0000000c _ZN91_$LT$esp_wifi..wifi..event..ItwtSuspend$u20$as$u20$esp_wifi..wifi..event..sealed..Event$GT$7handler6HANDLE17h25d43177704697beE
3ffb1720 l     O .data	0000000c _ZN89_$LT$esp_wifi..wifi..event..ItwtProbe$u20$as$u20$esp_wifi..wifi..event..sealed..Event$GT$7handler6HANDLE17h4c915e71e156540fE
3ffb1714 l     O .data	0000000c _ZN92_$LT$esp_wifi..wifi..event..ItwtTeardown$u20$as$u20$esp_wifi..wifi..event..sealed..Event$GT$7handler6HANDLE17h176e1162d80abbf7E
3ffb1708 l     O .data	0000000c _ZN89_$LT$esp_wifi..wifi..event..ItwtSetup$u20$as$u20$esp_wifi..wifi..event..sealed..Event$GT$7handler6HANDLE17h5bb0775222e05788E
3ffb16fc l     O .data	0000000c _ZN97_$LT$esp_wifi..wifi..event..ApWpsRgPbcOverlap$u20$as$u20$esp_wifi..wifi..event..sealed..Event$GT$7handler6HANDLE17h1bbca54ed773d279E
3ffb16f0 l     O .data	0000000c _ZN90_$LT$esp_wifi..wifi..event..ApWpsRgPin$u20$as$u20$esp_wifi..wifi..event..sealed..Event$GT$7handler6HANDLE17hb25689da9b9aa3faE
3ffb16e4 l     O .data	0000000c _ZN94_$LT$esp_wifi..wifi..event..ApWpsRgTimeout$u20$as$u20$esp_wifi..wifi..event..sealed..Event$GT$7handler6HANDLE17hba0811ceee0db4b4E
3ffb16d8 l     O .data	0000000c _ZN93_$LT$esp_wifi..wifi..event..ApWpsRgFailed$u20$as$u20$esp_wifi..wifi..event..sealed..Event$GT$7handler6HANDLE17hae46954759f4b658E
3ffb16cc l     O .data	0000000c _ZN94_$LT$esp_wifi..wifi..event..ApWpsRgSuccess$u20$as$u20$esp_wifi..wifi..event..sealed..Event$GT$7handler6HANDLE17h20d1e398c94faa07E
3ffb16c0 l     O .data	0000000c _ZN117_$LT$esp_wifi..wifi..event..ConnectionlessModuleWakeIntervalStart$u20$as$u20$esp_wifi..wifi..event..sealed..Event$GT$7handler6HANDLE17h0fb9ae27acb19e77E
3ffb16b4 l     O .data	0000000c _ZN96_$LT$esp_wifi..wifi..event..StaBeaconTimeout$u20$as$u20$esp_wifi..wifi..event..sealed..Event$GT$7handler6HANDLE17ha5846224650042eaE
3ffb16a8 l     O .data	0000000c _ZN87_$LT$esp_wifi..wifi..event..RocDone$u20$as$u20$esp_wifi..wifi..event..sealed..Event$GT$7handler6HANDLE17h824452a388ee238cE
3ffb169c l     O .data	0000000c _ZN94_$LT$esp_wifi..wifi..event..ActionTxStatus$u20$as$u20$esp_wifi..wifi..event..sealed..Event$GT$7handler6HANDLE17hc9061c4a7ce11f5aE
3ffb1690 l     O .data	0000000c _ZN93_$LT$esp_wifi..wifi..event..StaBssRssiLow$u20$as$u20$esp_wifi..wifi..event..sealed..Event$GT$7handler6HANDLE17h75251fe8f91dab6aE
3ffb1684 l     O .data	0000000c _ZN89_$LT$esp_wifi..wifi..event..FtmReport$u20$as$u20$esp_wifi..wifi..event..sealed..Event$GT$7handler6HANDLE17had183802f0df4651E
3ffb1678 l     O .data	0000000c _ZN96_$LT$esp_wifi..wifi..event..ApProbereqrecved$u20$as$u20$esp_wifi..wifi..event..sealed..Event$GT$7handler6HANDLE17h6cd7e39e328702ceE
3ffb166c l     O .data	0000000c _ZN97_$LT$esp_wifi..wifi..event..ApStadisconnected$u20$as$u20$esp_wifi..wifi..event..sealed..Event$GT$7handler6HANDLE17h602f4af4b60e420cE
3ffb1660 l     O .data	0000000c _ZN94_$LT$esp_wifi..wifi..event..ApStaconnected$u20$as$u20$esp_wifi..wifi..event..sealed..Event$GT$7handler6HANDLE17h839bcf93730b0265E
3ffb1654 l     O .data	0000000c _ZN86_$LT$esp_wifi..wifi..event..ApStop$u20$as$u20$esp_wifi..wifi..event..sealed..Event$GT$7handler6HANDLE17h51878b2d6fd5cc55E
3ffb1648 l     O .data	0000000c _ZN87_$LT$esp_wifi..wifi..event..ApStart$u20$as$u20$esp_wifi..wifi..event..sealed..Event$GT$7handler6HANDLE17h8a89044839a67ed7E
400f5fac l     F .text	0000003a _ZN105_$LT$esp_wifi..wifi..state..WifiState$u20$as$u20$core..convert..From$LT$esp_wifi..wifi..WifiEvent$GT$$GT$4from17hb1213b770d56cad8E
3ffb163c l     O .data	0000000c _ZN98_$LT$esp_wifi..wifi..event..StaWpsErPbcOverlap$u20$as$u20$esp_wifi..wifi..event..sealed..Event$GT$7handler6HANDLE17hf473b7514d8d692eE
3ffb1630 l     O .data	0000000c _ZN91_$LT$esp_wifi..wifi..event..StaWpsErPin$u20$as$u20$esp_wifi..wifi..event..sealed..Event$GT$7handler6HANDLE17hc8205028670bdcb7E
3ffb1624 l     O .data	0000000c _ZN95_$LT$esp_wifi..wifi..event..StaWpsErTimeout$u20$as$u20$esp_wifi..wifi..event..sealed..Event$GT$7handler6HANDLE17h09c577f4aec33bc9E
3ffb1618 l     O .data	0000000c _ZN94_$LT$esp_wifi..wifi..event..StaWpsErFailed$u20$as$u20$esp_wifi..wifi..event..sealed..Event$GT$7handler6HANDLE17h1ba802ebbda0f08cE
3ffb160c l     O .data	0000000c _ZN95_$LT$esp_wifi..wifi..event..StaWpsErSuccess$u20$as$u20$esp_wifi..wifi..event..sealed..Event$GT$7handler6HANDLE17hf4cf162e86d30c91E
3ffb1600 l     O .data	0000000c _ZN97_$LT$esp_wifi..wifi..event..StaAuthmodeChange$u20$as$u20$esp_wifi..wifi..event..sealed..Event$GT$7handler6HANDLE17h8b6beef0b4d2e8f3E
3ffb15f4 l     O .data	0000000c _ZN95_$LT$esp_wifi..wifi..event..StaDisconnected$u20$as$u20$esp_wifi..wifi..event..sealed..Event$GT$7handler6HANDLE17hd02f366a1102ee75E
3ffb15e8 l     O .data	0000000c _ZN92_$LT$esp_wifi..wifi..event..StaConnected$u20$as$u20$esp_wifi..wifi..event..sealed..Event$GT$7handler6HANDLE17he19d7a5415e4e5b2E
3ffb15dc l     O .data	0000000c _ZN87_$LT$esp_wifi..wifi..event..StaStop$u20$as$u20$esp_wifi..wifi..event..sealed..Event$GT$7handler6HANDLE17h06c99f72c02cb6f5E
3ffb15d0 l     O .data	0000000c _ZN88_$LT$esp_wifi..wifi..event..StaStart$u20$as$u20$esp_wifi..wifi..event..sealed..Event$GT$7handler6HANDLE17hf27c01e8461c58b0E
3ffb15c4 l     O .data	0000000c _ZN88_$LT$esp_wifi..wifi..event..ScanDone$u20$as$u20$esp_wifi..wifi..event..sealed..Event$GT$7handler6HANDLE17h58586eb961ef4a5fE
3ffb15b8 l     O .data	0000000c _ZN89_$LT$esp_wifi..wifi..event..WifiReady$u20$as$u20$esp_wifi..wifi..event..sealed..Event$GT$7handler6HANDLE17h3f8b59490ccf0703E
400f2c4c l     F .text	00000eb6 _ZN8esp_wifi4wifi10os_adapter10event_post17h3e03662bdd68a27fE
400f3b04 l     F .text	00000060 _ZN8esp_wifi4wifi10os_adapter39dport_access_stall_other_cpu_start_wrap17hd33b0bc075288633E
400f3b64 l     F .text	00000060 _ZN8esp_wifi4wifi10os_adapter37dport_access_stall_other_cpu_end_wrap17hd8b7ae68d95f5cc2E
400f3bc4 l     F .text	00000060 _ZN8esp_wifi4wifi10os_adapter19wifi_apb80m_request17h8d53e446d03a416bE
400f3c24 l     F .text	00000060 _ZN8esp_wifi4wifi10os_adapter19wifi_apb80m_release17h2b026ef0e0e04d3bE
3ffcdcac l     O .bss	00000004 _ZN8esp_wifi14common_adapter13chip_specific14PHY_ACCESS_REF17h7a56424e9b1af9c1E
3ffcdca8 l     O .bss	00000001 _ZN8esp_wifi14common_adapter13chip_specific19S_IS_PHY_REG_STORED17hd8b6c98d4fd54930E.0
400f5e00 l     F .text	000000ef _ZN8esp_wifi14common_adapter17phy_disable_clock17hde4a732ca1c9ef1cE
400f3c84 l     F .text	000000f5 _ZN8esp_wifi4wifi10os_adapter11phy_disable17hfc24a8a32cba384aE
400f5ef0 l     F .text	000000ba _ZN8esp_wifi14common_adapter16phy_enable_clock17ha7782fda69192da9E
3ffcdca0 l     O .bss	00000001 _ZN8esp_wifi14common_adapter13chip_specific19G_IS_PHY_CALIBRATED17h16b14661d02215feE.0
3f417c54 l     O .rodata	00000080 _ZN8esp_wifi14common_adapter13phy_init_data21PHY_INIT_DATA_DEFAULT17h1692efd64bdeb77fE
400f3d7c l     F .text	000002c6 _ZN8esp_wifi4wifi10os_adapter10phy_enable17h5276fc321970c4faE
400f4044 l     F .text	0000002b _ZN8esp_wifi4wifi10os_adapter24os_adapter_chip_specific23phy_common_clock_enable17h0e001c729bd5cd9dE
400f4070 l     F .text	0000002b _ZN8esp_wifi4wifi10os_adapter24os_adapter_chip_specific24phy_common_clock_disable17ha8cad82a7376f2a9E
400f409c l     F .text	0000007b _ZN8esp_wifi4wifi10os_adapter23phy_update_country_info17h31785150c7546c10E
400f4118 l     F .text	0000015e _ZN8esp_wifi14common_adapter8read_mac17h7ca740ceb8f133d2E
400f5c2c l     F .text	0000015f _ZN8esp_wifi6compat12timer_compat19compat_timer_arm_us17h0d7481ccdcf0551cE
3ffb1414 l     O .data	00000008 _ZN8esp_wifi6compat12timer_compat6TIMERS17hcbd581ee363e1cf6E
400f5dc0 l     F .text	0000003f _ZN4core3ptr111drop_in_place$LT$core..option..Option$LT$alloc..boxed..Box$LT$esp_wifi..compat..timer_compat..Timer$GT$$GT$$GT$17hf925af64aa18f237E
400f5d8c l     F .text	00000031 _ZN4core3ptr48_$LT$impl$u20$core..fmt..Debug$u20$for$u20$F$GT$3fmt17h7d1e81ea7f6f34d3E
400f4730 l     F .text	0000007f _ZN8esp_wifi4wifi10os_adapter14wifi_reset_mac17h40a245296d59c59eE
400f47b0 l     F .text	00000073 _ZN8esp_wifi4wifi10os_adapter17wifi_clock_enable17h997cec175f41c64bE
400f4824 l     F .text	00000073 _ZN8esp_wifi4wifi10os_adapter18wifi_clock_disable17hea85ce6deb781c8dE
400f4898 l     F .text	00000023 _ZN8esp_wifi4wifi10os_adapter19wifi_rtc_enable_iso17h5db622bb8b6306e6E
400f48bc l     F .text	00000023 _ZN8esp_wifi4wifi10os_adapter20wifi_rtc_disable_iso17h3425a7c81efe94e9E
400f494c l     F .text	00000062 _ZN8esp_wifi4wifi10os_adapter10nvs_set_i817h7ea151b6544e6439E
400f49b0 l     F .text	00000023 _ZN8esp_wifi4wifi10os_adapter10nvs_get_i817h3abe0a23f9c3926dE
400f49d4 l     F .text	00000023 _ZN8esp_wifi4wifi10os_adapter10nvs_set_u817h4a122ed6a0ff7c5fE
400f49f8 l     F .text	00000023 _ZN8esp_wifi4wifi10os_adapter10nvs_get_u817h14f21b05b545335bE
400f4a1c l     F .text	00000023 _ZN8esp_wifi4wifi10os_adapter11nvs_set_u1617ha4716642dde03349E
400f4a40 l     F .text	00000023 _ZN8esp_wifi4wifi10os_adapter11nvs_get_u1617hb6a741931c06ff85E
400f4a64 l     F .text	00000023 _ZN8esp_wifi4wifi10os_adapter8nvs_open17h84288f23c8d064f0E
400f4a88 l     F .text	00000023 _ZN8esp_wifi4wifi10os_adapter9nvs_close17hb14fa9bf8915dd18E
400f4aac l     F .text	00000023 _ZN8esp_wifi4wifi10os_adapter10nvs_commit17h8e746938db799e94E
400f4ad0 l     F .text	00000023 _ZN8esp_wifi4wifi10os_adapter12nvs_set_blob17h2a998358a381d195E
400f4af4 l     F .text	00000023 _ZN8esp_wifi4wifi10os_adapter12nvs_get_blob17h16298ad047557f24E
400f4b18 l     F .text	00000023 _ZN8esp_wifi4wifi10os_adapter13nvs_erase_key17hb81ed496e42c4754E
400f4b3c l     F .text	0000006c _ZN8esp_wifi4wifi10os_adapter10get_random17h425db3d5c4453d85E
400f4ba8 l     F .text	00000023 _ZN8esp_wifi4wifi10os_adapter8get_time17h94cb3295e4883636E
400f4bcc l     F .text	0000006c _ZN8esp_wifi4wifi10os_adapter13log_timestamp17h05a2e7591422ad6fE
400f4c38 l     F .text	00000023 _ZN8esp_wifi4wifi10os_adapter16realloc_internal17h3d3ec5dc4e7218a2E
400f4c5c l     F .text	00000031 _ZN8esp_wifi4wifi10os_adapter15calloc_internal17hf5bb1a66ebd7171aE
400f4c90 l     F .text	00000031 _ZN8esp_wifi4wifi10os_adapter15zalloc_internal17h30bb2d3bbe756575E
400f4cc4 l     F .text	0000002f _ZN8esp_wifi4wifi10os_adapter11wifi_malloc17h6cc663764cb4df31E
400f4cf4 l     F .text	00000023 _ZN8esp_wifi4wifi10os_adapter12wifi_realloc17ha6cfd39455a8eca9E
400f4d18 l     F .text	0000008b _ZN8esp_wifi4wifi10os_adapter11wifi_calloc17hc884d2066a9ef6e6E
400f4da4 l     F .text	00000031 _ZN8esp_wifi4wifi10os_adapter11wifi_zalloc17hc1f51f7d10c0f377E
3ffcdc60 l     O .bss	00000004 _ZN8esp_wifi4wifi10os_adapter12QUEUE_HANDLE17hb4aa56ba65330c1bE
400f4dd8 l     F .text	00000034 _ZN8esp_wifi4wifi10os_adapter17wifi_create_queue17h26276fd4077ed629E
400f4e0c l     F .text	000000b8 _ZN8esp_wifi4wifi10os_adapter17wifi_delete_queue17h10265f5171957758E
400f4ec4 l     F .text	00000027 _ZN8esp_wifi4wifi9coex_init17h920a9128b8a402f9E
400f4eec l     F .text	00000060 _ZN8esp_wifi4wifi10os_adapter11coex_deinit17h14684c0f128330b8E
400f4f4c l     F .text	00000062 _ZN8esp_wifi4wifi10os_adapter11coex_enable17h26b7a0e5bdc57b31E
400f4fb0 l     F .text	00000060 _ZN8esp_wifi4wifi10os_adapter12coex_disable17h6828edb69c16050eE
400f5010 l     F .text	00000062 _ZN8esp_wifi4wifi10os_adapter15coex_status_get17h5e5faa251dec25feE
400f5074 l     F .text	00000062 _ZN8esp_wifi4wifi10os_adapter17coex_wifi_request17h8dbf2367e1ea22f7E
400f50d8 l     F .text	00000062 _ZN8esp_wifi4wifi10os_adapter17coex_wifi_release17hfcde2ee4f9c7ed3aE
400f513c l     F .text	00000062 _ZN8esp_wifi4wifi10os_adapter21coex_wifi_channel_set17hb28492f6f54e5f0cE
400f51a0 l     F .text	00000062 _ZN8esp_wifi4wifi10os_adapter23coex_event_duration_get17h4cef84a8a6c20d32E
400f5204 l     F .text	00000080 _ZN8esp_wifi4wifi10os_adapter12coex_pti_get17hcf07920d9faf565fE
400f5284 l     F .text	00000060 _ZN8esp_wifi4wifi10os_adapter26coex_schm_status_bit_clear17he36e789657d2e14fE
400f52e4 l     F .text	00000060 _ZN8esp_wifi4wifi10os_adapter24coex_schm_status_bit_set17h1674fc3a5c382e42E
400f5344 l     F .text	00000062 _ZN8esp_wifi4wifi10os_adapter22coex_schm_interval_set17hff7a94a2c30afff8E
400f53a8 l     F .text	00000062 _ZN8esp_wifi4wifi10os_adapter22coex_schm_interval_get17h1267096ae10bf8a2E
400f540c l     F .text	00000062 _ZN8esp_wifi4wifi10os_adapter25coex_schm_curr_period_get17hfff78c16b75c1414E
400f5470 l     F .text	00000062 _ZN8esp_wifi4wifi10os_adapter24coex_schm_curr_phase_get17h97fa440aecace940E
400f54d4 l     F .text	00000062 _ZN8esp_wifi4wifi10os_adapter33coex_schm_process_restart_wrapper17h5d9fa3202bf9f46bE
400f56b8 l     F .text	00000052 _ZN66_$LT$core..option..Option$LT$T$GT$$u20$as$u20$core..fmt..Debug$GT$3fmt17h691b0470a1bc5e03E
400f5538 l     F .text	00000080 _ZN8esp_wifi4wifi10os_adapter29coex_schm_register_cb_wrapper17h7fa7f785b57c2ae0E
400f55b8 l     F .text	00000027 _ZN8esp_wifi4wifi10os_adapter22coex_register_start_cb17hf932f6cffa1628f1E
400f55e0 l     F .text	00000072 _ZN8esp_wifi4wifi10os_adapter29coex_schm_flexible_period_set17he67a16ecaea6de5aE
400f5654 l     F .text	00000062 _ZN8esp_wifi4wifi10os_adapter29coex_schm_flexible_period_get17h7a1242a172756adcE
400f570c l     F .text	00000033 _ZN42_$LT$$RF$T$u20$as$u20$core..fmt..Debug$GT$3fmt17h14c90d12ea54a619E
3ffcdcb8 l     O .bss	00000004 _ZN8esp_wifi14common_adapter20PHY_CLOCK_ENABLE_REF17h861904d9c36959adE
3ffcd451 l     O .bss	00000001 _ZN7esp_hal5clock21PHY_CLOCK_REF_COUNTER17heac935b68cfd3e11E.0
400f635c l     F .text	0000004c _ZN42_$LT$$RF$T$u20$as$u20$core..fmt..Debug$GT$3fmt17h8a3f69d421a6d676E
400f6618 l     F .text	00000041 _ZN5alloc7raw_vec19RawVec$LT$T$C$A$GT$8grow_one17h7a74f692db3307bfE
400f6598 l     F .text	0000007d _ZN5alloc11collections9vec_deque21VecDeque$LT$T$C$A$GT$4grow17h3e2bdae5913e549cE
400f665c l     F .text	0000005f _ZN5alloc11collections9vec_deque21VecDeque$LT$T$C$A$GT$9push_back17h5bc73f10a253e042E
3ffcdc5c l     O .bss	00000004 _ZN8esp_wifi6compat8_putchar3IDX17he71868d55903f824E.0
3ffcd4ce l     O .bss	00000100 _ZN8esp_wifi6compat8_putchar6BUFFER17hb5f59e31ce713c78E
400f80a8 l     F .text	00000035 _ZN42_$LT$$RF$T$u20$as$u20$core..fmt..Debug$GT$3fmt17hc3cf2ec91dec3298E
3f41846e l     O .rodata	00000100 _ZN8httparse9TOKEN_MAP17hccba070364904813E
3f41856e l     O .rodata	00000100 _ZN8httparse16HEADER_VALUE_MAP17hc50d8ae54efe1e2cE
400f80e0 l     F .text	000005aa _ZN8httparse25parse_headers_iter_uninit17h63bf06dfa2320d9dE
400f868c l     F .text	000000a0 _ZN8httparse10parse_code17h13ebd7ae2dfe49b9E
400f872c l     F .text	000000ce _ZN8httparse12parse_reason17h24db7deeb3bd8acdE
400f8b30 l     F .text	00000035 _ZN69_$LT$core..alloc..layout..LayoutError$u20$as$u20$core..fmt..Debug$GT$3fmt17h576e930d07757998E.494
3f418968 l     O .rodata	00000030 _ZN3log15LOG_LEVEL_NAMES17h00fe2219faae7a2cE
400f8bfc l     F .text	00000027 _ZN43_$LT$log..NopLogger$u20$as$u20$log..Log$GT$7enabled17h0eb7796ed55b56dbE
400f8c24 l     F .text	00000025 _ZN43_$LT$log..NopLogger$u20$as$u20$log..Log$GT$3log17hbee0e18f6d7f899aE
400f8c4c l     F .text	00000025 _ZN43_$LT$log..NopLogger$u20$as$u20$log..Log$GT$5flush17h54ffac16d16162cfE
400f8f20 l     F .text	00000158 _ZN4core3str7pattern14TwoWaySearcher4next17hdbb14f897bd1752bE
400f9358 l     F .text	000000b3 _ZN44_$LT$$RF$T$u20$as$u20$core..fmt..Display$GT$3fmt17he1e01cff55111d75E
400f9d18 l     F .text	0000029d _ZN7smoltcp5iface5route6Routes6lookup17hbf197961b34de1e4E
400f9fb8 l     F .text	00000109 _ZN8heapless10linear_map26LinearMap$LT$K$C$V$C$_$GT$6insert17h22d3922bc64db329E
400fe4a0 l     F .text	00000093 _ZN77_$LT$smoltcp..wire..ip..Protocol$u20$as$u20$core..convert..From$LT$u8$GT$$GT$4from17h448f21062a282cb0E
400fbd54 l     F .text	00000064 _ZN7smoltcp5iface9interface4ipv459_$LT$impl$u20$smoltcp..iface..interface..InterfaceInner$GT$13is_unicast_v417h449a4c078cd9de43E
400fbdb8 l     F .text	000000e9 _ZN7smoltcp4wire3udp4Repr5parse17h095520b66e476819E
400fbea4 l     F .text	00000070 _ZN7smoltcp4wire3udp19Packet$LT$$RF$T$GT$7payload17h2b6f343c0542111eE
400fbf14 l     F .text	000009f0 _ZN7smoltcp6socket6dhcpv46Socket7process17h5cd483b5d985de2cE
400fd8c8 l     F .text	00000050 _ZN7smoltcp4wire3dns15Packet$LT$T$GT$6opcode17hbfefd3d8d7a09ef5E
400fd918 l     F .text	00000044 _ZN7smoltcp4wire3dns15Packet$LT$T$GT$5rcode17h4928770c945d90d4E
400fd95c l     F .text	00000119 _ZN7smoltcp4wire3dns8Question5parse17h887bea242bc66ca8E
400fda78 l     F .text	000001dd _ZN7smoltcp6socket3dns8eq_names17h78621e299283d74bE
400fdc58 l     F .text	000001b3 _ZN7smoltcp4wire3dns6Record5parse17ha54fa92bda8059feE
400fde0c l     F .text	000000c8 _ZN7smoltcp6socket3dns9copy_name17hbc610031285d9d3dE
400fc9f0 l     F .text	000000c4 _ZN7smoltcp5iface9interface4ipv459_$LT$impl$u20$smoltcp..iface..interface..InterfaceInner$GT$12icmpv4_reply17h9d1535d1271747a4E
400fcd74 l     F .text	000005a3 _ZN7smoltcp4wire3tcp4Repr5parse17h7a58f42c824d5be5E
400fd318 l     F .text	00000110 _ZN7smoltcp6socket3tcp6Socket9rst_reply17hbd63083656670d8bE
400fd428 l     F .text	00000188 _ZN7smoltcp6socket3tcp6Socket9ack_reply17h16ef393991aa4146E
400fd604 l     F .text	00000050 _ZN7smoltcp7storage11ring_buffer19RingBuffer$LT$T$GT$17dequeue_allocated17h47a828e092a71781E
400fd654 l     F .text	00000182 _ZN7smoltcp7storage9assembler9Assembler21add_then_remove_front17hd676fba3c406fee3E
400fd7d8 l     F .text	0000007e _ZN7smoltcp7storage11ring_buffer19RingBuffer$LT$T$GT$17write_unallocated17ha741eef2595a9cdfE
400fd858 l     F .text	0000006d _ZN7smoltcp6socket3tcp6Socket25immediate_ack_to_transmit17h12d3ca488616988cE
400fcab4 l     F .text	000002c0 _ZN7smoltcp4wire6icmpv44Repr5parse17h14b587226be884b8E
400fe9a0 l     F .text	00000048 _ZN7smoltcp4wire6dhcpv415Packet$LT$T$GT$6opcode17he3f05e581beca89cE
400fe534 l     F .text	0000037f _ZN7smoltcp6socket6dhcpv46Socket9parse_ack17h68bebfc47d00bb48E
400fe8b4 l     F .text	000000ec _ZN4core3cmp9PartialEq2ne17h59ce6612481c764eE
400fe23c l     F .text	0000011a _ZN4core4iter6traits8iterator8Iterator8for_each17hce070bbcf38cb243E
400fe130 l     F .text	00000073 _ZN7smoltcp6socket3tcp6Socket5reply17hb909329d80f6295bE
400fe0b0 l     F .text	0000007e _ZN7smoltcp7storage11ring_buffer19RingBuffer$LT$T$GT$15get_unallocated17he5e223668b6be497E
400fdfe0 l     F .text	00000051 _ZN7smoltcp7storage11ring_buffer19RingBuffer$LT$T$GT$16enqueue_one_with17hbb493bb0d285846aE
400fe034 l     F .text	0000007b _ZN7smoltcp7storage11ring_buffer19RingBuffer$LT$T$GT$17enqueue_many_with17hf3feccbea05f1ad6E
400ff670 l     F .text	00000067 _ZN58_$LT$sntpc..types..Units$u20$as$u20$core..fmt..Display$GT$3fmt17h5c7a4fa961bab240E
400ffdb4 l     F .text	00000198 _ZN65_$LT$sntpc..types..DebugNtpPacket$u20$as$u20$core..fmt..Debug$GT$3fmt17h8e221cca53dac7afE
400fff4c l     F .text	0000006f _ZN4core3fmt3num49_$LT$impl$u20$core..fmt..Debug$u20$for$u20$i8$GT$3fmt17he00f3f6655c21afaE
400fffbc l     F .text	0000024c _ZN42_$LT$$RF$T$u20$as$u20$core..fmt..Debug$GT$3fmt17h2d1f803ee77dc2a8E
40100208 l     F .text	0000005e _ZN42_$LT$$RF$T$u20$as$u20$core..fmt..Debug$GT$3fmt17h7b8f54a31f922abbE
40100268 l     F .text	0000004b _ZN76_$LT$xtensa_lx_rt..exception..ExceptionCause$u20$as$u20$core..fmt..Debug$GT$3fmt17hd67898e547a75487E
00000000 l    df *ABS*	00000000 phy_chip_v7_ana.c
4008806c l     F .rwtext.wifi	00000048 i2c_bbpll_init$part$0
3f42a8c8 l     O .rodata	00000030 CSWTCH$133
3f42a8b8 l     O .rodata	00000010 CSWTCH$169
4016023c l     F .text	0000012b get_rf_freq_init$part$2
00000000 l    df *ABS*	00000000 phy_chip_v7.c
3f42a9cc l     O .rodata	00000006 CSWTCH$360
40161a50 l     F .text	000000a9 bt_txdc_cal$part$5
40161b00 l     F .text	000000a2 bt_txiq_cal$part$6
4018b2b4 l     F .text	0000004a spur_cal$part$8
4008a764 l     F .rwtext.wifi	00000022 bt_tx_gain_cal_set$part$4
3ffb1d6d l     O .data	00000001 rfbb_gain_swp
3ffb1d70 l     O .data	0000000c wifi_rx_gain_swp
3ffb1d64 l     O .data	00000009 bt_rx_gain_swp
00000000 l    df *ABS*	00000000 phy_chip_v7_cal.c
3f42aa70 l     O .rodata	00000008 CSWTCH$256
3f42aa78 l     O .rodata	00000006 CSWTCH$254
3f42aa68 l     O .rodata	00000008 CSWTCH$266
3f42aa80 l     O .rodata	00000006 dco_gain_coarse$4710
3f42aa64 l     O .rodata	00000003 CSWTCH$283
3f42aa58 l     O .rodata	0000000b CSWTCH$289
3f42aa54 l     O .rodata	00000004 CSWTCH$293
00000000 l    df *ABS*	00000000 ssl_tls.c
401048d0 l     F .text	00000023 tls_prf_sha384
401048f4 l     F .text	00000023 tls_prf_sha256
40108224 l     F .text	0000019e tls_prf_generic
3f41aba8 l     O .rodata	00000074 extension_name_table
3f41ac1c l     O .rodata	00000074 extension_type_table
40104b28 l     F .text	00000019 ssl_update_checksum_sha256
40104b0c l     F .text	00000019 ssl_update_checksum_sha384
40104d60 l     F .text	000002db ssl_handshake_init
401081f4 l     F .text	0000002f ssl_update_checksum_start
3f41ad90 l     O .rodata	000000e0 tls_id_match_table
40105af0 l     F .text	0000001f ssl_clear_peer_cert
40106630 l     F .text	000004ff ssl_tls12_populate_transform
3ffb17d8 l     O .data	0000000a ssl_preset_suiteb_sig_algs
3ffb17e2 l     O .data	00000014 ssl_preset_default_sig_algs
3ffb17f6 l     O .data	0000000a ssl_tls12_preset_suiteb_sig_algs
3ffb1800 l     O .data	00000014 ssl_tls12_preset_default_sig_algs
40105ef8 l     F .text	00000008 ssl_cookie_check_dummy
40105ef0 l     F .text	00000008 ssl_cookie_write_dummy
3ffb1826 l     O .data	00000012 ssl_preset_default_groups
3ffb1820 l     O .data	00000006 ssl_preset_suiteb_groups
3ffb1814 l     O .data	0000000c ssl_preset_suiteb_ciphersuites
401084c0 l     F .text	000000fa ssl_calc_finished_tls_sha256
401083c4 l     F .text	000000fa ssl_calc_finished_tls_sha384
40106bf0 l     F .text	0000009f ssl_calc_verify_tls_sha256
40106b50 l     F .text	0000009f ssl_calc_verify_tls_sha384
00000000 l    df *ABS*	00000000 ssl_tls13_client.c
40110538 l     F .text	000000e6 ssl_tls13_write_binder
401125dc l     F .text	000000ff ssl_tls13_parse_new_session_ticket_exts
3f41b410 l     O .rodata	00000007 ssl_tls13_is_downgrade_negotiation.magic_downgrade_string
40112040 l     F .text	00000068 ssl_tls13_reset_key_share
401124e0 l     F .text	000000fb ssl_tls13_parse_key_share_ext
401123cc l     F .text	00000111 ssl_tls13_parse_hrr_key_share_ext
40112200 l     F .text	000001cc ssl_tls13_parse_server_pre_shared_key_ext
4011217c l     F .text	00000084 ssl_tls13_parse_supported_versions_ext
401120a8 l     F .text	000000d1 ssl_tls13_parse_cookie_ext
40111f34 l     F .text	0000010a ssl_tls13_postprocess_server_hello
40111eac l     F .text	00000085 ssl_tls13_postprocess_hrr
00000000 l    df *ABS*	00000000 ssl_tls13_generic.c
00000000 l    df *ABS*	00000000 x509.c
40113ef8 l     F .text	00000080 x509_get_hash_alg
4011660c l     F .text	000000c0 x509_date_is_valid
00000000 l    df *ABS*	00000000 cipher.c
4011b418 l     F .text	00000069 get_pkcs_padding
4018a54c l     F .text	0000001f add_pkcs_padding
4018a56c l     F .text	00000029 add_one_and_zeros_padding
4011b484 l     F .text	00000063 get_one_and_zeros_padding
4018a598 l     F .text	0000002c add_zeros_and_len_padding
4011b4e8 l     F .text	00000068 get_zeros_and_len_padding
4011b550 l     F .text	00000015 add_zeros_padding
4011b568 l     F .text	00000047 get_zeros_padding
4011b5b0 l     F .text	00000014 get_no_padding
00000000 l    df *ABS*	00000000 ecp.c
3f41cd8c l     O .rodata	000000a8 ecp_supported_curves
3ffcdcc4 l     O .bss	00000001 mbedtls_ecp_grp_id_list.init_done
3ffcdcc8 l     O .bss	00000038 ecp_supported_grp_id
4011e5a8 l     F .text	000000a1 mbedtls_ecp_sw_derive_y
4011fbbc l     F .text	000000d8 ecp_sw_rhs
4011e75c l     F .text	00000a0a ecp_mul_restartable_internal
4011fd94 l     F .text	0000005b ecp_randomize_mxz
4011fdf0 l     F .text	000001ca ecp_double_add_mxz
4011ffbc l     F .text	00000038 ecp_normalize_mxz
4012003c l     F .text	00000254 ecp_double_jac
4011f5a4 l     F .text	00000093 ecp_normalize_jac
40120290 l     F .text	00000187 ecp_normalize_jac_many
4011f394 l     F .text	0000020f ecp_add_mixed
40120520 l     F .text	000000c8 ecp_select_comb
40120490 l     F .text	00000090 ecp_randomize_jac
4011f264 l     F .text	0000012e mbedtls_ecp_mul_shortcuts
3ffcdd08 l     O .bss	00000004 add_count
4011fc94 l     F .text	000000c1 mbedtls_mpi_mul_mod
4011fff4 l     F .text	00000046 mbedtls_mpi_sub_mod
40120454 l     F .text	0000003a mbedtls_mpi_shift_l_mod
3f41ce34 l     O .rodata	0000000c ecp_x25519_bad_point_1
3f41ce40 l     O .rodata	0000000c ecp_x25519_bad_point_2
3ffcdd04 l     O .bss	00000004 dbl_count
3ffcdd00 l     O .bss	00000004 mul_count
4011fd58 l     F .text	0000003c mbedtls_mpi_add_mod
40120418 l     F .text	0000003c mbedtls_mpi_mul_int_mod
3f41ce4c l     O .rodata	00000020 x25519_bad_point_1
3f41ce6c l     O .rodata	00000020 x25519_bad_point_2
00000000 l    df *ABS*	00000000 hash_info.c
3f424e78 l     O .rodata	00000060 hash_table
00000000 l    df *ABS*	00000000 md.c
00000000 l    df *ABS*	00000000 oid.c
3f42532c l     O .rodata	000001a4 oid_x520_attr_type
3f4254d0 l     O .rodata	0000008c oid_x509_ext
3f42555c l     O .rodata	00000080 oid_ext_key_usage
3f424ffc l     O .rodata	00000150 oid_sig_alg
3f42514c l     O .rodata	00000050 oid_pk_alg
3f42519c l     O .rodata	000000f0 oid_ecp_grp
3f425608 l     O .rodata	0000003c oid_cipher_alg
3f42528c l     O .rodata	000000a0 oid_md_alg
3f425644 l     O .rodata	00000078 oid_md_hmac
3f4256bc l     O .rodata	00000048 oid_pkcs12_pbe_alg
00000000 l    df *ABS*	00000000 pk.c
00000000 l    df *ABS*	00000000 psa_crypto.c
3ffcdd0c l     O .bss	0000000c global_data
40129cf0 l     F .text	0000027b psa_key_algorithm_permits
40127f04 l     F .text	0000010a psa_get_and_lock_key_slot_with_policy
4012822c l     F .text	000000b9 psa_start_key_creation
401282e8 l     F .text	000000dc psa_validate_optional_attributes
40129f6c l     F .text	00000155 psa_mac_finalize_alg_and_key_validation
401285dc l     F .text	000000e3 psa_mac_compute_internal
4012879c l     F .text	00000113 psa_sign_internal
40128958 l     F .text	000000df psa_sign_verify_check_alg
4012a0c4 l     F .text	00000097 psa_key_derivation_start_hmac
40129160 l     F .text	00000038 psa_key_derivation_tls12_ecjpake_to_pms_read
401291f8 l     F .text	000000ff psa_key_derivation_setup_kdf
40129310 l     F .text	0000050f psa_key_derivation_input_internal
4012a15c l     F .text	000000a6 psa_tls12_prf_input
00000000 l    df *ABS*	00000000 psa_crypto_ecp.c
00000000 l    df *ABS*	00000000 psa_crypto_hash.c
00000000 l    df *ABS*	00000000 psa_crypto_mac.c
4012ae10 l     F .text	00000292 psa_mac_setup
4012b118 l     F .text	0000011c psa_mac_finish_internal
00000000 l    df *ABS*	00000000 ssl_ciphersuites.c
3ffce220 l     O .bss	00000001 supported_init
3f426050 l     O .rodata	000002fc ciphersuite_preference
3ffce224 l     O .bss	000002ac supported_ciphersuites
3f42634c l     O .rodata	00000ab0 ciphersuite_definitions
00000000 l    df *ABS*	00000000 ssl_tls13_keys.c
3f426fe5 l     O .rodata	00000006 tls13_label_prefix
40136940 l     F .text	00000123 ssl_tls13_calc_finished_core
00000000 l    df *ABS*	00000000 camellia.c
3f4296dc l     O .rodata	00000100 FSb
3f4297dc l     O .rodata	00000100 FSb2
3f4298dc l     O .rodata	00000100 FSb3
3f4299dc l     O .rodata	00000100 FSb4
3ffb11a8 l     O .data	00000020 shifts
3f429614 l     O .rodata	000000a0 indexes
3f4296b4 l     O .rodata	00000028 transposes
3ffb11c8 l     O .data	00000020 camellia_test_ecb_plain
00000000 l    df *ABS*	00000000 ecp_curves.c
40121ca0 l     F .text	0000010f ecp_mod_p448
3f424d78 l     O .rodata	00000040 curve448_p
3f424db8 l     O .rodata	00000040 curve448_n
40121c4c l     F .text	00000054 ecp_mod_p255
3f424d38 l     O .rodata	00000020 curve25519_p
3f424d58 l     O .rodata	00000020 curve25519_n
3f41f478 l     O .rodata	00000040 brainpoolP512r1_n
3f41f3b8 l     O .rodata	00000040 brainpoolP512r1_b
3f41f378 l     O .rodata	00000040 brainpoolP512r1_a
3f41f338 l     O .rodata	00000040 brainpoolP512r1_p
3ffb1838 l     O .data	00000004 mpi_one
3f41f438 l     O .rodata	00000040 brainpoolP512r1_gy
3f41f3f8 l     O .rodata	00000040 brainpoolP512r1_gx
3f41f4b8 l     O .rodata	00000480 brainpoolP512r1_T
3f41ee88 l     O .rodata	00000030 brainpoolP384r1_n
3f41edf8 l     O .rodata	00000030 brainpoolP384r1_b
3f41edc8 l     O .rodata	00000030 brainpoolP384r1_a
3f41ed98 l     O .rodata	00000030 brainpoolP384r1_p
3f41ee58 l     O .rodata	00000030 brainpoolP384r1_gy
3f41ee28 l     O .rodata	00000030 brainpoolP384r1_gx
3f41eeb8 l     O .rodata	00000480 brainpoolP384r1_T
3f41eb38 l     O .rodata	00000020 brainpoolP256r1_n
3f41ead8 l     O .rodata	00000020 brainpoolP256r1_b
3f41eab8 l     O .rodata	00000020 brainpoolP256r1_a
3f41ea98 l     O .rodata	00000020 brainpoolP256r1_p
3f41eb18 l     O .rodata	00000020 brainpoolP256r1_gy
3f41eaf8 l     O .rodata	00000020 brainpoolP256r1_gx
3f41eb58 l     O .rodata	00000240 brainpoolP256r1_T
3f41e838 l     O .rodata	00000020 secp256k1_n
3f41e7f4 l     O .rodata	00000004 secp256k1_b
3f41e7f0 l     O .rodata	00000004 secp256k1_a
3f41e7d0 l     O .rodata	00000020 secp256k1_p
40121c38 l     F .text	00000014 ecp_mod_p256k1
3f41e818 l     O .rodata	00000020 secp256k1_gy
3f41e7f8 l     O .rodata	00000020 secp256k1_gx
3f41e858 l     O .rodata	00000240 secp256k1_T
3f41e570 l     O .rodata	00000020 secp224k1_n
3f41e534 l     O .rodata	00000004 secp224k1_b
3f41e530 l     O .rodata	00000004 secp224k1_a
3f41e514 l     O .rodata	0000001c secp224k1_p
40121c24 l     F .text	00000014 ecp_mod_p224k1
3f41e554 l     O .rodata	0000001c secp224k1_gy
3f41e538 l     O .rodata	0000001c secp224k1_gx
3f41e590 l     O .rodata	00000240 secp224k1_T
3f41e2bc l     O .rodata	00000018 secp192k1_n
3f41e288 l     O .rodata	00000004 secp192k1_b
3f41e284 l     O .rodata	00000004 secp192k1_a
3f41e26c l     O .rodata	00000018 secp192k1_p
40121c10 l     F .text	00000014 ecp_mod_p192k1
3f41e2a4 l     O .rodata	00000018 secp192k1_gy
3f41e28c l     O .rodata	00000018 secp192k1_gx
3f41e2d4 l     O .rodata	00000240 secp192k1_T
3f41dda8 l     O .rodata	00000044 secp521r1_n
3f41dcdc l     O .rodata	00000044 secp521r1_b
3f41dc98 l     O .rodata	00000044 secp521r1_p
40121b9c l     F .text	00000074 ecp_mod_p521
3f41dd64 l     O .rodata	00000044 secp521r1_gy
3f41dd20 l     O .rodata	00000044 secp521r1_gx
3f41ddec l     O .rodata	00000480 secp521r1_T
3f41d7e8 l     O .rodata	00000030 secp384r1_n
3f41d758 l     O .rodata	00000030 secp384r1_b
3f41d728 l     O .rodata	00000030 secp384r1_p
40121528 l     F .text	00000673 ecp_mod_p384
3f41d7b8 l     O .rodata	00000030 secp384r1_gy
3f41d788 l     O .rodata	00000030 secp384r1_gx
3f41d818 l     O .rodata	00000480 secp384r1_T
3f41d4c8 l     O .rodata	00000020 secp256r1_n
3f41d468 l     O .rodata	00000020 secp256r1_b
3f41d448 l     O .rodata	00000020 secp256r1_p
40120f70 l     F .text	000005b6 ecp_mod_p256
3f41d4a8 l     O .rodata	00000020 secp256r1_gy
3f41d488 l     O .rodata	00000020 secp256r1_gx
3f41d4e8 l     O .rodata	00000240 secp256r1_T
3f41d1ec l     O .rodata	0000001c secp224r1_n
3f41d198 l     O .rodata	0000001c secp224r1_b
3f41d178 l     O .rodata	00000020 secp224r1_p
40120d64 l     F .text	0000020c ecp_mod_p224
3f41d1d0 l     O .rodata	0000001c secp224r1_gy
3f41d1b4 l     O .rodata	0000001c secp224r1_gx
3f41d208 l     O .rodata	00000240 secp224r1_T
3f41cf20 l     O .rodata	00000018 secp192r1_n
3f41ced8 l     O .rodata	00000018 secp192r1_b
3f41cec0 l     O .rodata	00000018 secp192r1_p
40120b58 l     F .text	0000020b ecp_mod_p192
3f41cf08 l     O .rodata	00000018 secp192r1_gy
3f41cef0 l     O .rodata	00000018 secp192r1_gx
3f41cf38 l     O .rodata	00000240 secp192r1_T
3ffb183c l     O .data	00000008 ecp_mod_p192k1.Rp
40121db0 l     F .text	000000f2 ecp_mod_koblitz
3ffb1844 l     O .data	00000008 ecp_mod_p224k1.Rp
3ffb184c l     O .data	00000008 ecp_mod_p256k1.Rp
3f41f938 l     O .rodata	00000018 secp192r1_T_0_X
3f41f950 l     O .rodata	00000018 secp192r1_T_0_Y
3f41f968 l     O .rodata	00000018 secp192r1_T_1_X
3f41f980 l     O .rodata	00000018 secp192r1_T_1_Y
3f41f998 l     O .rodata	00000018 secp192r1_T_2_X
3f41f9b0 l     O .rodata	00000018 secp192r1_T_2_Y
3f41f9c8 l     O .rodata	00000018 secp192r1_T_3_X
3f41f9e0 l     O .rodata	00000018 secp192r1_T_3_Y
3f41f9f8 l     O .rodata	00000018 secp192r1_T_4_X
3f41fa10 l     O .rodata	00000018 secp192r1_T_4_Y
3f41fa28 l     O .rodata	00000018 secp192r1_T_5_X
3f41fa40 l     O .rodata	00000018 secp192r1_T_5_Y
3f41fa58 l     O .rodata	00000018 secp192r1_T_6_X
3f41fa70 l     O .rodata	00000018 secp192r1_T_6_Y
3f41fa88 l     O .rodata	00000018 secp192r1_T_7_X
3f41faa0 l     O .rodata	00000018 secp192r1_T_7_Y
3f41fab8 l     O .rodata	00000018 secp192r1_T_8_X
3f41fad0 l     O .rodata	00000018 secp192r1_T_8_Y
3f41fae8 l     O .rodata	00000018 secp192r1_T_9_X
3f41fb00 l     O .rodata	00000018 secp192r1_T_9_Y
3f41fb18 l     O .rodata	00000018 secp192r1_T_10_X
3f41fb30 l     O .rodata	00000018 secp192r1_T_10_Y
3f41fb48 l     O .rodata	00000018 secp192r1_T_11_X
3f41fb60 l     O .rodata	00000018 secp192r1_T_11_Y
3f41fb78 l     O .rodata	00000018 secp192r1_T_12_X
3f41fb90 l     O .rodata	00000018 secp192r1_T_12_Y
3f41fba8 l     O .rodata	00000018 secp192r1_T_13_X
3f41fbc0 l     O .rodata	00000018 secp192r1_T_13_Y
3f41fbd8 l     O .rodata	00000018 secp192r1_T_14_X
3f41fbf0 l     O .rodata	00000018 secp192r1_T_14_Y
3f41fc08 l     O .rodata	00000018 secp192r1_T_15_X
3f41fc20 l     O .rodata	00000018 secp192r1_T_15_Y
3f41fc38 l     O .rodata	00000020 secp224r1_T_0_X
3f41fc58 l     O .rodata	00000020 secp224r1_T_0_Y
3f41fc78 l     O .rodata	00000020 secp224r1_T_1_X
3f41fc98 l     O .rodata	00000020 secp224r1_T_1_Y
3f41fcb8 l     O .rodata	00000020 secp224r1_T_2_X
3f41fcd8 l     O .rodata	00000020 secp224r1_T_2_Y
3f41fcf8 l     O .rodata	00000020 secp224r1_T_3_X
3f41fd18 l     O .rodata	00000020 secp224r1_T_3_Y
3f41fd38 l     O .rodata	00000020 secp224r1_T_4_X
3f41fd58 l     O .rodata	00000020 secp224r1_T_4_Y
3f41fd78 l     O .rodata	00000020 secp224r1_T_5_X
3f41fd98 l     O .rodata	00000020 secp224r1_T_5_Y
3f41fdb8 l     O .rodata	00000020 secp224r1_T_6_X
3f41fdd8 l     O .rodata	00000020 secp224r1_T_6_Y
3f41fdf8 l     O .rodata	00000020 secp224r1_T_7_X
3f41fe18 l     O .rodata	00000020 secp224r1_T_7_Y
3f41fe38 l     O .rodata	00000020 secp224r1_T_8_X
3f41fe58 l     O .rodata	00000020 secp224r1_T_8_Y
3f41fe78 l     O .rodata	00000020 secp224r1_T_9_X
3f41fe98 l     O .rodata	00000020 secp224r1_T_9_Y
3f41feb8 l     O .rodata	00000020 secp224r1_T_10_X
3f41fed8 l     O .rodata	00000020 secp224r1_T_10_Y
3f41fef8 l     O .rodata	00000020 secp224r1_T_11_X
3f41ff18 l     O .rodata	00000020 secp224r1_T_11_Y
3f41ff38 l     O .rodata	00000020 secp224r1_T_12_X
3f41ff58 l     O .rodata	00000020 secp224r1_T_12_Y
3f41ff78 l     O .rodata	00000020 secp224r1_T_13_X
3f41ff98 l     O .rodata	00000020 secp224r1_T_13_Y
3f41ffb8 l     O .rodata	00000020 secp224r1_T_14_X
3f41ffd8 l     O .rodata	00000020 secp224r1_T_14_Y
3f41fff8 l     O .rodata	00000020 secp224r1_T_15_X
3f420018 l     O .rodata	00000020 secp224r1_T_15_Y
3f420038 l     O .rodata	00000020 secp256r1_T_0_X
3f420058 l     O .rodata	00000020 secp256r1_T_0_Y
3f420078 l     O .rodata	00000020 secp256r1_T_1_X
3f420098 l     O .rodata	00000020 secp256r1_T_1_Y
3f4200b8 l     O .rodata	00000020 secp256r1_T_2_X
3f4200d8 l     O .rodata	00000020 secp256r1_T_2_Y
3f4200f8 l     O .rodata	00000020 secp256r1_T_3_X
3f420118 l     O .rodata	00000020 secp256r1_T_3_Y
3f420138 l     O .rodata	00000020 secp256r1_T_4_X
3f420158 l     O .rodata	00000020 secp256r1_T_4_Y
3f420178 l     O .rodata	00000020 secp256r1_T_5_X
3f420198 l     O .rodata	00000020 secp256r1_T_5_Y
3f4201b8 l     O .rodata	00000020 secp256r1_T_6_X
3f4201d8 l     O .rodata	00000020 secp256r1_T_6_Y
3f4201f8 l     O .rodata	00000020 secp256r1_T_7_X
3f420218 l     O .rodata	00000020 secp256r1_T_7_Y
3f420238 l     O .rodata	00000020 secp256r1_T_8_X
3f420258 l     O .rodata	00000020 secp256r1_T_8_Y
3f420278 l     O .rodata	00000020 secp256r1_T_9_X
3f420298 l     O .rodata	00000020 secp256r1_T_9_Y
3f4202b8 l     O .rodata	00000020 secp256r1_T_10_X
3f4202d8 l     O .rodata	00000020 secp256r1_T_10_Y
3f4202f8 l     O .rodata	00000020 secp256r1_T_11_X
3f420318 l     O .rodata	00000020 secp256r1_T_11_Y
3f420338 l     O .rodata	00000020 secp256r1_T_12_X
3f420358 l     O .rodata	00000020 secp256r1_T_12_Y
3f420378 l     O .rodata	00000020 secp256r1_T_13_X
3f420398 l     O .rodata	00000020 secp256r1_T_13_Y
3f4203b8 l     O .rodata	00000020 secp256r1_T_14_X
3f4203d8 l     O .rodata	00000020 secp256r1_T_14_Y
3f4203f8 l     O .rodata	00000020 secp256r1_T_15_X
3f420418 l     O .rodata	00000020 secp256r1_T_15_Y
3f420438 l     O .rodata	00000030 secp384r1_T_0_X
3f420468 l     O .rodata	00000030 secp384r1_T_0_Y
3f420498 l     O .rodata	00000030 secp384r1_T_1_X
3f4204c8 l     O .rodata	00000030 secp384r1_T_1_Y
3f4204f8 l     O .rodata	00000030 secp384r1_T_2_X
3f420528 l     O .rodata	00000030 secp384r1_T_2_Y
3f420558 l     O .rodata	00000030 secp384r1_T_3_X
3f420588 l     O .rodata	00000030 secp384r1_T_3_Y
3f4205b8 l     O .rodata	00000030 secp384r1_T_4_X
3f4205e8 l     O .rodata	00000030 secp384r1_T_4_Y
3f420618 l     O .rodata	00000030 secp384r1_T_5_X
3f420648 l     O .rodata	00000030 secp384r1_T_5_Y
3f420678 l     O .rodata	00000030 secp384r1_T_6_X
3f4206a8 l     O .rodata	00000030 secp384r1_T_6_Y
3f4206d8 l     O .rodata	00000030 secp384r1_T_7_X
3f420708 l     O .rodata	00000030 secp384r1_T_7_Y
3f420738 l     O .rodata	00000030 secp384r1_T_8_X
3f420768 l     O .rodata	00000030 secp384r1_T_8_Y
3f420798 l     O .rodata	00000030 secp384r1_T_9_X
3f4207c8 l     O .rodata	00000030 secp384r1_T_9_Y
3f4207f8 l     O .rodata	00000030 secp384r1_T_10_X
3f420828 l     O .rodata	00000030 secp384r1_T_10_Y
3f420858 l     O .rodata	00000030 secp384r1_T_11_X
3f420888 l     O .rodata	00000030 secp384r1_T_11_Y
3f4208b8 l     O .rodata	00000030 secp384r1_T_12_X
3f4208e8 l     O .rodata	00000030 secp384r1_T_12_Y
3f420918 l     O .rodata	00000030 secp384r1_T_13_X
3f420948 l     O .rodata	00000030 secp384r1_T_13_Y
3f420978 l     O .rodata	00000030 secp384r1_T_14_X
3f4209a8 l     O .rodata	00000030 secp384r1_T_14_Y
3f4209d8 l     O .rodata	00000030 secp384r1_T_15_X
3f420a08 l     O .rodata	00000030 secp384r1_T_15_Y
3f420a38 l     O .rodata	00000030 secp384r1_T_16_X
3f420a68 l     O .rodata	00000030 secp384r1_T_16_Y
3f420a98 l     O .rodata	00000030 secp384r1_T_17_X
3f420ac8 l     O .rodata	00000030 secp384r1_T_17_Y
3f420af8 l     O .rodata	00000030 secp384r1_T_18_X
3f420b28 l     O .rodata	00000030 secp384r1_T_18_Y
3f420b58 l     O .rodata	00000030 secp384r1_T_19_X
3f420b88 l     O .rodata	00000030 secp384r1_T_19_Y
3f420bb8 l     O .rodata	00000030 secp384r1_T_20_X
3f420be8 l     O .rodata	00000030 secp384r1_T_20_Y
3f420c18 l     O .rodata	00000030 secp384r1_T_21_X
3f420c48 l     O .rodata	00000030 secp384r1_T_21_Y
3f420c78 l     O .rodata	00000030 secp384r1_T_22_X
3f420ca8 l     O .rodata	00000030 secp384r1_T_22_Y
3f420cd8 l     O .rodata	00000030 secp384r1_T_23_X
3f420d08 l     O .rodata	00000030 secp384r1_T_23_Y
3f420d38 l     O .rodata	00000030 secp384r1_T_24_X
3f420d68 l     O .rodata	00000030 secp384r1_T_24_Y
3f420d98 l     O .rodata	00000030 secp384r1_T_25_X
3f420dc8 l     O .rodata	00000030 secp384r1_T_25_Y
3f420df8 l     O .rodata	00000030 secp384r1_T_26_X
3f420e28 l     O .rodata	00000030 secp384r1_T_26_Y
3f420e58 l     O .rodata	00000030 secp384r1_T_27_X
3f420e88 l     O .rodata	00000030 secp384r1_T_27_Y
3f420eb8 l     O .rodata	00000030 secp384r1_T_28_X
3f420ee8 l     O .rodata	00000030 secp384r1_T_28_Y
3f420f18 l     O .rodata	00000030 secp384r1_T_29_X
3f420f48 l     O .rodata	00000030 secp384r1_T_29_Y
3f420f78 l     O .rodata	00000030 secp384r1_T_30_X
3f420fa8 l     O .rodata	00000030 secp384r1_T_30_Y
3f420fd8 l     O .rodata	00000030 secp384r1_T_31_X
3f421008 l     O .rodata	00000030 secp384r1_T_31_Y
3f421038 l     O .rodata	00000048 secp521r1_T_0_X
3f421080 l     O .rodata	00000048 secp521r1_T_0_Y
3f4210c8 l     O .rodata	00000048 secp521r1_T_1_X
3f421110 l     O .rodata	00000048 secp521r1_T_1_Y
3f421158 l     O .rodata	00000048 secp521r1_T_2_X
3f4211a0 l     O .rodata	00000048 secp521r1_T_2_Y
3f4211e8 l     O .rodata	00000048 secp521r1_T_3_X
3f421230 l     O .rodata	00000048 secp521r1_T_3_Y
3f421278 l     O .rodata	00000048 secp521r1_T_4_X
3f4212c0 l     O .rodata	00000048 secp521r1_T_4_Y
3f421308 l     O .rodata	00000048 secp521r1_T_5_X
3f421350 l     O .rodata	00000048 secp521r1_T_5_Y
3f421398 l     O .rodata	00000048 secp521r1_T_6_X
3f4213e0 l     O .rodata	00000048 secp521r1_T_6_Y
3f421428 l     O .rodata	00000048 secp521r1_T_7_X
3f421470 l     O .rodata	00000048 secp521r1_T_7_Y
3f4214b8 l     O .rodata	00000048 secp521r1_T_8_X
3f421500 l     O .rodata	00000048 secp521r1_T_8_Y
3f421548 l     O .rodata	00000048 secp521r1_T_9_X
3f421590 l     O .rodata	00000048 secp521r1_T_9_Y
3f4215d8 l     O .rodata	00000048 secp521r1_T_10_X
3f421620 l     O .rodata	00000048 secp521r1_T_10_Y
3f421668 l     O .rodata	00000048 secp521r1_T_11_X
3f4216b0 l     O .rodata	00000048 secp521r1_T_11_Y
3f4216f8 l     O .rodata	00000048 secp521r1_T_12_X
3f421740 l     O .rodata	00000048 secp521r1_T_12_Y
3f421788 l     O .rodata	00000048 secp521r1_T_13_X
3f4217d0 l     O .rodata	00000048 secp521r1_T_13_Y
3f421818 l     O .rodata	00000048 secp521r1_T_14_X
3f421860 l     O .rodata	00000048 secp521r1_T_14_Y
3f4218a8 l     O .rodata	00000048 secp521r1_T_15_X
3f4218f0 l     O .rodata	00000048 secp521r1_T_15_Y
3f421938 l     O .rodata	00000048 secp521r1_T_16_X
3f421980 l     O .rodata	00000048 secp521r1_T_16_Y
3f4219c8 l     O .rodata	00000048 secp521r1_T_17_X
3f421a10 l     O .rodata	00000048 secp521r1_T_17_Y
3f421a58 l     O .rodata	00000048 secp521r1_T_18_X
3f421aa0 l     O .rodata	00000048 secp521r1_T_18_Y
3f421ae8 l     O .rodata	00000048 secp521r1_T_19_X
3f421b30 l     O .rodata	00000048 secp521r1_T_19_Y
3f421b78 l     O .rodata	00000048 secp521r1_T_20_X
3f421bc0 l     O .rodata	00000048 secp521r1_T_20_Y
3f421c08 l     O .rodata	00000048 secp521r1_T_21_X
3f421c50 l     O .rodata	00000048 secp521r1_T_21_Y
3f421c98 l     O .rodata	00000048 secp521r1_T_22_X
3f421ce0 l     O .rodata	00000048 secp521r1_T_22_Y
3f421d28 l     O .rodata	00000048 secp521r1_T_23_X
3f421d70 l     O .rodata	00000048 secp521r1_T_23_Y
3f421db8 l     O .rodata	00000048 secp521r1_T_24_X
3f421e00 l     O .rodata	00000048 secp521r1_T_24_Y
3f421e48 l     O .rodata	00000048 secp521r1_T_25_X
3f421e90 l     O .rodata	00000048 secp521r1_T_25_Y
3f421ed8 l     O .rodata	00000048 secp521r1_T_26_X
3f421f20 l     O .rodata	00000048 secp521r1_T_26_Y
3f421f68 l     O .rodata	00000048 secp521r1_T_27_X
3f421fb0 l     O .rodata	00000048 secp521r1_T_27_Y
3f421ff8 l     O .rodata	00000048 secp521r1_T_28_X
3f422040 l     O .rodata	00000048 secp521r1_T_28_Y
3f422088 l     O .rodata	00000048 secp521r1_T_29_X
3f4220d0 l     O .rodata	00000048 secp521r1_T_29_Y
3f422118 l     O .rodata	00000048 secp521r1_T_30_X
3f422160 l     O .rodata	00000048 secp521r1_T_30_Y
3f4221a8 l     O .rodata	00000048 secp521r1_T_31_X
3f4221f0 l     O .rodata	00000048 secp521r1_T_31_Y
3f422238 l     O .rodata	00000018 secp192k1_T_0_X
3f422250 l     O .rodata	00000018 secp192k1_T_0_Y
3f422268 l     O .rodata	00000018 secp192k1_T_1_X
3f422280 l     O .rodata	00000018 secp192k1_T_1_Y
3f422298 l     O .rodata	00000018 secp192k1_T_2_X
3f4222b0 l     O .rodata	00000018 secp192k1_T_2_Y
3f4222c8 l     O .rodata	00000018 secp192k1_T_3_X
3f4222e0 l     O .rodata	00000018 secp192k1_T_3_Y
3f4222f8 l     O .rodata	00000018 secp192k1_T_4_X
3f422310 l     O .rodata	00000018 secp192k1_T_4_Y
3f422328 l     O .rodata	00000018 secp192k1_T_5_X
3f422340 l     O .rodata	00000018 secp192k1_T_5_Y
3f422358 l     O .rodata	00000018 secp192k1_T_6_X
3f422370 l     O .rodata	00000018 secp192k1_T_6_Y
3f422388 l     O .rodata	00000018 secp192k1_T_7_X
3f4223a0 l     O .rodata	00000018 secp192k1_T_7_Y
3f4223b8 l     O .rodata	00000018 secp192k1_T_8_X
3f4223d0 l     O .rodata	00000018 secp192k1_T_8_Y
3f4223e8 l     O .rodata	00000018 secp192k1_T_9_X
3f422400 l     O .rodata	00000018 secp192k1_T_9_Y
3f422418 l     O .rodata	00000018 secp192k1_T_10_X
3f422430 l     O .rodata	00000018 secp192k1_T_10_Y
3f422448 l     O .rodata	00000018 secp192k1_T_11_X
3f422460 l     O .rodata	00000018 secp192k1_T_11_Y
3f422478 l     O .rodata	00000018 secp192k1_T_12_X
3f422490 l     O .rodata	00000018 secp192k1_T_12_Y
3f4224a8 l     O .rodata	00000018 secp192k1_T_13_X
3f4224c0 l     O .rodata	00000018 secp192k1_T_13_Y
3f4224d8 l     O .rodata	00000018 secp192k1_T_14_X
3f4224f0 l     O .rodata	00000018 secp192k1_T_14_Y
3f422508 l     O .rodata	00000018 secp192k1_T_15_X
3f422520 l     O .rodata	00000018 secp192k1_T_15_Y
3f422538 l     O .rodata	00000020 secp224k1_T_0_X
3f422558 l     O .rodata	00000020 secp224k1_T_0_Y
3f422578 l     O .rodata	00000020 secp224k1_T_1_X
3f422598 l     O .rodata	00000020 secp224k1_T_1_Y
3f4225b8 l     O .rodata	00000020 secp224k1_T_2_X
3f4225d8 l     O .rodata	00000020 secp224k1_T_2_Y
3f4225f8 l     O .rodata	00000020 secp224k1_T_3_X
3f422618 l     O .rodata	00000020 secp224k1_T_3_Y
3f422638 l     O .rodata	00000020 secp224k1_T_4_X
3f422658 l     O .rodata	00000020 secp224k1_T_4_Y
3f422678 l     O .rodata	00000020 secp224k1_T_5_X
3f422698 l     O .rodata	00000020 secp224k1_T_5_Y
3f4226b8 l     O .rodata	00000020 secp224k1_T_6_X
3f4226d8 l     O .rodata	00000020 secp224k1_T_6_Y
3f4226f8 l     O .rodata	00000020 secp224k1_T_7_X
3f422718 l     O .rodata	00000020 secp224k1_T_7_Y
3f422738 l     O .rodata	00000020 secp224k1_T_8_X
3f422758 l     O .rodata	00000020 secp224k1_T_8_Y
3f422778 l     O .rodata	00000020 secp224k1_T_9_X
3f422798 l     O .rodata	00000020 secp224k1_T_9_Y
3f4227b8 l     O .rodata	00000020 secp224k1_T_10_X
3f4227d8 l     O .rodata	00000020 secp224k1_T_10_Y
3f4227f8 l     O .rodata	00000020 secp224k1_T_11_X
3f422818 l     O .rodata	00000020 secp224k1_T_11_Y
3f422838 l     O .rodata	00000020 secp224k1_T_12_X
3f422858 l     O .rodata	00000020 secp224k1_T_12_Y
3f422878 l     O .rodata	00000020 secp224k1_T_13_X
3f422898 l     O .rodata	00000020 secp224k1_T_13_Y
3f4228b8 l     O .rodata	00000020 secp224k1_T_14_X
3f4228d8 l     O .rodata	00000020 secp224k1_T_14_Y
3f4228f8 l     O .rodata	00000020 secp224k1_T_15_X
3f422918 l     O .rodata	00000020 secp224k1_T_15_Y
3f422938 l     O .rodata	00000020 secp256k1_T_0_X
3f422958 l     O .rodata	00000020 secp256k1_T_0_Y
3f422978 l     O .rodata	00000020 secp256k1_T_1_X
3f422998 l     O .rodata	00000020 secp256k1_T_1_Y
3f4229b8 l     O .rodata	00000020 secp256k1_T_2_X
3f4229d8 l     O .rodata	00000020 secp256k1_T_2_Y
3f4229f8 l     O .rodata	00000020 secp256k1_T_3_X
3f422a18 l     O .rodata	00000020 secp256k1_T_3_Y
3f422a38 l     O .rodata	00000020 secp256k1_T_4_X
3f422a58 l     O .rodata	00000020 secp256k1_T_4_Y
3f422a78 l     O .rodata	00000020 secp256k1_T_5_X
3f422a98 l     O .rodata	00000020 secp256k1_T_5_Y
3f422ab8 l     O .rodata	00000020 secp256k1_T_6_X
3f422ad8 l     O .rodata	00000020 secp256k1_T_6_Y
3f422af8 l     O .rodata	00000020 secp256k1_T_7_X
3f422b18 l     O .rodata	00000020 secp256k1_T_7_Y
3f422b38 l     O .rodata	00000020 secp256k1_T_8_X
3f422b58 l     O .rodata	00000020 secp256k1_T_8_Y
3f422b78 l     O .rodata	00000020 secp256k1_T_9_X
3f422b98 l     O .rodata	00000020 secp256k1_T_9_Y
3f422bb8 l     O .rodata	00000020 secp256k1_T_10_X
3f422bd8 l     O .rodata	00000020 secp256k1_T_10_Y
3f422bf8 l     O .rodata	00000020 secp256k1_T_11_X
3f422c18 l     O .rodata	00000020 secp256k1_T_11_Y
3f422c38 l     O .rodata	00000020 secp256k1_T_12_X
3f422c58 l     O .rodata	00000020 secp256k1_T_12_Y
3f422c78 l     O .rodata	00000020 secp256k1_T_13_X
3f422c98 l     O .rodata	00000020 secp256k1_T_13_Y
3f422cb8 l     O .rodata	00000020 secp256k1_T_14_X
3f422cd8 l     O .rodata	00000020 secp256k1_T_14_Y
3f422cf8 l     O .rodata	00000020 secp256k1_T_15_X
3f422d18 l     O .rodata	00000020 secp256k1_T_15_Y
3f422d38 l     O .rodata	00000020 brainpoolP256r1_T_0_X
3f422d58 l     O .rodata	00000020 brainpoolP256r1_T_0_Y
3f422d78 l     O .rodata	00000020 brainpoolP256r1_T_1_X
3f422d98 l     O .rodata	00000020 brainpoolP256r1_T_1_Y
3f422db8 l     O .rodata	00000020 brainpoolP256r1_T_2_X
3f422dd8 l     O .rodata	00000020 brainpoolP256r1_T_2_Y
3f422df8 l     O .rodata	00000020 brainpoolP256r1_T_3_X
3f422e18 l     O .rodata	00000020 brainpoolP256r1_T_3_Y
3f422e38 l     O .rodata	00000020 brainpoolP256r1_T_4_X
3f422e58 l     O .rodata	00000020 brainpoolP256r1_T_4_Y
3f422e78 l     O .rodata	00000020 brainpoolP256r1_T_5_X
3f422e98 l     O .rodata	00000020 brainpoolP256r1_T_5_Y
3f422eb8 l     O .rodata	00000020 brainpoolP256r1_T_6_X
3f422ed8 l     O .rodata	00000020 brainpoolP256r1_T_6_Y
3f422ef8 l     O .rodata	00000020 brainpoolP256r1_T_7_X
3f422f18 l     O .rodata	00000020 brainpoolP256r1_T_7_Y
3f422f38 l     O .rodata	00000020 brainpoolP256r1_T_8_X
3f422f58 l     O .rodata	00000020 brainpoolP256r1_T_8_Y
3f422f78 l     O .rodata	00000020 brainpoolP256r1_T_9_X
3f422f98 l     O .rodata	00000020 brainpoolP256r1_T_9_Y
3f422fb8 l     O .rodata	00000020 brainpoolP256r1_T_10_X
3f422fd8 l     O .rodata	00000020 brainpoolP256r1_T_10_Y
3f422ff8 l     O .rodata	00000020 brainpoolP256r1_T_11_X
3f423018 l     O .rodata	00000020 brainpoolP256r1_T_11_Y
3f423038 l     O .rodata	00000020 brainpoolP256r1_T_12_X
3f423058 l     O .rodata	00000020 brainpoolP256r1_T_12_Y
3f423078 l     O .rodata	00000020 brainpoolP256r1_T_13_X
3f423098 l     O .rodata	00000020 brainpoolP256r1_T_13_Y
3f4230b8 l     O .rodata	00000020 brainpoolP256r1_T_14_X
3f4230d8 l     O .rodata	00000020 brainpoolP256r1_T_14_Y
3f4230f8 l     O .rodata	00000020 brainpoolP256r1_T_15_X
3f423118 l     O .rodata	00000020 brainpoolP256r1_T_15_Y
3f423138 l     O .rodata	00000030 brainpoolP384r1_T_0_X
3f423168 l     O .rodata	00000030 brainpoolP384r1_T_0_Y
3f423198 l     O .rodata	00000030 brainpoolP384r1_T_1_X
3f4231c8 l     O .rodata	00000030 brainpoolP384r1_T_1_Y
3f4231f8 l     O .rodata	00000030 brainpoolP384r1_T_2_X
3f423228 l     O .rodata	00000030 brainpoolP384r1_T_2_Y
3f423258 l     O .rodata	00000030 brainpoolP384r1_T_3_X
3f423288 l     O .rodata	00000030 brainpoolP384r1_T_3_Y
3f4232b8 l     O .rodata	00000030 brainpoolP384r1_T_4_X
3f4232e8 l     O .rodata	00000030 brainpoolP384r1_T_4_Y
3f423318 l     O .rodata	00000030 brainpoolP384r1_T_5_X
3f423348 l     O .rodata	00000030 brainpoolP384r1_T_5_Y
3f423378 l     O .rodata	00000030 brainpoolP384r1_T_6_X
3f4233a8 l     O .rodata	00000030 brainpoolP384r1_T_6_Y
3f4233d8 l     O .rodata	00000030 brainpoolP384r1_T_7_X
3f423408 l     O .rodata	00000030 brainpoolP384r1_T_7_Y
3f423438 l     O .rodata	00000030 brainpoolP384r1_T_8_X
3f423468 l     O .rodata	00000030 brainpoolP384r1_T_8_Y
3f423498 l     O .rodata	00000030 brainpoolP384r1_T_9_X
3f4234c8 l     O .rodata	00000030 brainpoolP384r1_T_9_Y
3f4234f8 l     O .rodata	00000030 brainpoolP384r1_T_10_X
3f423528 l     O .rodata	00000030 brainpoolP384r1_T_10_Y
3f423558 l     O .rodata	00000030 brainpoolP384r1_T_11_X
3f423588 l     O .rodata	00000030 brainpoolP384r1_T_11_Y
3f4235b8 l     O .rodata	00000030 brainpoolP384r1_T_12_X
3f4235e8 l     O .rodata	00000030 brainpoolP384r1_T_12_Y
3f423618 l     O .rodata	00000030 brainpoolP384r1_T_13_X
3f423648 l     O .rodata	00000030 brainpoolP384r1_T_13_Y
3f423678 l     O .rodata	00000030 brainpoolP384r1_T_14_X
3f4236a8 l     O .rodata	00000030 brainpoolP384r1_T_14_Y
3f4236d8 l     O .rodata	00000030 brainpoolP384r1_T_15_X
3f423708 l     O .rodata	00000030 brainpoolP384r1_T_15_Y
3f423738 l     O .rodata	00000030 brainpoolP384r1_T_16_X
3f423768 l     O .rodata	00000030 brainpoolP384r1_T_16_Y
3f423798 l     O .rodata	00000030 brainpoolP384r1_T_17_X
3f4237c8 l     O .rodata	00000030 brainpoolP384r1_T_17_Y
3f4237f8 l     O .rodata	00000030 brainpoolP384r1_T_18_X
3f423828 l     O .rodata	00000030 brainpoolP384r1_T_18_Y
3f423858 l     O .rodata	00000030 brainpoolP384r1_T_19_X
3f423888 l     O .rodata	00000030 brainpoolP384r1_T_19_Y
3f4238b8 l     O .rodata	00000030 brainpoolP384r1_T_20_X
3f4238e8 l     O .rodata	00000030 brainpoolP384r1_T_20_Y
3f423918 l     O .rodata	00000030 brainpoolP384r1_T_21_X
3f423948 l     O .rodata	00000030 brainpoolP384r1_T_21_Y
3f423978 l     O .rodata	00000030 brainpoolP384r1_T_22_X
3f4239a8 l     O .rodata	00000030 brainpoolP384r1_T_22_Y
3f4239d8 l     O .rodata	00000030 brainpoolP384r1_T_23_X
3f423a08 l     O .rodata	00000030 brainpoolP384r1_T_23_Y
3f423a38 l     O .rodata	00000030 brainpoolP384r1_T_24_X
3f423a68 l     O .rodata	00000030 brainpoolP384r1_T_24_Y
3f423a98 l     O .rodata	00000030 brainpoolP384r1_T_25_X
3f423ac8 l     O .rodata	00000030 brainpoolP384r1_T_25_Y
3f423af8 l     O .rodata	00000030 brainpoolP384r1_T_26_X
3f423b28 l     O .rodata	00000030 brainpoolP384r1_T_26_Y
3f423b58 l     O .rodata	00000030 brainpoolP384r1_T_27_X
3f423b88 l     O .rodata	00000030 brainpoolP384r1_T_27_Y
3f423bb8 l     O .rodata	00000030 brainpoolP384r1_T_28_X
3f423be8 l     O .rodata	00000030 brainpoolP384r1_T_28_Y
3f423c18 l     O .rodata	00000030 brainpoolP384r1_T_29_X
3f423c48 l     O .rodata	00000030 brainpoolP384r1_T_29_Y
3f423c78 l     O .rodata	00000030 brainpoolP384r1_T_30_X
3f423ca8 l     O .rodata	00000030 brainpoolP384r1_T_30_Y
3f423cd8 l     O .rodata	00000030 brainpoolP384r1_T_31_X
3f423d08 l     O .rodata	00000030 brainpoolP384r1_T_31_Y
3f423d38 l     O .rodata	00000040 brainpoolP512r1_T_0_X
3f423d78 l     O .rodata	00000040 brainpoolP512r1_T_0_Y
3f423db8 l     O .rodata	00000040 brainpoolP512r1_T_1_X
3f423df8 l     O .rodata	00000040 brainpoolP512r1_T_1_Y
3f423e38 l     O .rodata	00000040 brainpoolP512r1_T_2_X
3f423e78 l     O .rodata	00000040 brainpoolP512r1_T_2_Y
3f423eb8 l     O .rodata	00000040 brainpoolP512r1_T_3_X
3f423ef8 l     O .rodata	00000040 brainpoolP512r1_T_3_Y
3f423f38 l     O .rodata	00000040 brainpoolP512r1_T_4_X
3f423f78 l     O .rodata	00000040 brainpoolP512r1_T_4_Y
3f423fb8 l     O .rodata	00000040 brainpoolP512r1_T_5_X
3f423ff8 l     O .rodata	00000040 brainpoolP512r1_T_5_Y
3f424038 l     O .rodata	00000040 brainpoolP512r1_T_6_X
3f424078 l     O .rodata	00000040 brainpoolP512r1_T_6_Y
3f4240b8 l     O .rodata	00000040 brainpoolP512r1_T_7_X
3f4240f8 l     O .rodata	00000040 brainpoolP512r1_T_7_Y
3f424138 l     O .rodata	00000040 brainpoolP512r1_T_8_X
3f424178 l     O .rodata	00000040 brainpoolP512r1_T_8_Y
3f4241b8 l     O .rodata	00000040 brainpoolP512r1_T_9_X
3f4241f8 l     O .rodata	00000040 brainpoolP512r1_T_9_Y
3f424238 l     O .rodata	00000040 brainpoolP512r1_T_10_X
3f424278 l     O .rodata	00000040 brainpoolP512r1_T_10_Y
3f4242b8 l     O .rodata	00000040 brainpoolP512r1_T_11_X
3f4242f8 l     O .rodata	00000040 brainpoolP512r1_T_11_Y
3f424338 l     O .rodata	00000040 brainpoolP512r1_T_12_X
3f424378 l     O .rodata	00000040 brainpoolP512r1_T_12_Y
3f4243b8 l     O .rodata	00000040 brainpoolP512r1_T_13_X
3f4243f8 l     O .rodata	00000040 brainpoolP512r1_T_13_Y
3f424438 l     O .rodata	00000040 brainpoolP512r1_T_14_X
3f424478 l     O .rodata	00000040 brainpoolP512r1_T_14_Y
3f4244b8 l     O .rodata	00000040 brainpoolP512r1_T_15_X
3f4244f8 l     O .rodata	00000040 brainpoolP512r1_T_15_Y
3f424538 l     O .rodata	00000040 brainpoolP512r1_T_16_X
3f424578 l     O .rodata	00000040 brainpoolP512r1_T_16_Y
3f4245b8 l     O .rodata	00000040 brainpoolP512r1_T_17_X
3f4245f8 l     O .rodata	00000040 brainpoolP512r1_T_17_Y
3f424638 l     O .rodata	00000040 brainpoolP512r1_T_18_X
3f424678 l     O .rodata	00000040 brainpoolP512r1_T_18_Y
3f4246b8 l     O .rodata	00000040 brainpoolP512r1_T_19_X
3f4246f8 l     O .rodata	00000040 brainpoolP512r1_T_19_Y
3f424738 l     O .rodata	00000040 brainpoolP512r1_T_20_X
3f424778 l     O .rodata	00000040 brainpoolP512r1_T_20_Y
3f4247b8 l     O .rodata	00000040 brainpoolP512r1_T_21_X
3f4247f8 l     O .rodata	00000040 brainpoolP512r1_T_21_Y
3f424838 l     O .rodata	00000040 brainpoolP512r1_T_22_X
3f424878 l     O .rodata	00000040 brainpoolP512r1_T_22_Y
3f4248b8 l     O .rodata	00000040 brainpoolP512r1_T_23_X
3f4248f8 l     O .rodata	00000040 brainpoolP512r1_T_23_Y
3f424938 l     O .rodata	00000040 brainpoolP512r1_T_24_X
3f424978 l     O .rodata	00000040 brainpoolP512r1_T_24_Y
3f4249b8 l     O .rodata	00000040 brainpoolP512r1_T_25_X
3f4249f8 l     O .rodata	00000040 brainpoolP512r1_T_25_Y
3f424a38 l     O .rodata	00000040 brainpoolP512r1_T_26_X
3f424a78 l     O .rodata	00000040 brainpoolP512r1_T_26_Y
3f424ab8 l     O .rodata	00000040 brainpoolP512r1_T_27_X
3f424af8 l     O .rodata	00000040 brainpoolP512r1_T_27_Y
3f424b38 l     O .rodata	00000040 brainpoolP512r1_T_28_X
3f424b78 l     O .rodata	00000040 brainpoolP512r1_T_28_Y
3f424bb8 l     O .rodata	00000040 brainpoolP512r1_T_29_X
3f424bf8 l     O .rodata	00000040 brainpoolP512r1_T_29_Y
3f424c38 l     O .rodata	00000040 brainpoolP512r1_T_30_X
3f424c78 l     O .rodata	00000040 brainpoolP512r1_T_30_Y
3f424cb8 l     O .rodata	00000040 brainpoolP512r1_T_31_X
3f424cf8 l     O .rodata	00000040 brainpoolP512r1_T_31_Y
00000000 l    df *ABS*	00000000 esp_eap_client.c
3ffcea64 l     O .bss	00000004 s_wpa2_api_lock
4016fe54 l     F .text	0000002a wpa2_api_lock
4016fe80 l     F .text	00000017 wpa2_api_unlock
3ffcea70 l     O .bss	00000004 gEapSm
4016fe98 l     F .text	0000001a wpa2_set_eap_state
4016ffdc l     F .text	000000a9 wpa2_ent_rx_eapol
4016ffc8 l     F .text	00000011 wpa2_start_eapol
4017014c l     F .text	000000e6 eap_peer_sm_init
40170088 l     F .text	000000c1 eap_peer_sm_deinit
4016feb4 l     F .text	00000030 esp_client_enable_fn
3ffb25b8 l     O .data	00000004 s_wpa2_state
40170234 l     F .text	00000022 eap_client_disable_fn
3ffcea74 l     O .bss	00000004 s_wpa2_data_lock
3ffcea68 l     O .bss	00000004 s_wpa2_queue
3ffcea60 l     O .bss	00000004 s_wifi_wpa2_sync_sem
3ffcea58 l     O .bss	00000008 s_wpa2_rxq
3ffcea6c l     O .bss	00000004 s_wpa2_task_hdl
3ffb25b4 l     O .data	00000001 s_disable_time_check
00000000 l    df *ABS*	00000000 ssl_tls12_client.c
4010881c l     F .text	00000044 ssl_write_extended_ms_ext
40108860 l     F .text	00000095 ssl_write_session_ticket_ext
4010a8bc l     F .text	00000138 ssl_write_encrypted_pms
4010a844 l     F .text	00000076 ssl_check_server_ecdh_params
4010a5d0 l     F .text	0000004e ssl_parse_server_psk_hint
4010a6d0 l     F .text	0000005a ssl_parse_server_ecdh_params
4010a620 l     F .text	000000b0 ssl_parse_server_dh_params
4010a72c l     F .text	0000004f mbedtls_ssl_get_pk_type_and_md_alg_from_sig_alg
4010a77c l     F .text	00000044 mbedtls_ssl_sig_alg_is_offered
4010a7c0 l     F .text	00000082 mbedtls_ssl_sig_alg_is_supported
4010a518 l     F .text	000000b6 ssl_parse_alpn_ext
4010a48c l     F .text	0000008a ssl_parse_supported_point_formats_ext
4010a444 l     F .text	00000045 ssl_parse_session_ticket_ext
4010a3fc l     F .text	00000045 ssl_parse_extended_ms_ext
4010a3b8 l     F .text	00000044 ssl_parse_encrypt_then_mac_ext
4010a2c0 l     F .text	000000f7 ssl_parse_cid_ext
4010a27c l     F .text	00000042 ssl_parse_max_fragment_length_ext
4010a1f8 l     F .text	00000082 ssl_parse_renegotiation_info
00000000 l    df *ABS*	00000000 ssl_tls12_server.c
4010d754 l     F .text	000001c4 ssl_parse_encrypted_pms
4010d670 l     F .text	000000e4 ssl_parse_client_psk_identity
4010d5e0 l     F .text	00000090 ssl_parse_client_dh_public
4010d598 l     F .text	00000048 ssl_write_supported_point_formats_ext
4010d228 l     F .text	00000100 ssl_parse_session_ticket_ext
4010d1e8 l     F .text	00000040 ssl_parse_extended_ms_ext
4010d1a8 l     F .text	0000003f ssl_parse_encrypt_then_mac_ext
4010d0b4 l     F .text	000000f4 ssl_parse_cid_ext
4010d078 l     F .text	00000039 ssl_parse_max_fragment_length_ext
4010d00c l     F .text	0000006a ssl_parse_supported_point_formats
4010cf30 l     F .text	000000d9 ssl_parse_supported_groups_ext
4010cec4 l     F .text	0000006a ssl_parse_renegotiation_info
4010d328 l     F .text	0000026e ssl_ciphersuite_match
00000000 l    df *ABS*	00000000 ssl_tls13_server.c
4010e948 l     F .text	00000403 ssl_tls13_write_new_session_ticket
4010e90c l     F .text	0000003a ssl_tls13_handshake_wrapup
4010e8d0 l     F .text	0000003a ssl_tls13_process_client_finished
4010e83c l     F .text	00000092 ssl_tls13_write_server_finished
4010e668 l     F .text	000001d2 ssl_tls13_write_server_certificate
4010e550 l     F .text	00000116 ssl_tls13_write_certificate_request
4010e430 l     F .text	00000120 ssl_tls13_write_encrypted_extensions
4010e338 l     F .text	000000f6 ssl_tls13_write_server_hello
4010e240 l     F .text	000000f5 ssl_tls13_write_hello_retry_request
4010dab8 l     F .text	00000786 ssl_tls13_process_client_hello
4010f1b0 l     F .text	000000da ssl_tls13_parse_key_exchange_modes_ext
4010f0f4 l     F .text	000000bb ssl_tls13_parse_supported_versions_ext
4010eed4 l     F .text	0000021d ssl_tls13_parse_key_shares_ext
4010ed4c l     F .text	00000187 ssl_tls13_parse_supported_groups_ext
4010f28c l     F .text	00000436 ssl_tls13_parse_pre_shared_key_ext
4010f6c4 l     F .text	000000c6 ssl_tls13_determine_key_exchange_mode
4010fbb4 l     F .text	0000028d ssl_tls13_write_server_hello_body
40110120 l     F .text	00000029 ssl_tls13_finalize_server_hello
4010f78c l     F .text	0000024a ssl_tls13_offered_psks_check_identity_match
4010fa64 l     F .text	00000083 ssl_tls13_select_ciphersuite_for_resumption
4010f9d8 l     F .text	0000008b ssl_tls13_select_ciphersuite_for_psk
4010fae8 l     F .text	000000cc ssl_tls13_offered_psks_check_binder_match
4010fe44 l     F .text	0000007c ssl_tls13_write_server_hello_supported_versions_ext
4010fec0 l     F .text	000000b8 ssl_tls13_write_hrr_key_share_ext
4010ff78 l     F .text	00000114 ssl_tls13_write_key_share_ext
4011008c l     F .text	00000093 ssl_tls13_write_server_pre_shared_key_ext
00000000 l    df *ABS*	00000000 x509_crt.c
401166e8 l     F .text	00000399 mbedtls_x509_crt_parse_der_internal
40117a00 l     F .text	00000055 x509_get_dates
40117a58 l     F .text	0000003f x509_get_uid
40117a98 l     F .text	0000023c x509_get_crt_ext
40116fe8 l     F .text	0000009c x509_info_ext_key_usage
40117084 l     F .text	0000009c x509_info_cert_policies
401171b4 l     F .text	00000758 x509_crt_verify_restartable_ca_cb
40117e68 l     F .text	000000c9 x509_crt_check_cn
40117f34 l     F .text	000000bc x509_name_cmp
40117d5c l     F .text	0000010b x509_get_certificate_policies
40117cd4 l     F .text	00000087 x509_get_basic_constraints
00000000 l    df *ABS*	00000000 asn1parse.c
00000000 l    df *ABS*	00000000 cipher_wrap.c
4011b830 l     F .text	00000015 aes_crypt_ecb_wrap
4011b848 l     F .text	00000019 aes_crypt_cbc_wrap
4011b864 l     F .text	0000001f aes_crypt_cfb128_wrap
4011b884 l     F .text	00000019 aes_crypt_ofb_wrap
4011b8a0 l     F .text	0000001f aes_crypt_ctr_wrap
4011b8c0 l     F .text	00000013 aes_setkey_enc_wrap
4011b8d4 l     F .text	00000013 aes_setkey_dec_wrap
4011b8e8 l     F .text	0000001d aes_ctx_alloc
4011b908 l     F .text	00000015 aes_ctx_free
4011b920 l     F .text	00000023 aes_crypt_xts_wrap
4011b944 l     F .text	00000013 xts_aes_setkey_enc_wrap
4011b958 l     F .text	00000013 xts_aes_setkey_dec_wrap
4011b96c l     F .text	0000001d xts_aes_ctx_alloc
4011b98c l     F .text	00000018 xts_aes_ctx_free
4011b9a4 l     F .text	00000015 gcm_aes_setkey_wrap
4011b9bc l     F .text	0000001d gcm_ctx_alloc
4011b9dc l     F .text	00000015 gcm_ctx_free
4011b9f4 l     F .text	00000015 ccm_aes_setkey_wrap
4011ba0c l     F .text	0000001d ccm_ctx_alloc
4011ba2c l     F .text	00000015 ccm_ctx_free
4011ba44 l     F .text	00000015 camellia_crypt_ecb_wrap
4011ba5c l     F .text	00000019 camellia_crypt_cbc_wrap
4011ba78 l     F .text	0000001f camellia_crypt_cfb128_wrap
4011ba98 l     F .text	0000001f camellia_crypt_ctr_wrap
4011bab8 l     F .text	00000013 camellia_setkey_enc_wrap
4011bacc l     F .text	00000013 camellia_setkey_dec_wrap
4011bae0 l     F .text	0000001d camellia_ctx_alloc
4011bb00 l     F .text	00000015 camellia_ctx_free
4011bb18 l     F .text	00000015 gcm_camellia_setkey_wrap
4011bb30 l     F .text	00000015 ccm_camellia_setkey_wrap
4011bb48 l     F .text	00000013 aria_crypt_ecb_wrap
4011bb5c l     F .text	00000019 aria_crypt_cbc_wrap
4011bb78 l     F .text	0000001f aria_crypt_cfb128_wrap
4011bb98 l     F .text	0000001f aria_crypt_ctr_wrap
4011bbb8 l     F .text	00000013 aria_setkey_enc_wrap
4011bbcc l     F .text	00000013 aria_setkey_dec_wrap
4011bbe0 l     F .text	0000001d aria_ctx_alloc
4011bc00 l     F .text	00000015 aria_ctx_free
4011bc18 l     F .text	00000015 gcm_aria_setkey_wrap
4011bc30 l     F .text	00000015 ccm_aria_setkey_wrap
4011bc48 l     F .text	00000013 des_crypt_ecb_wrap
4011bc5c l     F .text	00000019 des_crypt_cbc_wrap
4011bc78 l     F .text	00000011 des_setkey_enc_wrap
4011bc8c l     F .text	00000011 des_setkey_dec_wrap
4011bca0 l     F .text	0000001d des_ctx_alloc
4011bcc0 l     F .text	00000015 des_ctx_free
4011bcd8 l     F .text	00000013 des3_crypt_ecb_wrap
4011bcec l     F .text	00000019 des3_crypt_cbc_wrap
4011bd08 l     F .text	00000011 des3_set2key_enc_wrap
4011bd1c l     F .text	00000011 des3_set2key_dec_wrap
4011bd30 l     F .text	0000001d des3_ctx_alloc
4011bd50 l     F .text	00000015 des3_ctx_free
4011bd68 l     F .text	00000011 des3_set3key_enc_wrap
4011bd7c l     F .text	00000011 des3_set3key_dec_wrap
4011bd90 l     F .text	0000001e chacha20_stream_wrap
4011bdb0 l     F .text	0000001a chacha20_setkey_wrap
4011bdcc l     F .text	0000001d chacha20_ctx_alloc
4011bdec l     F .text	00000015 chacha20_ctx_free
4011be04 l     F .text	0000001a chachapoly_setkey_wrap
4011be20 l     F .text	0000001d chachapoly_ctx_alloc
4011be40 l     F .text	00000015 chachapoly_ctx_free
4011be58 l     F .text	00000017 kw_aes_setkey_wrap
4011be70 l     F .text	00000017 kw_aes_setkey_unwrap
4011be88 l     F .text	0000001c kw_ctx_alloc
4011bea4 l     F .text	00000015 kw_ctx_free
3f41b4b4 l     O .rodata	00000020 aes_128_ecb_info
3f41c18c l     O .rodata	00000030 aes_info
3f41b4d4 l     O .rodata	00000020 aes_192_ecb_info
3f41b4f4 l     O .rodata	00000020 aes_256_ecb_info
3f41b514 l     O .rodata	00000020 aes_128_cbc_info
3f41b534 l     O .rodata	00000020 aes_192_cbc_info
3f41b554 l     O .rodata	00000020 aes_256_cbc_info
3f41b574 l     O .rodata	00000020 aes_128_cfb128_info
3f41b594 l     O .rodata	00000020 aes_192_cfb128_info
3f41b5b4 l     O .rodata	00000020 aes_256_cfb128_info
3f41b5d4 l     O .rodata	00000020 aes_128_ofb_info
3f41b5f4 l     O .rodata	00000020 aes_192_ofb_info
3f41b614 l     O .rodata	00000020 aes_256_ofb_info
3f41b634 l     O .rodata	00000020 aes_128_ctr_info
3f41b654 l     O .rodata	00000020 aes_192_ctr_info
3f41b674 l     O .rodata	00000020 aes_256_ctr_info
3f41b694 l     O .rodata	00000020 aes_128_xts_info
3f41c1bc l     O .rodata	00000030 xts_aes_info
3f41b6b4 l     O .rodata	00000020 aes_256_xts_info
3f41b6d4 l     O .rodata	00000020 aes_128_gcm_info
3f41c1ec l     O .rodata	00000030 gcm_aes_info
3f41b6f4 l     O .rodata	00000020 aes_192_gcm_info
3f41b714 l     O .rodata	00000020 aes_256_gcm_info
3f41b734 l     O .rodata	00000020 aes_128_ccm_info
3f41c21c l     O .rodata	00000030 ccm_aes_info
3f41b754 l     O .rodata	00000020 aes_192_ccm_info
3f41b774 l     O .rodata	00000020 aes_256_ccm_info
3f41b794 l     O .rodata	00000020 aes_128_ccm_star_no_tag_info
3f41b7b4 l     O .rodata	00000020 aes_192_ccm_star_no_tag_info
3f41b7d4 l     O .rodata	00000020 aes_256_ccm_star_no_tag_info
3f41b7f4 l     O .rodata	00000020 camellia_128_ecb_info
3f41c24c l     O .rodata	00000030 camellia_info
3f41b814 l     O .rodata	00000020 camellia_192_ecb_info
3f41b834 l     O .rodata	00000020 camellia_256_ecb_info
3f41b854 l     O .rodata	00000020 camellia_128_cbc_info
3f41b874 l     O .rodata	00000020 camellia_192_cbc_info
3f41b894 l     O .rodata	00000020 camellia_256_cbc_info
3f41b8b4 l     O .rodata	00000020 camellia_128_cfb128_info
3f41b8d4 l     O .rodata	00000020 camellia_192_cfb128_info
3f41b8f4 l     O .rodata	00000020 camellia_256_cfb128_info
3f41b914 l     O .rodata	00000020 camellia_128_ctr_info
3f41b934 l     O .rodata	00000020 camellia_192_ctr_info
3f41b954 l     O .rodata	00000020 camellia_256_ctr_info
3f41b974 l     O .rodata	00000020 camellia_128_gcm_info
3f41c27c l     O .rodata	00000030 gcm_camellia_info
3f41b994 l     O .rodata	00000020 camellia_192_gcm_info
3f41b9b4 l     O .rodata	00000020 camellia_256_gcm_info
3f41b9d4 l     O .rodata	00000020 camellia_128_ccm_info
3f41c2ac l     O .rodata	00000030 ccm_camellia_info
3f41b9f4 l     O .rodata	00000020 camellia_192_ccm_info
3f41ba14 l     O .rodata	00000020 camellia_256_ccm_info
3f41ba34 l     O .rodata	00000020 camellia_128_ccm_star_no_tag_info
3f41ba54 l     O .rodata	00000020 camellia_192_ccm_star_no_tag_info
3f41ba74 l     O .rodata	00000020 camellia_256_ccm_star_no_tag_info
3f41ba94 l     O .rodata	00000020 aria_128_ecb_info
3f41c2dc l     O .rodata	00000030 aria_info
3f41bab4 l     O .rodata	00000020 aria_192_ecb_info
3f41bad4 l     O .rodata	00000020 aria_256_ecb_info
3f41baf4 l     O .rodata	00000020 aria_128_cbc_info
3f41bb14 l     O .rodata	00000020 aria_192_cbc_info
3f41bb34 l     O .rodata	00000020 aria_256_cbc_info
3f41bb54 l     O .rodata	00000020 aria_128_cfb128_info
3f41bb74 l     O .rodata	00000020 aria_192_cfb128_info
3f41bb94 l     O .rodata	00000020 aria_256_cfb128_info
3f41bbb4 l     O .rodata	00000020 aria_128_ctr_info
3f41bbd4 l     O .rodata	00000020 aria_192_ctr_info
3f41bbf4 l     O .rodata	00000020 aria_256_ctr_info
3f41bc14 l     O .rodata	00000020 aria_128_gcm_info
3f41c30c l     O .rodata	00000030 gcm_aria_info
3f41bc34 l     O .rodata	00000020 aria_192_gcm_info
3f41bc54 l     O .rodata	00000020 aria_256_gcm_info
3f41bc74 l     O .rodata	00000020 aria_128_ccm_info
3f41c33c l     O .rodata	00000030 ccm_aria_info
3f41bc94 l     O .rodata	00000020 aria_192_ccm_info
3f41bcb4 l     O .rodata	00000020 aria_256_ccm_info
3f41bcd4 l     O .rodata	00000020 aria_128_ccm_star_no_tag_info
3f41bcf4 l     O .rodata	00000020 aria_192_ccm_star_no_tag_info
3f41bd14 l     O .rodata	00000020 aria_256_ccm_star_no_tag_info
3f41bd34 l     O .rodata	00000020 des_ecb_info
3f41c36c l     O .rodata	00000030 des_info
3f41bd54 l     O .rodata	00000020 des_ede_ecb_info
3f41c39c l     O .rodata	00000030 des_ede_info
3f41bd74 l     O .rodata	00000020 des_ede3_ecb_info
3f41c3cc l     O .rodata	00000030 des_ede3_info
3f41bd94 l     O .rodata	00000020 des_cbc_info
3f41bdb4 l     O .rodata	00000020 des_ede_cbc_info
3f41bdd4 l     O .rodata	00000020 des_ede3_cbc_info
3f41bdf4 l     O .rodata	00000020 chacha20_info
3f41c3fc l     O .rodata	00000030 chacha20_base_info
3f41be14 l     O .rodata	00000020 chachapoly_info
3f41c42c l     O .rodata	00000030 chachapoly_base_info
3f41be34 l     O .rodata	00000020 aes_128_nist_kw_info
3f41c45c l     O .rodata	00000030 kw_aes_info
3f41be54 l     O .rodata	00000020 aes_192_nist_kw_info
3f41be74 l     O .rodata	00000020 aes_256_nist_kw_info
3f41be94 l     O .rodata	00000020 aes_128_nist_kwp_info
3f41beb4 l     O .rodata	00000020 aes_192_nist_kwp_info
3f41bed4 l     O .rodata	00000020 aes_256_nist_kwp_info
00000000 l    df *ABS*	00000000 des.c
3f41c48c l     O .rodata	00000080 odd_parity_table
3f41c50c l     O .rodata	00000040 LHs
3f41c54c l     O .rodata	00000040 RHs
4011c940 l     F .text	0000006b des3_set2key
4011c9f4 l     F .text	0000006c des3_set3key
3f41c58c l     O .rodata	00000100 SB8
3f41c68c l     O .rodata	00000100 SB6
3f41c78c l     O .rodata	00000100 SB4
3f41c88c l     O .rodata	00000100 SB2
3f41c98c l     O .rodata	00000100 SB7
3f41ca8c l     O .rodata	00000100 SB5
3f41cb8c l     O .rodata	00000100 SB3
3f41cc8c l     O .rodata	00000100 SB1
00000000 l    df *ABS*	00000000 gcm.c
4012233c l     F .text	000001fe gcm_mult
3f424df8 l     O .rodata	00000080 last4
4018a748 l     F .text	0000003a gcm_incr
40122cf0 l     F .text	000000af gcm_mask
00000000 l    df *ABS*	00000000 nist_kw.c
40124a9c l     F .text	0000023f unwrap
3f424ff8 l     O .rodata	00000004 NIST_KW_ICV2
3f424ff0 l     O .rodata	00000008 NIST_KW_ICV1
00000000 l    df *ABS*	00000000 pem.c
401257a8 l     F .text	00000093 pem_get_iv
401258fc l     F .text	00000063 pem_aes_decrypt
4012589c l     F .text	00000060 pem_des_decrypt
4012583c l     F .text	00000060 pem_des3_decrypt
40125988 l     F .text	00000119 pem_pbkdf1
00000000 l    df *ABS*	00000000 pk_wrap.c
4012607c l     F .text	00000010 rsa_get_bitlen
4018a824 l     F .text	00000022 rsa_can_do
4012608c l     F .text	0000003a rsa_verify_wrap
401260c8 l     F .text	0000003e rsa_sign_wrap
40126108 l     F .text	00000035 rsa_decrypt_wrap
40126140 l     F .text	00000033 rsa_encrypt_wrap
40126174 l     F .text	00000011 rsa_check_pair_wrap
40126188 l     F .text	0000001d rsa_alloc_wrap
401261a8 l     F .text	00000015 rsa_free_wrap
401261c0 l     F .text	0000001e rsa_debug
4018a848 l     F .text	00000008 eckey_get_bitlen
4018a850 l     F .text	00000021 eckey_can_do
401261e0 l     F .text	00000020 ecdsa_verify_wrap
40126200 l     F .text	0000002e ecdsa_sign_wrap
40126230 l     F .text	00000015 eckey_check_pair
40126248 l     F .text	0000001d eckey_alloc_wrap
40126268 l     F .text	00000015 eckey_free_wrap
40126280 l     F .text	00000015 eckey_debug
4018a874 l     F .text	00000015 eckeydh_can_do
4018a88c l     F .text	00000010 ecdsa_can_do
00000000 l    df *ABS*	00000000 psa_util.c
00000000 l    df *ABS*	00000000 ripemd160.c
3f425c8c l     O .rodata	00000040 ripemd160_padding
00000000 l    df *ABS*	00000000 sha256.c
3f425ccc l     O .rodata	00000100 K
00000000 l    df *ABS*	00000000 sha512.c
3f425dd0 l     O .rodata	00000280 K
00000000 l    df *ABS*	00000000 ssl_debug_helpers_generated.c
00000000 l    df *ABS*	00000000 aes.c
3f426fec l     O .rodata	00000028 RCON
3f427014 l     O .rodata	00000100 FSb
3f427114 l     O .rodata	00000400 RT0
3f427514 l     O .rodata	00000400 RT1
3f427914 l     O .rodata	00000400 RT2
3f427d14 l     O .rodata	00000400 RT3
3f428114 l     O .rodata	00000400 FT0
3f428514 l     O .rodata	00000400 FT1
3f428914 l     O .rodata	00000400 FT2
3f428d14 l     O .rodata	00000400 FT3
3f429114 l     O .rodata	00000100 RSb
00000000 l    df *ABS*	00000000 aria.c
40139c90 l     F .text	00000245 aria_fo_xor
3f429514 l     O .rodata	00000100 aria_is2
3f429414 l     O .rodata	00000100 aria_is1
3f429214 l     O .rodata	00000100 aria_sb1
3f429314 l     O .rodata	00000100 aria_sb2
00000000 l    df *ABS*	00000000 crypto_ops.c
4016f8c0 l     F .text	00000014 esp_supp_crc32
4016f8d4 l     F .text	0000001d esp_aes_gmac
4016f8f4 l     F .text	0000000e esp_aes_decrypt
4016f904 l     F .text	0000000e esp_aes_encrypt
4016f914 l     F .text	00000014 esp_aes_unwrap
4016f928 l     F .text	00000014 esp_aes_wrap
00000000 l    df *ABS*	00000000 sha256-prf.c
3f42b088 l     O .rodata	00000004 memset_func
00000000 l    df *ABS*	00000000 sha1-prf.c
3f42b08c l     O .rodata	00000004 memset_func
00000000 l    df *ABS*	00000000 common.c
3f42b090 l     O .rodata	00000004 memset_func
4016fad0 l     F .text	00000016 forced_memzero
4018b678 l     F .text	0000002c hex2num
00000000 l    df *ABS*	00000000 esp_hostap.c
3f42b094 l     O .rodata	00000004 memset_func
00000000 l    df *ABS*	00000000 tlsv1_client_write.c
40172bac l     F .text	0000004c tls_write_client_change_cipher_spec
40172bf8 l     F .text	0000011b tls_write_client_finished
00000000 l    df *ABS*	00000000 tlsv1_common.c
3f42b1d8 l     O .rodata	00000160 tls_cipher_suites
3f42b0e8 l     O .rodata	000000f0 tls_ciphers
00000000 l    df *ABS*	00000000 aes-internal.c
00000000 l    df *ABS*	00000000 des-internal.c
401779dc l     F .text	0000002b WPA_GET_BE32
4018bac8 l     F .text	0000001a WPA_PUT_BE32
3f42bd44 l     O .rodata	00000100 SP7
3f42bc44 l     O .rodata	00000100 SP8
3f42bf44 l     O .rodata	00000100 SP5
3f42c144 l     O .rodata	00000100 SP3
3f42c344 l     O .rodata	00000100 SP1
3f42be44 l     O .rodata	00000100 SP6
3f42c044 l     O .rodata	00000100 SP4
3f42c244 l     O .rodata	00000100 SP2
40177a08 l     F .text	000001de desfunc
3f42c484 l     O .rodata	00000038 pc1
3f42c51c l     O .rodata	00000020 bytebit
3f42c474 l     O .rodata	00000010 totrot
3f42c444 l     O .rodata	00000030 pc2
3f42c4bc l     O .rodata	00000060 bigbyte
40177be8 l     F .text	00000193 deskey
3f42c53c l     O .rodata	00000004 memset_func
00000000 l    df *ABS*	00000000 sha1-internal.c
3f42c544 l     O .rodata	00000004 memset_func
00000000 l    df *ABS*	00000000 sha1.c
3f42c548 l     O .rodata	00000004 memset_func
00000000 l    df *ABS*	00000000 sha256-internal.c
3f42c54c l     O .rodata	00000100 K
40179d30 l     F .text	0000014f sha256_compress
00000000 l    df *ABS*	00000000 sha512-internal.c
3f42c650 l     O .rodata	00000280 K
4017a24c l     F .text	00000340 sha512_compress
00000000 l    df *ABS*	00000000 wpa_common.c
4017cd14 l     F .text	0000002b WPA_GET_BE32
4017cd40 l     F .text	0000006d rsn_selector_to_bitfield
4017cdb0 l     F .text	00000044 wpa_selector_to_bitfield
00000000 l    df *ABS*	00000000 sha1-tlsprf.c
3f42c8dc l     O .rodata	00000004 memset_func
4017da6c l     F .text	00000016 forced_memzero
00000000 l    df *ABS*	00000000 eap_peap.c
4018bee8 l     F .text	00000014 eap_peap_isKeyAvailable
4017ec7c l     F .text	00000035 eap_peap_get_session_id
4017ecb4 l     F .text	00000018 eap_peap_free_key
4017eccc l     F .text	00000060 eap_peap_init_for_reauth
4017ed2c l     F .text	0000001e eap_peap_deinit_for_reauth
4017ed4c l     F .text	00000026 eap_peap_has_reauth_data
4017ed74 l     F .text	00000032 eap_peap_get_status
4017eda8 l     F .text	0000002c eap_peap_get_emsk
4017edd4 l     F .text	00000067 eap_peap_getKey
4017ee3c l     F .text	00000012 wpabuf_put_u8
4017ee50 l     F .text	00000018 wpabuf_put_be16
4017ee68 l     F .text	0000003d peap_phase2_sufficient
4017eea8 l     F .text	00000050 eap_peap_deinit
4017eef8 l     F .text	0000001c wpabuf_put_data
4017ef14 l     F .text	0000014d eap_peap_init
4017f064 l     F .text	0000086a eap_peap_decrypt$constprop$0
4017f8d0 l     F .text	000001ce eap_peap_process
00000000 l    df *ABS*	00000000 base64.c
40185704 l     F .text	000000ef base64_gen_decode
3f42c8e2 l     O .rodata	00000041 base64_table
00000000 l    df *ABS*	00000000 ms_funcs.c
4018c294 l     F .text	0000009d utf8_to_ucs2$constprop$0
3f42ca94 l     O .rodata	00000027 magic1$6
3f42ca6b l     O .rodata	00000029 magic2$5
3f42ca50 l     O .rodata	0000001b magic1$4
3f42c9d4 l     O .rodata	00000054 magic3$2
3f42c980 l     O .rodata	00000054 magic2$1
3f42ca28 l     O .rodata	00000028 shs_pad1$3
3f42c958 l     O .rodata	00000028 shs_pad2$0
00000000 l    df *ABS*	00000000 md4-internal.c
40187cdc l     F .text	00000456 MD4Transform
40188134 l     F .text	0000007f MD4Update
3f42cabb l     O .rodata	00000040 PADDING
00000000 l    df *ABS*	00000000 sha1-tprf.c
3f42cafc l     O .rodata	00000004 memset_func
00000000 l    df *ABS*	00000000 printf.c
4018c34c l     F .text	00000010 _out_buffer
4018c35c l     F .text	00000005 _out_null
4018c364 l     F .text	00000081 _out_rev
40188b1c l     F .text	000000fa _ntoa_format
40188c18 l     F .text	0000008d _ntoa_long
40188ca8 l     F .text	000000d0 _ntoa_long_long
40188d78 l     F .text	000003b5 _etoa
40189130 l     F .text	0000032b _ftoa
3f42cb00 l     O .rodata	00000050 pow10$0
4018945c l     F .text	00000010 _out_char
4018946c l     F .text	0000073b _vsnprintf
00000000 l    df *ABS*	00000000 ssl_msg.c
4010037c l     F .text	0000023a ssl_parse_record_header
40189f64 l     F .text	000000cc mbedtls_ssl_dtls_record_replay_check
401012c4 l     F .text	0000012f ssl_extract_add_data_from_record
401013f4 l     F .text	0000007d ssl_build_record_nonce
401017c0 l     F .text	0000006c ssl_double_retransmit_timeout
40101c84 l     F .text	000000a8 ssl_swap_epochs
40101d2c l     F .text	000000ac ssl_get_remaining_payload_in_datagram
401044fc l     F .text	0000032c ssl_handle_possible_reconnect
4010426c l     F .text	000001d9 ssl_buffer_make_space
40104448 l     F .text	000000b4 ssl_bitmask_set
4018a030 l     F .text	00000054 ssl_bitmask_check
40103fb8 l     F .text	00000080 ssl_check_ctr_renegotiate
00000000 l    df *ABS*	00000000 bignum.c
40118f28 l     F .text	000000ea add_sub_mpi
401189f4 l     F .text	000000c0 mbedtls_mpi_resize_clear
40119f44 l     F .text	00000023 mpi_montmul
40119f68 l     F .text	00000026 mpi_montred
40119f90 l     F .text	0000003f mpi_select
00000000 l    df *ABS*	00000000 bignum_core.c
00000000 l    df *ABS*	00000000 constant_time.c
00000000 l    df *ABS*	00000000 ctr_drbg.c
00000000 l    df *ABS*	00000000 dhm.c
4011d8cc l     F .text	000000d7 dhm_make_common
00000000 l    df *ABS*	00000000 ecdh.c
00000000 l    df *ABS*	00000000 md5.c
00000000 l    df *ABS*	00000000 pkparse.c
401264e4 l     F .text	0000042a pk_use_ecparams
40126910 l     F .text	0000002a pk_get_ecpubkey
401263f4 l     F .text	000000ef pk_get_rsapubkey
40127184 l     F .text	000000ff pk_parse_key_pkcs8_encrypted_der
40126ff8 l     F .text	0000018c pk_parse_key_pkcs8_unencrypted_der
40126ca8 l     F .text	000001de pk_parse_key_pkcs1_der
40126e88 l     F .text	0000016d pk_parse_key_sec1_der
40127410 l     F .text	0000002a asn1_get_nonzero_mpi
4012743c l     F .text	0000004e pk_get_ecparams
00000000 l    df *ABS*	00000000 pkwrite.c
401275e0 l     F .text	0000002a pk_write_ec_param
40127938 l     F .text	0000003d pk_write_ec_private
00000000 l    df *ABS*	00000000 psa_crypto_client.c
00000000 l    df *ABS*	00000000 psa_crypto_driver_wrappers.c
00000000 l    df *ABS*	00000000 psa_crypto_rsa.c
00000000 l    df *ABS*	00000000 psa_crypto_slot_management.c
3ffcdd18 l     O .bss	00000504 global_data
00000000 l    df *ABS*	00000000 rsa.c
4012df1c l     F .text	000000a8 rsa_check_context
4012e628 l     F .text	00000137 rsa_prepare_blinding
4012e88c l     F .text	0000010e mgf_mask
4012e868 l     F .text	00000023 compute_hash
4012ec8c l     F .text	0000015f rsa_rsassa_pss_sign
4012f1e4 l     F .text	00000094 hash_mprime
4012eef4 l     F .text	0000011c rsa_rsassa_pkcs1_v15_encode
00000000 l    df *ABS*	00000000 rsa_alt_helpers.c
00000000 l    df *ABS*	00000000 sha1.c
00000000 l    df *ABS*	00000000 debug.c
3ffce21c l     O .bss	00000004 debug_threshold
00000000 l    df *ABS*	00000000 ssl_client.c
40135c9c l     F .text	000000b1 ssl_write_hostname_ext
40135d50 l     F .text	000000ee ssl_write_alpn_ext
40135e40 l     F .text	000001e7 ssl_write_supported_groups_ext
00000000 l    df *ABS*	00000000 asn1write.c
00000000 l    df *ABS*	00000000 base64.c
00000000 l    df *ABS*	00000000 ccm.c
4013c5c0 l     F .text	000000aa ccm_calculate_first_block_if_ready
4013cbb4 l     F .text	00000101 ccm_auth_crypt
00000000 l    df *ABS*	00000000 chacha20.c
4013d010 l     F .text	00000566 chacha20_block
00000000 l    df *ABS*	00000000 chachapoly.c
4013d75c l     F .text	000000ec chachapoly_crypt_and_tag
00000000 l    df *ABS*	00000000 cmac.c
4013dc08 l     F .text	000000cf cmac_generate_subkeys
00000000 l    df *ABS*	00000000 ecdsa.c
4013def0 l     F .text	0000005e derive_mpi
00000000 l    df *ABS*	00000000 hmac_drbg.c
00000000 l    df *ABS*	00000000 pkcs12.c
00000000 l    df *ABS*	00000000 pkcs5.c
4013efcc l     F .text	000001a9 pkcs5_pbkdf2_hmac
00000000 l    df *ABS*	00000000 poly1305.c
4018aa28 l     F .text	000003e1 poly1305_process
00000000 l    df *ABS*	00000000 psa_crypto_cipher.c
00000000 l    df *ABS*	00000000 compiler_builtins.9934aacee1796de6-cgu.0
00000000 l    df *ABS*	00000000 phy.c
00000000 l    df *ABS*	00000000 bt_bb.c
00000000 l    df *ABS*	00000000 rtc_analog.c
00000000 l    df *ABS*	00000000 esp_wpa_main.c
40170ab4 l     F .text	00000081 hostap_sta_join
40170b38 l     F .text	00000053 wpa_sta_disconnected_cb
40170b8c l     F .text	0000000a wpa_sta_connected_cb
00000000 l    df *ABS*	00000000 esp_wpas_glue.c
00000000 l    df *ABS*	00000000 esp_common.c
40170f5c l     F .text	0000001f ieee80211_handle_rx_frm
00000000 l    df *ABS*	00000000 esp_wps.c
3ffceb18 l     O .bss	00000004 s_wps_sm_cb
00000000 l    df *ABS*	00000000 tls_internal.c
3ffceb20 l     O .bss	00000004 tls_ref_count
00000000 l    df *ABS*	00000000 tlsv1_client.c
00000000 l    df *ABS*	00000000 tlsv1_client_read.c
4018b828 l     F .text	0000001a WPA_GET_BE24
40171f08 l     F .text	00000057 tls_process_server_hello_done
40171f60 l     F .text	00000067 tls_process_certificate_request
40171fc8 l     F .text	00000031 tls_process_certificate_status_ocsp_response
40171ffc l     F .text	00000361 tls_process_server_key_exchange
40172360 l     F .text	00000344 tls_process_certificate
00000000 l    df *ABS*	00000000 tlsv1_cred.c
40173990 l     F .text	0000004b tlsv1_add_cert_der
401739dc l     F .text	00000034 search_tag
40173a10 l     F .text	00000075 tlsv1_add_cert
00000000 l    df *ABS*	00000000 tlsv1_record.c
00000000 l    df *ABS*	00000000 tlsv1_client_ocsp.c
4018b858 l     F .text	00000018 asn1_is_sequence
40174088 l     F .text	00000049 ocsp_responder_id_match
401740d4 l     F .text	0000009d ocsp_hash_data
00000000 l    df *ABS*	00000000 x509v3.c
4018b870 l     F .text	00000018 asn1_is_sequence
4018b888 l     F .text	0000005e x509_str_strip_whitespace
40174a74 l     F .text	00000044 x509_id_wfa_tod_oid
4018b8e8 l     F .text	0000003a x509_id_kp_oid
40174ab8 l     F .text	0000002b x509_rsadsi_oid
4018b924 l     F .text	00000042 x509_sha2_oid
40174ae4 l     F .text	00000034 parse_uint2
40174b18 l     F .text	00000159 x509_parse_ext_alt_name
40174c74 l     F .text	00000079 x509_str_compare
40174cf0 l     F .text	000000c0 x509_name_string$part$0
4018b968 l     F .text	0000002c x509_valid_issuer
00000000 l    df *ABS*	00000000 aes-cbc.c
00000000 l    df *ABS*	00000000 aes-internal-dec.c
00000000 l    df *ABS*	00000000 aes-internal-enc.c
00000000 l    df *ABS*	00000000 aes-omac1.c
4018ba74 l     F .text	00000039 gf_mulx
00000000 l    df *ABS*	00000000 aes-unwrap.c
00000000 l    df *ABS*	00000000 aes-wrap.c
00000000 l    df *ABS*	00000000 crypto_internal-cipher.c
00000000 l    df *ABS*	00000000 crypto_internal-modexp.c
00000000 l    df *ABS*	00000000 crypto_internal-rsa.c
00000000 l    df *ABS*	00000000 crypto_internal.c
00000000 l    df *ABS*	00000000 md5-internal.c
40177f38 l     F .text	00000702 MD5Transform
00000000 l    df *ABS*	00000000 md5.c
00000000 l    df *ABS*	00000000 sha1-pbkdf2.c
00000000 l    df *ABS*	00000000 sha256.c
00000000 l    df *ABS*	00000000 sha384-internal.c
00000000 l    df *ABS*	00000000 os_xtensa.c
00000000 l    df *ABS*	00000000 eloop.c
4017ab34 l     F .text	0000000a eloop_run_wrapper
4017a828 l     F .text	0000001a eloop_run_timer
3ffceb44 l     O .bss	00000004 eloop_data_lock
3ffceb24 l     O .bss	00000020 eloop
4017a844 l     F .text	00000055 eloop_remove_timeout
4017a89c l     F .text	00000013 os_timer_disarm$constprop$0
00000000 l    df *ABS*	00000000 ap_config.c
00000000 l    df *ABS*	00000000 wpa_auth.c
4018bae4 l     F .text	00000005 wpa_auth_pmksa_free_cb
3ffceb4c l     O .bss	00000040 s_sm_table
3ffceb48 l     O .bss	00000004 s_sm_valid_bitmap
4017ac44 l     F .text	0000005e wpa_free_sta_sm
4017aca4 l     F .text	00000066 wpa_group_init_gmk_and_counter
4017ad0c l     F .text	00000045 wpa_gmk_to_gtk
4017ad54 l     F .text	00000026 wpa_replay_counter_valid
4017ad7c l     F .text	00000025 wpa_replay_counter_mark_invalid
4017ada4 l     F .text	00000080 wpa_verify_key_mic
4017ae24 l     F .text	0000006f ieee80211w_kde_add
4017aeb0 l     F .text	00000046 wpa_auth_set_key$part$0
4017aef8 l     F .text	0000002b sm_WPA_PTK_DISCONNECT_Enter$constprop$0
4017af24 l     F .text	00000077 wpa_gtk_update$isra$0
4017af9c l     F .text	00000036 wpa_group_gtk_init
4017afd4 l     F .text	0000001c wpa_auth_get_psk$isra$0
4017aff0 l     F .text	00000142 sm_WPA_PTK_PTKCALCNEGOTIATING_Enter$constprop$0
4017b134 l     F .text	0000004e wpa_group_config_group_keys
4017b184 l     F .text	00000050 sm_WPA_PTK_AUTHENTICATION2_Enter$constprop$0
4017b1d4 l     F .text	00000073 wpa_group_sm_step$part$0
4017b248 l     F .text	00000046 wpa_rekey_gtk
4017b6f4 l     F .text	00000053 wpa_send_eapol
4017b748 l     F .text	000000a3 sm_WPA_PTK_PTKSTART_Enter$constprop$0
4017b7ec l     F .text	00000146 sm_WPA_PTK_PTKINITNEGOTIATING_Enter$constprop$0
4017b934 l     F .text	000000e7 sm_WPA_PTK_GROUP_REKEYNEGOTIATING_Enter$constprop$0
4017be70 l     F .text	00000019 wpa_rekey_ptk
4017ba54 l     F .text	0000004a sm_WPA_PTK_INITIALIZE_Enter$constprop$0
4017baa0 l     F .text	000003ce wpa_sm_step
00000000 l    df *ABS*	00000000 wpa_auth_ie.c
4017c3fc l     F .text	0000002b WPA_GET_BE32
00000000 l    df *ABS*	00000000 pmksa_cache_auth.c
4017ca8c l     F .text	00000027 _pmksa_cache_free_entry
4017cb54 l     F .text	00000030 pmksa_cache_expire
4017cab4 l     F .text	00000038 pmksa_cache_set_expiration
00000000 l    df *ABS*	00000000 sta_info.c
00000000 l    df *ABS*	00000000 ccmp.c
4017d43c l     F .text	0000011f ccmp_aad_nonce
00000000 l    df *ABS*	00000000 aes-gcm.c
4017d6d0 l     F .text	0000002b WPA_GET_BE32
4018bd10 l     F .text	00000031 WPA_PUT_BE64
4017d6fc l     F .text	00000021 inc32
4018bd44 l     F .text	00000029 xor_block
4017d720 l     F .text	00000027 aes_gcm_init_hash_subkey
4017d748 l     F .text	0000006e aes_gctr$part$0
4017d7b8 l     F .text	0000008c shift_right_block
4017d844 l     F .text	0000005a gf_mult
4017d8a0 l     F .text	0000007c ghash
4017d91c l     F .text	00000046 aes_gcm_ghash
4017d964 l     F .text	0000006f aes_gcm_prepare_j0
00000000 l    df *ABS*	00000000 sha256-tlsprf.c
00000000 l    df *ABS*	00000000 eap.c
3ffceb90 l     O .bss	00000004 eap_methods
3ffceb8c l     O .bss	00000004 config_methods
00000000 l    df *ABS*	00000000 eap_common.c
00000000 l    df *ABS*	00000000 eap_mschapv2.c
4018becc l     F .text	00000019 eap_mschapv2_isKeyAvailable
4017e54c l     F .text	0000003f eap_mschapv2_getKey
4017e58c l     F .text	00000022 eap_mschapv2_deinit
4017e5b0 l     F .text	00000051 eap_mschapv2_init
4017e604 l     F .text	0000063b eap_mschapv2_process
00000000 l    df *ABS*	00000000 eap_peap_common.c
00000000 l    df *ABS*	00000000 eap_tls.c
4018befc l     F .text	0000000e eap_tls_isKeyAvailable
4017fba8 l     F .text	0000002b eap_tls_getKey
4017fbd4 l     F .text	000001a7 eap_tls_process
4017fd7c l     F .text	00000034 eap_tls_deinit
4017fdb0 l     F .text	0000004c eap_tls_init
00000000 l    df *ABS*	00000000 eap_tls_common.c
4017fe38 l     F .text	00000020 eap_tls_check_blob
4017fe58 l     F .text	00000022 eap_tls_msg_alloc$constprop$0
4018026c l     F .text	0000007c eap_peer_tls_data_reassemble
40180310 l     F .text	000000e5 eap_tls_process_output
00000000 l    df *ABS*	00000000 eap_ttls.c
4018bf0c l     F .text	00000014 eap_ttls_isKeyAvailable
401806c0 l     F .text	0000002b eap_ttls_get_emsk
401806ec l     F .text	00000035 eap_ttls_get_session_id
40180724 l     F .text	00000035 eap_ttls_getKey
4018075c l     F .text	00000017 eap_ttls_free_key
40180774 l     F .text	00000054 eap_ttls_init_for_reauth
401807c8 l     F .text	0000001b eap_ttls_deinit_for_reauth
401807e4 l     F .text	0000001e eap_ttls_has_reauth_data
40180804 l     F .text	00000086 eap_ttls_get_status
4018088c l     F .text	0000002e eap_ttls_encrypt_response
401808bc l     F .text	000000db eap_ttls_phase2_request_eap_method
40180998 l     F .text	00000052 eap_ttls_deinit
401809ec l     F .text	000000b9 eap_ttls_init
40180aa8 l     F .text	0000005c eap_ttls_avp_add$constprop$0
40180b04 l     F .text	0000057f eap_ttls_phase2_request
40181084 l     F .text	00000094 eap_ttls_implicit_identity_request
40181118 l     F .text	00000379 eap_ttls_decrypt
40181494 l     F .text	000001f5 eap_ttls_process
00000000 l    df *ABS*	00000000 mschapv2.c
00000000 l    df *ABS*	00000000 eap_fast.c
4018bf48 l     F .text	0000000f eap_fast_isKeyAvailable
401817ec l     F .text	00000020 eap_fast_copy_buf
4018180c l     F .text	0000001e eap_fast_get_emsk
4018182c l     F .text	00000024 eap_fast_get_session_id
40181850 l     F .text	0000001f eap_fast_getKey
40181870 l     F .text	0000003c eap_fast_parse_hex
401818ac l     F .text	000000a9 eap_fast_read_line
40181958 l     F .text	0000012d eap_fast_write
40181a88 l     F .text	00000097 eap_fast_write_pac
40181b20 l     F .text	00000032 eap_fast_get_status
40181b54 l     F .text	00000053 eap_fast_tlv_result
40181ba8 l     F .text	00000051 eap_fast_session_ticket_cb
40181bfc l     F .text	00000021 eap_fast_encrypt_response
40181c58 l     F .text	0000007c eap_fast_deinit
401823b8 l     F .text	00000112 eap_fast_init
40182588 l     F .text	0000093b eap_fast_decrypt
40182ec4 l     F .text	00000390 eap_fast_process
00000000 l    df *ABS*	00000000 eap_fast_common.c
40183298 l     F .text	00000016 wpabuf_put_data$part$0
00000000 l    df *ABS*	00000000 pmksa_cache.c
401833cc l     F .text	0000001e pmksa_cache_free_entry
40183424 l     F .text	00000037 pmksa_cache_expire
401833ec l     F .text	00000036 pmksa_cache_set_expiration
00000000 l    df *ABS*	00000000 wpa.c
401837fc l     F .text	00000027 is_wpa2_enterprise_connection
40183824 l     F .text	00000060 wpa_sm_pmksa_free_cb
40183884 l     F .text	0000003a wpa_sm_set_seq$constprop$0
401838c0 l     F .text	0000006a ieee80211w_set_keys$constprop$0
401839d0 l     F .text	00000115 wpa_sm_key_request
40183ae8 l     F .text	0000000e wpa_sm_rekey_ptk
4018423c l     F .text	00000148 wpa_supplicant_install_gtk$constprop$0
40184384 l     F .text	00000082 wpa_supplicant_install_ptk$constprop$0
00000000 l    df *ABS*	00000000 wpa_ie.c
401852b0 l     F .text	0000002b WPA_GET_BE32
00000000 l    df *ABS*	00000000 wpabuf.c
4018580c l     F .text	0000001b wpabuf_put_data
00000000 l    df *ABS*	00000000 wpa_debug.c
401859a0 l     F .text	00000049 _wpa_snprintf_hex$constprop$0
00000000 l    df *ABS*	00000000 asn1.c
4018c150 l     F .text	0000001c rotate_bits
00000000 l    df *ABS*	00000000 bignum.c
4018c174 l     F .text	0000004a mp_cmp_mag
40185cb0 l     F .text	00000029 mp_cmp
40185cdc l     F .text	0000001e mp_zero
40185cfc l     F .text	00000049 mp_rshd
4018c1c0 l     F .text	00000025 mp_exch
4018c1e8 l     F .text	0000002a mp_clamp
4018c214 l     F .text	0000002a mp_count_bits
40185d48 l     F .text	0000001a mp_clear
40185d64 l     F .text	0000002e mp_init
40185d94 l     F .text	00000048 mp_init_size
40185ddc l     F .text	000000ef mp_sqr
40185ecc l     F .text	00000057 mp_grow
40185f24 l     F .text	00000068 mp_copy
40185f8c l     F .text	0000009a mp_mod_2d
40186028 l     F .text	000000da mp_div_2d
40186104 l     F .text	00000059 mp_lshd
40186160 l     F .text	000000c5 mp_mul_2d
40186228 l     F .text	000000cb s_mp_add
401862f4 l     F .text	000000b1 s_mp_sub
401863a8 l     F .text	00000041 mp_add
401863ec l     F .text	00000048 mp_sub
40186434 l     F .text	00000137 fast_s_mp_mul_digs
4018656c l     F .text	000000ce s_mp_mul_digs
4018663c l     F .text	0000002d mp_mul
4018666c l     F .text	00000094 mp_init_multi
40186700 l     F .text	0000004c mp_clear_multi
4018674c l     F .text	00000145 mp_div
40186894 l     F .text	00000048 mp_mod
401868dc l     F .text	00000341 s_mp_exptmod$constprop$0
40186c20 l     F .text	00000181 mp_reduce
00000000 l    df *ABS*	00000000 pkcs1.c
00000000 l    df *ABS*	00000000 pkcs8.c
00000000 l    df *ABS*	00000000 rsa.c
401872e8 l     F .text	00000040 crypto_rsa_parse_integer
00000000 l    df *ABS*	00000000 aes-ccm.c
4018c268 l     F .text	00000029 xor_aes_block
40187638 l     F .text	00000053 aes_ccm_auth
4018768c l     F .text	00000079 aes_ccm_encr$constprop$0
40187708 l     F .text	0000009f aes_ccm_auth_start$constprop$0
00000000 l    df *ABS*	00000000 chap.c
00000000 l    df *ABS*	00000000 pkcs5.c
4018c334 l     F .text	00000018 asn1_is_sequence
40188364 l     F .text	0000002b oid_is_rsadsi
40188390 l     F .text	0000002f pkcs5_is_oid
401883c0 l     F .text	0000018e pkcs12_key_gen
00000000 l    df *ABS*	00000000 rc4.c
00000000 l    df *ABS*	00000000 ieee802_11.c
40104828 g     F .text	00000039 mbedtls_ssl_session_free
4016a390 g     F .text	0000000f pp_register_michael_mic_failure_cb
3ff80000 g       *ABS*	00000000 _rtc_fast_persistent_start
4018a2fc g     F .text	0000003f mbedtls_mpi_core_sub
3ffce748 g     O .bss	00000002 phy_freq_offset
400e2530 g     F .text	00000024 main
40174174 g     F .text	000008fd tls_process_ocsp_response
40186dc8 g     F .text	00000017 bignum_deinit
4014d0d8 g     F .text	0000002f nan_parse_ndp_terminate
40167908 g     F .text	0000000a ic_get_G6M_sched
3ffb1d57 g     O .data	00000001 chan14_mic_most_power
40177ebc g     F .text	0000003a des3_encrypt
4015acac g     F .text	00000034 ieee80211w_get_igtk_from_keyidx
40084408 g     F .rwtext.wifi	000000b9 rcGetSched
4015f904 g     F .text	00000065 wep_encap
4015d6bc g     F .text	00000071 cnx_rc_update_rssi
40104bd8 g     F .text	00000012 mbedtls_ssl_init
40131a68 g     F .text	00000fec mbedtls_internal_sha256_process
4008a654 g     F .rwtext.wifi	00000024 bb_wdt_rst_enable
40171588 g     F .text	0000001e tls_connection_decrypt2
40123650 g     F .text	00000012 mbedtls_md5_free
40185964 g     F .text	0000003a wpabuf_concat
4014bd08 g     F .text	000000df nan_sched_construct_availability
40163798 g     F .text	00000265 phy_get_romfunc_addr
40124d20 g     F .text	000000b6 mbedtls_oid_get_x509_ext_type
40132a54 g     F .text	000000b3 mbedtls_sha256_update
3f429af0 g     O .rodata	00000006 ieee80211_ethbroadcast
4018bb14 g     F .text	0000005a wpa_res_to_status_code
400818dc g     F .rwtext	00000088 phy_exit_critical
4015062c g     F .text	00000040 wifi_set_default_ssid
3ff80000 g       *ABS*	00000000 _rtc_fast_data_start
4014be8c g     F .text	0000002f nan_dp_send_terminated_event
4016d97c g     F .text	00000038 mac_tx_set_duration
4016c120 g     F .text	00000046 rcAttach
4018b644 g     F .text	00000005 wDev_SetAuthed
00000007 g     O .espressif.metadata	00000005 build_info.CHIP_NAME
4011f7b8 g     F .text	00000078 mbedtls_ecp_check_privkey
4016dc18 g     F .text	0000002b hal_enable_mac
40107c14 g     F .text	00000101 mbedtls_ssl_get_key_exchange_md_tls1_2
4000ca84 g     F *ABS*	00000037 .hidden __divdi3
40140c74 g     F .text	00000037 ieee80211_user_ie_init
4012ab4c g     F .text	000000d5 mbedtls_psa_hash_setup
4018b6a4 g     F .text	0000001a inc_byte_array
40174e80 g     F .text	00000064 x509_name_compare
40169194 g     F .text	00000045 pm_is_in_wifi_slice_threshold
4000c988 g     F *ABS*	0000005a .hidden __floatdidf
40140e34 g     F .text	00000057 wifi_destroy_nan
4000c260 g     F *ABS*	00000044 .hidden memcmp
40089f60 g     F .rwtext.wifi	0000005d ram_pbus_force_test
4018a97c g     F .text	0000001a psa_unlock_key_slot
3ffd001c g     O .bss	00000008 s_tx_cacheq
40102878 g     F .text	000000a5 mbedtls_ssl_update_handshake_status
40125f68 g     F .text	00000014 mbedtls_pk_get_name
4014c31c g     F .text	000000ef nan_dp_post_tx
4015a214 g     F .text	0000000e esp_wifi_sta_get_group_cipher_internal
4018bd70 g     F .text	00000026 eap_allowed_method
40146498 g     F .text	00000034 ieee80211_add_ie_vendor_esp_head
40123604 g     F .text	00000035 mbedtls_md_hmac_reset
4011c18c g     F .text	00000162 mbedtls_ct_rsaes_pkcs1_v15_unpadding
40137e90 g     F .text	0000058d mbedtls_internal_aes_encrypt
401771e0 g     F .text	0000013b crypto_cipher_encrypt
40113ccc g     F .text	00000051 mbedtls_x509_get_serial
401284dc g     F .text	0000004b psa_mac_update
3ffb25cc g     O .data.wifi	00000004 g_mesh_init_ps_type
4008b7e0 g     F .rwtext.wifi	0000007f ram_set_txcap_reg
40137984 g     F .text	00000012 mbedtls_aes_xts_init
4008b3a8 g     F .rwtext.wifi	00000313 tx_pwctrl_cal
40171c54 g     F .text	00000142 tlsv1_client_get_cipher
40153578 g     F .text	000000e8 ieee80211_send_proberesp
401817a8 g     F .text	00000044 mschapv2_verify_auth_response
40184408 g     F .text	00000939 wpa_sm_rx_eapol
4016ebb0 g     F .text	0000001b hal_enable_nan_tsf
4015efd0 g     F .text	0000006f ieee80211_recv_action_register
4011c33c g     F .text	00000012 mbedtls_des_init
40170f1c g     F .text	00000018 wpa_sm_alloc_eapol
4011e1e8 g     F .text	00000060 mbedtls_ecp_keypair_init
3ffd17a0 g     O .bss	0000000c s_fix_rate
40125ed4 g     F .text	00000038 mbedtls_pk_decrypt
400eff30 g     F .text	00000000 level6_interrupt
4014994c g     F .text	000000b6 wifi_lmac_init
4011d6e8 g     F .text	0000000f mbedtls_dhm_get_bitlen
40137998 g     F .text	0000001c mbedtls_aes_xts_free
4017a58c g     F .text	00000060 sha512_init
4008985c g     F .rwtext.wifi	00000043 phy_en_hw_set_freq
4014a398 g     F .text	00000017 wifi_register_mgmt_frame
4015418c g     F .text	00000046 ieee80211_pwrsave_txcb
4017a794 g     F .text	00000040 sha512_vector
4011a80c g     F .text	000000aa mbedtls_mpi_core_read_be
4016c3b0 g     F .text	00000028 trc_deinit
4008bff8 g     F .rwtext.wifi	00000071 ieee80211_post_hmac_tx
401504a0 g     F .text	00000186 wifi_nvs_compare_cfg_diff
40085e0c g     F .rwtext.wifi	00000005 pm_hmac_rx_data_process
40081c84 g     F .rwtext.wifi	0000051d ieee80211_encap_esfbuf
3ffce764 g     O .bss	00000002 phy_tx_pwr_error
4016a6a0 g     F .text	0000002a ppClearRxFragment
4015f2ac g     F .text	00000094 ccmp_decap
4011d6d4 g     F .text	00000012 mbedtls_dhm_init
401050f4 g     F .text	0000008a mbedtls_ssl_session_reset_int
40123678 g     F .text	00000021 mbedtls_md5_starts
40086d8c g     F .rwtext.wifi	0000009b pm_on_beacon_rx
3ffb1936 g     O .data	0000000b g_def_2g_channels
3ffcea54 g     O .bss	00000001 g_wdev_last_desc_reset
40152e88  w    F .text	00000276 ieee80211_beacon_construct
40125100 g     F .text	0000003e mbedtls_oid_get_oid_by_ec_grp
4014070c g     F .text	0000011e esp_wifi_ipc_internal
4016a59c g     F .text	00000100 ppCalTkipMic
40125f0c g     F .text	00000038 mbedtls_pk_encrypt
40125ba8 g     F .text	00000112 mbedtls_pk_verify_ext
4015caa8 g     F .text	0000006d cnx_remove_all_rc
4011c314 g     F .text	00000025 mbedtls_ctr_drbg_free
4016e87c g     F .text	0000007c hal_attenna_init
40183254 g     F .text	00000044 eap_peer_fast_register
400eff30 g     F .text	00000000 TG1_T0_LEVEL
401859ec g     F .text	00000014 wpa_snprintf_hex
401715c0 g     F .text	00000010 tls_connection_resumed
4016cd98 g     F .text	0000000f wdev_nan_set_callbacks
40082488 g     F .rwtext.wifi	00000066 cnx_node_search
40163a00 g     F .text	000000a2 rf_cal_data_recovery
401241b8 g     F .text	00000111 mbedtls_md5_finish
4017889c g     F .text	0000001d hmac_md5
40145590 g     F .text	00000066 ieee80211_ht_node_init
40167c08 g     F .text	000000ac lmacRetryTxFrame
401702a0 g     F .text	000001bf eap_sm_process_request
4015a87c g     F .text	0000012a ppInstallKey
40128b0c g     F .text	00000651 psa_key_derivation_output_bytes
401498c4 g     F .text	0000002f wpa_crypto_funcs_init
40175280 g     F .text	0000001b x509_sha256_oid
40182084 g     F .text	00000124 eap_fast_save_pac
40088904 g     F .rwtext.wifi	000000ca bb_bss_cbw40
4015a0e0 g     F .text	00000040 wifi_ap_pmf_enabled
4017a208 g     F .text	00000041 sha384_vector
4014a9d4 g     F .text	0000000a wifi_on_coex_schm_phase_process
4013ad10 g     F .text	0000017a mbedtls_base64_decode
40129c74 g     F .text	00000079 psa_crypto_init
4018a95c g     F .text	00000005 psa_driver_wrapper_free
3ffb25c0 g     O .data.wifi	00000004 g_osi_funcs_p
400f6814 g     F .text	000000af realloc
4012a220 g     F .text	00000046 psa_set_key_domain_parameters
40123058 g     F .text	000000a3 mbedtls_gcm_auth_decrypt
4013cf4c g     F .text	000000c2 mbedtls_chacha20_update
40179bfc g     F .text	00000113 hmac_sha1_vector
4000181c g       *ABS*	00000000 write
401685a4 g     F .text	0000003c lmac_stop_hw_txq
40168a18 g     F .text	00000036 pm_wake_up
40154a00 g     F .text	00000042 scan_reset_default_app_params
40151450 g     F .text	0000001f ieee80211_add_probe_resp_app_ies
40086a64 g     F .rwtext.wifi	0000016d pm_process_tim
4011cf74 g     F .text	0000059e mbedtls_des3_crypt_ecb
3ffd12b4 g     O .bss	00000088 phy_rxrf_dc
401060d0 g     F .text	00000072 mbedtls_ssl_check_cert_usage
4016eb74 g     F .text	0000001b hal_enable_sta_tsf
401464cc g     F .text	00000046 ieee80211_add_ie_vendor_esp_manufacturer
40189f54 g     F .text	00000010 mbedtls_ssl_pend_fatal_alert
40113a7c g     F .text	00000079 mbedtls_ssl_tls13_read_public_ecdhe_share
40081874 g     F .rwtext	00000068 phy_enter_critical
400819e8 g     F .rwtext	00000000 Timer1
40002d78 g       *ABS*	00000000 __mulvdi3
40171b4c g     F .text	0000004e tlsv1_client_deinit
4017070c g     F .text	0000001c esp_eap_client_set_ca_cert
40113968 g     F .text	00000049 mbedtls_ssl_tls13_write_change_cipher_spec
4016774c g     F .text	00000037 ic_set_interrupt_handler
40118ab4 g     F .text	00000035 mbedtls_mpi_read_binary
401491b4 g     F .text	0000002e wifi_get_macaddr
4018a9e8 g     F .text	00000007 mbedtls_rsa_get_len
40145e84 g     F .text	0000003c ieee80211_add_htcap
4015777c g     F .text	0000000f sta_recv_ctl
40147cfc g     F .text	00000088 ieee80211_parse_wapi
400819e8 g     F .rwtext	00000000 Timer0
401760e4 g     F .text	0000007d aes_128_cbc_decrypt
3ffcea78 g     O .bss	00000004 wpa_cb
4014c060 g     F .text	0000006f nan_dp_get_peer_ndl
4006387c g       *ABS*	00000000 __absvdi2
40080400 g       *ABS*	00000000 _init_end
401362f0 g     F .text	000000d3 mbedtls_ssl_tls13_make_traffic_keys
3ffd0028 g     O .bss	0000011c gScanStruct
400f8080 g     F .text	00000025 pp_printf
3ffcebb4 g     O .bss	00000004 g_wpa_password
4013fdb0 g     F .text	00000029 wifi_deinit_in_caller_task
4018a084 g     F .text	0000002d mbedtls_ssl_add_hs_hdr_to_checksum
4015fd8c g     F .text	00000096 chip_v7_rxmax_ext_ana
40080ae8 g     F .rwtext	000000bf __user_exception
40149dd8 g     F .text	0000000d wifi_set_ps_process
4018b710 g     F .text	00000007 tls_get_errors
4014b66c g     F .text	00000067 nan_transmit_action
4006342c g     F *ABS*	00000049 .hidden __ltsf2
4011b110 g     F .text	00000231 mbedtls_cipher_update
40103b84 g     F .text	0000005b mbedtls_ssl_get_record_expansion
4014858c g     F .text	000001b7 ieee80211_set_phy_bw
4010034c g     F .text	0000002d mbedtls_ssl_set_timer
40118c00 g     F .text	00000016 mbedtls_mpi_shift_r
40170688 g     F .text	00000046 esp_eap_client_set_certificate_and_key
40088e70 g     F .rwtext.wifi	00000124 rx_11b_opt
4017095c g     F .text	00000095 esp_eap_client_set_fast_params
4014c418 g     F .text	00000097 nan_ndp_resp_timeout_process
3ffb237c g     O .data	0000009c rc11GSchedTbl
4011c9d0 g     F .text	00000021 mbedtls_des3_set3key_enc
400819e8 g     F .rwtext	00000000 Timer2
4008a7e4 g     F .rwtext.wifi	0000005e ram_set_noise_floor
40165ea0 g     F .text	000001ec ram_rfcal_txcap
40002cf8 g       *ABS*	00000000 __subvsi3
4016b384 g     F .text	00000068 rcGet11NHighestRateIdx
4017fafc g     F .text	000000a9 peap_prfplus
401389dc g     F .text	00000026 mbedtls_aes_crypt_ecb
40185284 g     F .text	0000002a wpa_sm_notify_disassoc
40171e74 g     F .text	00000034 tlsv1_client_get_random
4011dcd8 g     F .text	00000050 mbedtls_dhm_free
40152844 g     F .text	000001b1 ieee80211_encap_amsdu
4013e764 g     F .text	00000021 mbedtls_hmac_drbg_free
4012369c g     F .text	00000a86 mbedtls_internal_md5_process
4014f074 g     F .text	00000048 nan_send_discovery_result
40118b1c g     F .text	000000e2 mbedtls_mpi_shift_l
400865ac g     F .rwtext.wifi	0000005e pm_enable_beacon_monitor_timer
401142b4 g     F .text	0000003c mbedtls_x509_get_sig
4018b4d4 g     F .text	00000007 RC_SetBasicRate
40180254 g     F .text	00000015 eap_peer_tls_reset_input
401716a0 g     F .text	0000013b tls_derive_keys
40163d98 g     F .text	0000001c get_phy_version_str
3ffcebd0 g     O .bss	00000004 g_wpa_client_cert_len
401682a4 g     F .text	000000a9 lmacProcessTxRtsError
401515b8 g     F .text	00000077 ieee80211_add_extcap
40167128 g     F .text	0000008e ic_set_key
40150d1c g     F .text	00000036 is_wapi_alloc_tx_buf
3ffce766 g     O .bss	00000001 phy_in_vdd33_offset
40187064 g     F .text	0000007f pkcs1_decrypt_public_key
4013df50 g     F .text	00000033 mbedtls_ecdsa_sign
400896fc g     F .rwtext.wifi	0000004c phy_dis_hw_set_freq
40106b30 g     F .text	0000001f mbedtls_ssl_set_calc_verify_md
40159e44 g     F .text	00000029 esp_wifi_sta_update_ap_info_internal
401821ec g     F .text	000001ca eap_fast_load_pac_bin
4015c564 g     F .text	0000001a cnx_get_authtype_strength
40086598 g     F .rwtext.wifi	00000013 pm_beacon_monitor_tbtt_stop
40080958 g     F .rwtext	00000000 __default_naked_level_3_interrupt
4018a72c g     F .text	0000001b mbedtls_ecp_get_type
40118264 g     F .text	00000073 mbedtls_asn1_get_bitstring
4017757c g     F .text	00000018 crypto_public_key_encrypt_pkcs1_v15
401694c4 g     F .text	00000074 pm_tx_data_done_process
4016bdf8 g     F .text	00000059 TRC_AMPDU_PER_UP_THRESHOLD
40170db0 g     F .text	00000057 wpa_alloc_eapol
4016ac44 g     F .text	00000056 ppTxqEmpty
4015ea8c g     F .text	0000011d cnx_obss_scan_done_cb
3ffd1294 g     O .bss	0000000b freq_i2c_addr
40145d28 g     F .text	000000b9 ieee80211_setup_htrates
401516b8 g     F .text	0000006d ieee80211_setup_robust_mgmtframe
40063374 g     F *ABS*	00000049 .hidden __eqsf2
4017865c g     F .text	00000086 MD5Update
40170858 g     F .text	0000003e esp_eap_client_set_new_password
3f42b342 g     O .rodata	00000100 Td4s
3ffd0158 g     O .bss	00000228 gChmCxt
4011ca60 g     F .text	00000021 mbedtls_des3_set3key_dec
401852dc g     F .text	00000035 wpa_parse_wpa_ie
400f42b0 g     F .text	0000013a ets_timer_disarm
4011af48 g     F .text	00000034 mbedtls_cipher_free
40167868 g     F .text	00000016 ic_set_rx_policy
401545fc g     F .text	00000014 ieee80211_regdomain_update_in_connect
4013cdb4 g     F .text	0000011b mbedtls_chacha20_setkey
401513a0 g     F .text	00000030 ieee80211_add_rates
400eff30 g     F .text	00000000 TG0_T0_LEVEL
4018050c g     F .text	0000003b eap_peer_tls_decrypt
40089540 g     F .rwtext.wifi	00000063 ram_en_pwdet
4000c978 g     F *ABS*	00000033 .hidden __floatundidf
4014219c g     F .text	00000153 hostap_handle_timer_process
4008ae60 g     F .rwtext.wifi	00000076 get_chan_pwr_index
40141f30 g     F .text	0000019a ieee80211_hostap_attach
4018b728 g     F .text	0000000e tls_alert
40118664 g     F .text	000000d0 mbedtls_mpi_copy
40175c64 g     F .text	00000295 x509_check_signature
400f7eb8 g     F .text	0000004b gettimeofday
40117964 g     F .text	00000012 mbedtls_x509_crt_init
4014b658 g     F .text	0000000e nan_post_event
3ffce560 g     O .bss	00000004 s_wifi_task_hdl
401566b0 g     F .text	00000bf3 scan_parse_beacon
4013f2d0 g     F .text	00000094 mbedtls_poly1305_update
4018a5f4 g     F .text	0000000e mbedtls_ct_uint_mask
4014d45c g     F .text	000000d5 nan_dp_schedule_next_faw
4016e978 g     F .text	00000085 hal_sniffer_enable
4008d294 g     F .rwtext.wifi	000000a7 ppAMPDU2Normal
400efc34 g     F .text	0000009f ESP32Reset
40170a20 g     F .text	0000002d wpa_ap_get_wpa_ie
4011abfc g     F .text	000002d2 mbedtls_mpi_core_random
4017863c g     F .text	0000001f MD5Init
4015b670 g     F .text	000000e7 chm_set_current_channel
4016d9d8 g     F .text	00000024 hal_mac_set_txq_invalid
400878f4 g     F .rwtext.wifi	00000078 wDevCheckBlockError
4015ee84 g     F .text	0000001c offchan_recv_action
40119fd0 g     F .text	00000230 mbedtls_mpi_gcd
40150688 g     F .text	00000038 wifi_nvs_validate_ap_password
4000c870 g     F *ABS*	0000002f .hidden __floatsisf
40177ef8 g     F .text	00000040 des3_decrypt
4013b9d4 g     F .text	00000724 mbedtls_camellia_crypt_ecb
40167834 g     F .text	00000010 ic_get_trc
40139ed8 g     F .text	000001cb mbedtls_aria_setkey_dec
40139278 g     F .text	00000086 mbedtls_aes_crypt_ctr
4014100c g     F .text	000000c8 wifi_create_softap
4018a690 g     F .text	00000032 mbedtls_ct_memcpy_offset
40169a7c g     F .text	00000066 pm_on_coex_schm_status_config
40129864 g     F .text	00000110 psa_raw_key_agreement
40128010 g     F .text	00000075 psa_export_public_key_internal
400855e8 g     F .rwtext.wifi	0000002e ppProcessRxPktHdr
3ffb1d5a g     O .data	00000002 bt_tx_pa_gain
4017dc54 g     F .text	0000001b eap_peer_get_methods
401022d8 g     F .text	0000006b mbedtls_ssl_send_flight_completed
40162a10 g     F .text	00000016 bt_index_to_bb
4015f7c4 g     F .text	0000009f tkip_decap
4018b1ac g     F .text	0000001b ieee80211_set_shortslottime
40113d20 g     F .text	0000001d mbedtls_x509_get_alg
40185314 g     F .text	00000296 wpa_gen_wpa_ie
40174db0 g     F .text	00000077 x509_free_name
4013fe70 g     F .text	00000045 wifi_osi_funcs_register
4018b5f4 g     F .text	0000004f rcUpdateAckSnr
4016bd18 g     F .text	000000db rcAmpduLowerRate
401670d8 g     F .text	00000011 ic_get_addr
4015a4d8 g     F .text	00000024 esp_wifi_get_spp_attrubute_internal
4016fa1c g     F .text	00000020 sha256_prf
40173654 g     F .text	0000006a tls_verify_hash_free
4011a290 g     F .text	00000464 mbedtls_mpi_inv_mod
4018b578 g     F .text	00000026 trcAmpduSetState
400081d4 g       *ABS*	00000000 rtc_get_reset_reason
4011b620 g     F .text	000000f7 mbedtls_cipher_auth_encrypt_ext
4011bebc g     F .text	0000009b mbedtls_ct_base64_dec_value
40157934 g     F .text	00000025 sta_is_wpa3_enabled
4011b344 g     F .text	000000d2 mbedtls_cipher_finish
4018c240 g     F .text	00000026 bignum_cmp_d
40185204 g     F .text	0000004e wpa_sm_drop_sa
4015d288 g     F .text	00000031 cnx_auth_timeout_process
40169c08 g     F .text	0000003b pm_disconnected_stop
4016c7a4 g     F .text	0000006e wdev_pop_promis_misc_buf
40170900 g     F .text	0000005a esp_eap_client_set_pac_file
40172ef4 g     F .text	000005e3 tlsv1_client_handshake_write
3f425818 g     O .rodata	00000030 mbedtls_ecdsa_info
4013c66c g     F .text	00000040 mbedtls_ccm_set_lengths
3ffb1d0c g     O .data	00000018 sms4
4015e09c g     F .text	00000296 cnx_sta_leave
40081a68 g     F .rwtext	0000003e __default_double_exception
4018b0c8 g     F .text	00000034 nan_all_wildcard_filter
3ffcebc4 g     O .bss	00000004 g_wpa_private_key_passwd
40156534 g     F .text	00000081 scan_get_owe_channel_info
3ffce635 g     O .bss	00000001 g_wifi_improve_contention_ability
40167388 g     F .text	0000000c ic_register_nan_callbacks
401541d8 g     F .text	00000023 ieee80211_proto_attach
40171320 g     F .text	0000001e tls_deinit
40164d48 g     F .text	00000187 ram_txiq_cover
40140d78 g     F .text	0000000f ieee80211_ifdetach
40140938 g     F .text	0000007a esp_mesh_map_deauth
40125264 g     F .text	00000029 mbedtls_oid_get_oid_by_md
40125320 g     F .text	0000004c mbedtls_oid_get_pkcs12_pbe_alg
3ffce76a g     O .bss	00000001 s_is_6m
4013d5a4 g     F .text	0000002f mbedtls_chachapoly_free
40169c50 g     F .text	000001c2 pm_start
3f41b464 g     O .rodata	00000010 mbedtls_x509_crt_profile_suiteb
4016e37c g     F .text	00000059 hal_mac_tsf_set_time
401284ac g     F .text	0000002e psa_hash_compute
4012ac24 g     F .text	00000053 mbedtls_psa_hash_update
40086e4c g     F .rwtext.wifi	0000005f pm_coex_pwr_update
4008b7b0 g     F .rwtext.wifi	00000017 ram_get_rf_gain_qdb
401708c4 g     F .text	0000000b wifi_sta_get_enterprise_disable_time_check
3ffcebc8 g     O .bss	00000004 g_wpa_private_key_len
40189c14 g     F .text	00000030 snprintf
40122ffc g     F .text	0000005c mbedtls_gcm_crypt_and_tag
40086150 g     F .rwtext.wifi	000000ae pm_scale_listen_interval
4011e738 g     F .text	00000021 mbedtls_ecp_mul_restartable
401803f8 g     F .text	000000f7 eap_peer_tls_process_helper
40123134 g     F .text	00000019 mbedtls_hash_info_psa_from_md
40125dac g     F .text	00000125 mbedtls_pk_sign_ext
400041a4 g       *ABS*	00000000 rom_i2c_writeReg
40146920 g     F .text	0000013c ieee80211_set_max_rate
4011e1a4 g     F .text	00000042 mbedtls_ecp_group_init
400636dc g     F *ABS*	0000004d .hidden __gtdf2
4014f7c0 g     F .text	00000030 cleanup_peer_list
40168ba4 g     F .text	0000029f pm_coex_separate_connectionless_window
401070f4 g     F .text	000006d6 mbedtls_ssl_parse_certificate
4017da84 g     F .text	0000012a tls_prf_sha1_md5
4013e3bc g     F .text	00000034 mbedtls_ecdsa_write_signature
40089358 g     F .rwtext.wifi	0000009e phy_wakeup_init
4013f61c g     F .text	0000002e .hidden _ZN83_$LT$$RF$mut$u20$I$u20$as$u20$core..iter..traits..exact_size..ExactSizeIterator$GT$3len17h748e6601cc771210E
3ffceba8 g     O .bss	00000004 g_wpa_new_password_len
4008d168 g     F .rwtext.wifi	00000092 ppSelectNextQueue
4008b0f4 g     F .rwtext.wifi	00000297 set_chan_dig_gain
40064b7c g       *ABS*	00000000 __clrsbdi2
401696d8 g     F .text	000000dc pm_go_to_wake
4018345c g     F .text	00000064 pmksa_cache_flush
40125cbc g     F .text	00000075 mbedtls_pk_sign_restartable
4012b8f0 g     F .text	00000030 psa_generic_status_to_mbedtls
4017de24 g     F .text	00000021 eap_peer_register_methods
40154740 g     F .text	0000001c ieee80211_rfid_locp_recv
40144d60 g     F .text	00000076 ampdu_alloc_rx_ba_index
4014aa10 g     F .text	0000001f ieee80211_ioctl_init
4018a2bc g     F .text	0000003d mbedtls_mpi_core_add
40144a00 g     F .text	000001c2 ieee80211_ht_attach
40187b30 g     F .text	0000003f get_master_key
3ffb1b2c g     O .data	00000100 g_timer_info
40087ba8 g     F .rwtext.wifi	00000053 pm_handle_tbtt_interval
4016841c g     F .text	0000006d lmacDisableTransmit
40118344 g     F .text	000000cc mbedtls_asn1_get_sequence_of
4018a158 g     F .text	0000001d mbedtls_ssl_pk_alg_from_sig
40167328 g     F .text	00000014 ic_register_config_cb
4013f964 g     F .text	00000046 wifi_api_lock
40104b44 g     F .text	0000007f mbedtls_ssl_reset_checksum
401736c0 g     F .text	000000ba tls_verify_hash_init
4014c894 g     F .text	00000066 nan_send_ndp_resp
4016d56c g     F .text	0000014a hal_crypto_set_key_entry
3ffce9d8 g     O .bss	00000070 wDevMacSleep
4008c9c4 g     F .rwtext.wifi	00000150 lmacProcessTxComplete
401858d0 g     F .text	00000024 wpabuf_alloc_ext_data
40154454 g     F .text	00000024 ieee80211_update_phy_country
40086d6c g     F .rwtext.wifi	0000001b pm_beacon_monitor_tbtt_timeout_process
40082844 g     F .rwtext.wifi	0000006f lmacTxDone
400896b8 g     F .rwtext.wifi	00000040 bb_rst_en_set
40089404 g     F .rwtext.wifi	00000032 phy_set_bbfreq_init
400877f8 g     F .rwtext.wifi	000000e7 wdevProcessRxSucDataAll
4018a634 g     F .text	0000000e mbedtls_ct_size_bool_eq
4018a7ac g     F .text	0000000e mbedtls_md_get_type
40177594 g     F .text	00000018 crypto_private_key_sign_pkcs1
4012253c g     F .text	00000201 mbedtls_gcm_update_ad
40164ed0 g     F .text	000001dd rfcal_txiq
40089480 g     F .rwtext.wifi	000000af pwdet_sar2_init
40124804 g     F .text	00000297 mbedtls_nist_kw_unwrap
40173594 g     F .text	0000003f tls_parse_cert
40063790 g     F *ABS*	0000004d .hidden __ltdf2
40187b70 g     F .text	00000065 get_asymetric_start_key
401403d8 g     F .text	0000006a esp_wifi_set_config
40105c58 g     F .text	00000297 mbedtls_ssl_config_defaults
4015a4ac g     F .text	0000002b esp_wifi_deauthenticate_internal
3ffce750 g     O .bss	00000001 bt_dig_gain_force
4008bee0 g     F .rwtext.wifi	00000047 hal_mac_rx_get_end_info
4015a9a8 g     F .text	00000060 esp_wifi_set_sta_key_internal
4013f64c g     F .text	000001f0 .hidden _ZN17compiler_builtins5float3div3div17heda295e2dcc7b110E
4014cb04 g     F .text	000000b2 nan_dp_parse_time_bitmap
40162240 g     F .text	000003ae set_rx_gain_cal_dc
4016d9fc g     F .text	00000019 hal_mac_is_txq_valid
4012b618 g     F .text	00000140 mbedtls_psa_rsa_sign_hash
4014e220 g     F .text	000000f0 nan_nmns_event_hdlr
40145608 g     F .text	0000011c ieee80211_parse_htcap
4011e64c g     F .text	0000002c mbedtls_ecp_tls_read_point
4011d828 g     F .text	000000a1 mbedtls_dhm_make_params
40132ed4 g     F .text	00000012 mbedtls_sha512_clone
4017da44 g     F .text	00000025 aes_gmac
400863dc g     F .rwtext.wifi	00000024 pm_disable_sleep_delay_timer
40085ac8 g     F .rwtext.wifi	0000004e rc_get_trc
40001274 g       *ABS*	00000000 strcmp
401600f4 g     F .text	0000006f wr_rf_freq_mem
40086fac g     F .rwtext.wifi	00000025 ppDequeueRxq_Locked
4011e6b0 g     F .text	00000050 mbedtls_ecp_tls_read_group_id
400633c0 g     F *ABS*	00000049 .hidden __lesf2
40170bc8 g     F .text	00000023 wpa_install_key
40186f18 g     F .text	00000018 bignum_sub
401345c0 g     F .text	000000dc mbedtls_sha512_update
4018a7cc g     F .text	0000000b mbedtls_pk_init
40154c0c g     F .text	00000011 scan_set_act_duration
401603d4 g     F .text	00000570 bt_i2c_write_set
4011467c g     F .text	0000002d mbedtls_x509_key_size_helper
40002ed0 g       *ABS*	00000000 __popcountsi2
400eff30 g     F .text	00000000 TG0_T1_EDGE
40179af0 g     F .text	00000031 sha1_vector
4016886c g     F .text	0000005e pm_noise_check
401002b4 g     F .text	00000025 default_post_init
4014c9d4 g     F .text	000000dd nan_dp_parse_elem_container
40176f84 g     F .text	000000e9 aes_unwrap
4017a15c g     F .text	0000001d hmac_sha256
40161930 g     F .text	000000ea ram_check_noise_floor
40089d38 g     F .rwtext.wifi	0000006e btpwr_tsens_track
40125d34 g     F .text	00000075 mbedtls_pk_sign
40082670 g     F .rwtext.wifi	000001c2 lmacTxFrame
40140cac g     F .text	000000cb ieee80211_ifattach
4018bb70 g     F .text	0000001e wpa_mic_len
40088550 g     F .rwtext.wifi	0000005d ram_cbw2040_cfg
3ffce4d0 g     O .bss	00000004 mesh_rxcb
40089fc8 g     F .rwtext.wifi	000000a5 force_txrxoff
4018bdc8 g     F .text	0000000f eap_sm_request_password
4012dcb8 g     F .text	00000091 mbedtls_rsa_import_raw
40105c44 g     F .text	00000012 mbedtls_ssl_config_init
3ffce621 g     O .bss	00000001 s_avail_seq
40104a24 g     F .text	00000066 mbedtls_ssl_print_extensions
40169478 g     F .text	00000022 pm_sleep_delay_timeout_process
4008d478 g     F .rwtext.wifi	00000087 rcGetRate
40151680 g     F .text	00000032 ieee80211_vnd_lora_ie_set
4016c9b4 g     F .text	00000072 wDev_SnifferRxAmpdu
40187c7c g     F .text	00000022 nt_password_hash_encrypted_with_block
4013a674 g     F .text	00000012 mbedtls_aria_init
40179eb8 g     F .text	00000093 sha256_process
40183f84 g     F .text	0000004d wpa_sm_init
401719c8 g     F .text	00000119 tlsv1_client_decrypt
3ffb25d1 g     O .data.wifi	00000001 g_sta_connected_flag
401489b8 g     F .text	000007f5 wifi_softap_set_config
40123664 g     F .text	00000011 mbedtls_md5_clone
400f7024 g     F .text	0000008f WIFI_MAC
4018a9c0 g     F .text	00000025 psa_status_to_mbedtls
40123150 g     F .text	0000001b mbedtls_hash_info_md_from_psa
4011e248 g     F .text	0000001b mbedtls_ecp_point_free
4016c070 g     F .text	000000ae rcReachRetryLimit
401699f0 g     F .text	00000059 pm_active_timeout_process
400eff30 g     F .text	00000000 SPI1_DMA
4018a1b4 g     F .text	00000007 mbedtls_x509_time_is_future
4018b7f4 g     F .text	0000000b tlsv1_client_set_session_ticket_cb
40187334 g     F .text	0000011b crypto_rsa_exptmod
4013fde4 g     F .text	00000079 wifi_init_in_caller_task
3ffce70b g     O .bss	00000001 g_in_blacklist_flag
40084a10 g     F .rwtext.wifi	00000089 ampdu_dispatch_as_many_as_possible
40187450 g     F .text	00000038 crypto_rsa_free
4008a470 g     F .rwtext.wifi	000001b0 set_most_pwr_reg
4013a93c g     F .text	0000009b mbedtls_aria_crypt_cfb128
400860d0 g     F .rwtext.wifi	0000000a ic_mac_deinit
4014e814 g     F .text	00000371 nan_scan_event_hdlr
4011aff4 g     F .text	0000004a mbedtls_cipher_setkey
4015b638 g     F .text	00000022 chm_get_chan_info
4018bac0 g     F .text	00000005 crypto_global_deinit
40104948 g     F .text	000000d9 mbedtls_ssl_print_extension
40142498 g     F .text	0000011f hostap_recv_ctl
40167290 g     F .text	00000014 ic_ebuf_alloc
4014ad7c g     F .text	0000000e nan_get_tsf
4018a5c4 g     F .text	0000002d mbedtls_ct_memcmp
3ffb1d59 g     O .data	00000001 phy_in_most_power
40118894 g     F .text	000000f5 mbedtls_mpi_mul_int
401513d0 g     F .text	00000026 ieee80211_add_dsparams
4018b1ec g     F .text	00000031 scan_fill_wps_scan_ie
4016a9a8 g     F .text	0000001e ppRecordBarRRC
401060a4 g     F .text	00000029 mbedtls_ssl_get_curve_name_from_tls_id
4000c44c g     F *ABS*	00000031 .hidden memset
4008d10c g     F .rwtext.wifi	00000055 ppProcessWaitingQueue
40179f4c g     F .text	000000d4 sha256_done
40140e8c g     F .text	00000064 wifi_destroy_softap
40063768 g     F *ABS*	0000004d .hidden __gedf2
4017dc70 g     F .text	0000002b eap_peer_get_type
40160fdc g     F .text	0000009c set_chan_freq_hw_init
4000c8c0 g     F *ABS*	00000031 .hidden __floatdisf
4016fc94 g     F .text	0000002a dup_binstr
401735d4 g     F .text	0000007e tls_verify_hash_add
4016fb8c g     F .text	00000108 printf_decode
40176aa0 g     F .text	0000001a aes_encrypt_deinit
4016fcc0 g     F .text	000000f2 wpa_config_parse_string
4017a7f4 g     F .text	00000011 os_get_random
3ffd0380 g     O .bss	00000ef8 g_cnxMgr
4000ca50 g     F *ABS*	00000031 .hidden __clzdi2
4000c584 g       *ABS*	00000000 strlcpy
4011d514 g     F .text	000001bf mbedtls_des3_crypt_cbc
3ffcebe4 g     O .bss	00000004 g_wpa_anonymous_identity
4013aeb4 g     F .text	00000a86 mbedtls_camellia_setkey_enc
3ffceb95 g     O .bss	00000001 g_wpa_suiteb_certification
4016d7c4 g     F .text	0000001b hal_crypto_mgmt_rx_enabled
40152564 g     F .text	00000058 ieee80211_disassoc_construct
4011a8b8 g     F .text	00000080 mbedtls_mpi_core_write_le
4018b5dc g     F .text	00000018 rcGetDefaultHigestRateIdx
4011d6f8 g     F .text	0000000f mbedtls_dhm_get_len
4018b300 g     F .text	00000023 phy_byte_to_word
4017cfc0 g     F .text	00000143 wpa_parse_wpa_ie_wpa
40112b0c g     F .text	00000624 mbedtls_ssl_tls13_process_certificate
401708d0 g     F .text	00000030 esp_eap_client_set_ttls_phase2_method
401379b4 g     F .text	00000281 mbedtls_aes_setkey_enc
4015acf4 g     F .text	00000048 esp_wifi_register_mgmt_frame_internal
4011bf58 g     F .text	00000164 mbedtls_ct_hmac
401678f0 g     F .text	0000000a ic_create_wifi_task
40157794 g     F .text	000000a2 wifi_station_start
3ffceb1c g     O .bss	00000004 global_hapd
401233f4 g     F .text	00000052 mbedtls_md_finish
400f8080 g     F .text	00000025 net80211_printf
401160c0 g     F .text	0000003e mbedtls_x509_get_ns_cert_type
40159eec g     F .text	00000056 esp_wifi_get_pmf_config_internal
4016789c g     F .text	0000000f ic_trc_set_per_pkt_rate
4014af38  w    F .text	000002d8 nan_input
40170c90 g     F .text	0000003a wpa_sta_connect
401350b0 g     F .text	0000024d mbedtls_debug_print_crt
40117ff0 g     F .text	000000ca mbedtls_asn1_get_len
4011a240 g     F .text	0000004e mbedtls_mpi_random
4015a120 g     F .text	0000000d esp_wifi_sta_get_prof_password_internal
4016e3f4 g     F .text	0000013d hal_mac_tsf_reset
401802f8 g     F .text	00000017 eap_peer_tls_ssl_deinit
4015c284 g     F .text	0000000e cnx_assoc_timeout
40080ba8 g     F .rwtext	0000002d __level_4_interrupt
40118b04 g     F .text	00000015 mbedtls_mpi_write_binary
40161844 g     F .text	00000076 ram_start_tx_tone
400f8080 g     F .text	00000025 coexist_printf
40168a88 g     F .text	000000b9 pm_off_channel
4013dad4 g     F .text	00000134 mbedtls_cipher_cmac_finish
4017754c g     F .text	0000002e crypto_private_key_import
401360b0 g     F .text	000000b7 mbedtls_ssl_sig_alg_to_str
40169164 g     F .text	0000002d pm_beacon_timestamp_statistic
40080140 g     F .vectors	00000000 _WindowUnderflow12
40104864 g     F .text	0000006a mbedtls_ssl_session_set_hostname
40002c34 g     F *ABS*	00000031 .hidden __extendsfdf2
40154ea4 g     F .text	00000170 scan_update_scan_history
4016a3a8 g     F .text	00000019 pp_default_event_handler
3ffce738 g     O .bss	00000001 bt_pwr_track_num
40173d7c g     F .text	0000004b tlsv1_record_change_read_cipher
4018bf58 g     F .text	000000f9 eap_fast_parse_tlv
3ffcdcb4 g     O .bss	00000004 g_misc_nvs
4017a060 g     F .text	000000f9 hmac_sha256_vector
4000ca14 g       *ABS*	00000000 __negdi2
4017d5ec g     F .text	000000e3 ccmp_encrypt
4018b0fc g     F .text	0000001f nan_service_type_diff
4016ebe8 g     F .text	0000001b hal_disable_softap_tsf
40170898 g     F .text	0000001b esp_eap_client_clear_new_password
4014b530 g     F .text	00000127 nan_alloc_action
401550b4 g     F .text	00000015 scan_set_desChan
4018c060 g     F .text	0000000c pmksa_cache_clear_current
40083054 g     F .rwtext.wifi	0000017d ppMapTxQueue
400895d4 g     F .rwtext.wifi	000000e2 pll_correct_dcap
4012f3d0 g     F .text	0000038c mbedtls_rsa_deduce_primes
4016ec1c g     F .text	000000fb coex_bt_high_prio
3ffceba4 g     O .bss	00000004 g_wpa_ttls_phase2_type
3ffce762 g     O .bss	00000001 phy_pwdet_onetime_flag
400f59ac g     F .text	000000d1 malloc
4008c7f4 g     F .rwtext.wifi	000000a6 lmacDiscardFrameExchangeSequence
4015f340 g     F .text	00000070 ieee80211_decrypt_espnow_pkt
40169aec g     F .text	0000003b pm_on_coex_start
3ffce73c g     O .bss	00000002 bt_pwr_cap_sum
3ffd133c g     O .bss	00000001 phy_dcur_org
40105b10 g     F .text	00000134 mbedtls_ssl_free
4010503c g     F .text	000000b8 mbedtls_ssl_session_reset_msg_layer
4008a6d4 g     F .rwtext.wifi	0000008b bt_tx_gain_cal
401077cc g     F .text	00000059 mbedtls_ssl_handshake_wrapup_free_hs_transform
4008be90 g     F .rwtext.wifi	00000010 hal_mac_interrupt_clr_event
40118880 g     F .text	00000014 mbedtls_mpi_size
4016a444 g     F .text	0000001b ppCheckTxQIdle
4015ef4c g     F .text	0000006e ieee80211_send_action
40129198 g     F .text	0000005f psa_key_derivation_setup
40118518 g     F .text	00000017 mbedtls_asn1_free_named_data_list_shallow
50000000 g       *ABS*	00000000 _rtc_slow_bss_start
40134d94 g     F .text	00000049 mbedtls_debug_print_ret
40002ac4 g     F *ABS*	00000033 .hidden __fixdfdi
401879e8 g     F .text	00000040 generate_nt_response
40086bd4 g     F .rwtext.wifi	00000098 pm_rx_beacon_process
4017a5ec g     F .text	0000009b sha512_process
40086790 g     F .rwtext.wifi	000001ba pm_sleep
4008a070 g     F .rwtext.wifi	0000001b ram_disable_agc
40168e50 g     F .text	00000060 pm_go_to_sleep
3ffd17ac g       *ABS*	00000000 _stack_end
4016417c g     F .text	0000028b register_chipv7_phy
40173a88 g     F .text	00000011 tlsv1_cred_alloc
40084934 g     F .rwtext.wifi	00000012 trc_isTxAmpduOperational
4013e3f0 g     F .text	00000017 mbedtls_ecdsa_read_signature
400eff30 g     F .text	00000000 BT_BB
4018b6e8 g     F .text	00000005 wpa_sm_disassociate
40084534 g     F .rwtext.wifi	00000057 wdev_mac_reg_store
4014b7f0  w    F .text	00000076 nan_stop
40165508 g     F .text	00000064 rxdc_est_min
40187bd8 g     F .text	00000076 encrypt_pw_block_with_password_hash
4018c3f0 g     F .wifiorslpiram.27	0000002b wDev_GetNoiseFloor
400633a0 g     F *ABS*	00000049 .hidden __gtsf2
4015ee78 g     F .text	0000000b offchan_in_progress
4013469c g     F .text	00000526 mbedtls_sha512_finish
4016c528 g     F .text	0000001d wDev_SetCurChannel
4012fc18 g     F .text	000018d4 mbedtls_internal_sha1_process
4008af44 g     F .rwtext.wifi	00000107 correct_rf_ana_gain_new
40141344 g     F .text	00000071 ieee80211_crypto_encap
40106c90 g     F .text	000001f0 mbedtls_ssl_psk_derive_premaster
4008174c g     F .rwtext	00000068 random
40136ea8 g     F .text	00000520 mbedtls_ssl_tls13_compute_handshake_transform
4016d414 g     F .text	00000081 hal_ba_session_restore_by_hw_index
4018c140 g     F .text	0000000f wpabuf_put
40171ae4 g     F .text	0000000a tlsv1_client_global_init
4016d4c4 g     F .text	0000008c hal_crypto_clr_key_entry
40168944 g     F .text	0000000b pm_mac_sleep
40145430 g     F .text	000000aa ampdu_process_multicast_address_qos_frame
4008254c g     F .rwtext.wifi	00000011 GetAccess
4016d180 g     F .text	000000f5 hal_agreement_add_rx_ba
4016b2cc g     F .text	000000b2 rcUpdateAMPDUParam
40080bd8 g     F .rwtext	0000002d __level_5_interrupt
4017c428 g     F .text	0000019a wpa_write_rsn_ie
40157754 g     F .text	00000026 ieee80211_parse_obss_scan_param
40162b08 g     F .text	00000025 chip_sleep_prot_dis
4010592c g     F .text	000000e3 mbedtls_ssl_renegotiate
4017c988 g     F .text	00000104 wpa_parse_kde_ies
40170f94 g     F .text	0000001a esp_supplicant_common_deinit
4000c3c0 g     F *ABS*	00000031 .hidden memmove
40105278 g     F .text	0000004d mbedtls_ssl_get_mode_from_transform
40089988 g     F .rwtext.wifi	000000a3 ram_chip_i2c_writeReg
40152a08  w    F .text	0000029e ieee80211_alloc_proberesp
401816e8 g     F .text	000000c0 mschapv2_derive_response
3ffb1944 g     O .data	00000004 g_wifi_nvs
4018b528 g     F .text	0000001c rcLoRaRate2SchedIdx
4011cdb4 g     F .text	000001bf mbedtls_des_crypt_cbc
3ffcebd8 g     O .bss	00000004 g_wpa_username_len
401589f4 g     F .text	00000086 sta_retry_assoc
4015c09c g     F .text	00000036 ieee80211_cnx_attach
40127bfc g     F .text	0000008a psa_validate_unstructured_key_bit_size
40063374 g     F *ABS*	00000049 .hidden __nesf2
40163cd4 g     F .text	000000af fe_reg_init
40105218 g     F .text	0000005d mbedtls_ssl_set_hs_psk
40149dfc g     F .text	00000190 wifi_set_country
40124fc0 g     F .text	0000013d mbedtls_oid_get_ec_grp
3ffce658 g     O .bss	00000001 rssi_index
4000ab7c g       *ABS*	00000000 roundup2
4016d36c g     F .text	0000003e hal_ba_session_store
4014e104 g     F .text	00000119 nan_nms_event_hdlr
401457e8 g     F .text	00000372 ieee80211_update_channel
4015fe34 g     F .text	0000004f phy_freq_correct_opt
4014ad8c g     F .text	0000001d nan_update_tsf
4018be00 g     F .text	0000000d eap_get_config_password
4016d0c8 g     F .text	00000037 wDev_remove_KeyEntry
40177538 g     F .text	00000011 crypto_public_key_import
4011f830 g     F .text	000000a1 mbedtls_ecp_gen_privkey
4015f1fc g     F .text	0000002c ieee80211_action_vendor_spec_attach
40166268 g     F .text	0000024a ram_rfcal_pwrctrl
4000c518 g       *ABS*	00000000 strcat
4014e4a8 g     F .text	00000078 nan_fill_dynamic_attr
4017e3ec g     F .text	00000031 eap_get_config_blob
40151630 g     F .text	00000038 ieee80211_vnd_ie_set
4008aa14 g     F .rwtext.wifi	0000015a write_txrate_power_offset
401039f0 g     F .text	00000066 mbedtls_ssl_write_change_cipher_spec
40087a24 g     F .rwtext.wifi	00000013 pm_disable_dream_timer
40188550 g     F .text	000005ca pkcs5_decrypt
400f13dc g     F .text	0000002d rand
40146b44 g     F .text	00000070 ieee80211_setup_lr_rates
40174e28 g     F .text	0000003a x509_certificate_free
4013e2b4 g     F .text	00000108 mbedtls_ecdsa_write_signature_restartable
401711c8 g     F .text	0000004e hostapd_cleanup
40087128 g     F .rwtext.wifi	00000117 wDev_AppendRxBlocks
4017bef4 g     F .text	000003ab wpa_receive
40143ccc g     F .text	000006b7 hostap_input
4008c4bc g     F .rwtext.wifi	000001ca esf_buf_alloc_dynamic
401184cc g     F .text	0000004a mbedtls_asn1_get_alg_null
4000c5f4 g       *ABS*	00000000 strncmp
401715a8 g     F .text	00000015 tls_connection_decrypt
40164958 g     F .text	0000001a ram_index_to_txbbgain
40149230 g     F .text	00000050 wifi_reset_mac
40107d18 g     F .text	00000036 mbedtls_ssl_tls12_get_preferred_hash_for_sig_alg
4016daf8 g     F .text	00000054 hal_mac_enable_low_rate
4014aa30 g     F .text	0000000f ieee80211_ioctl_deinit
40122740 g     F .text	000005ae mbedtls_gcm_update
40159edc g     F .text	0000000e esp_wifi_sta_get_prof_authmode_internal
401667b0 g     F .text	00000175 tx_pwctrl_init_cal
40185828 g     F .text	0000001e wpabuf_alloc
4016ea00 g     F .text	00000087 hal_sniffer_disable
4011451c g     F .text	000000d0 mbedtls_x509_serial_gets
4015b270 g     F .text	0000008a ieee80211_timer_do_process
400eff30 g     F .text	00000000 GPIO
40142b1c g     F .text	00000169 ap_try_sa_query_process
401234ac g     F .text	000000d4 mbedtls_md_hmac_starts
3ffb1863 g     O .data	00000001 s_ndp_id
40124124 g     F .text	00000091 mbedtls_md5_update
40085a44 g     F .rwtext.wifi	00000080 rcUpdateRxDone
4017de00 g     F .text	00000024 eap_sm_allowMethod
4008d010 g     F .rwtext.wifi	000000f2 ppMapWaitTxq
4011e010 g     F .text	0000003c mbedtls_ecdh_read_public
3ffce65c g     O .bss	00000008 rssi_saved
40080a48 g     F .rwtext	00000000 __naked_level_6_interrupt
40148970 g     F .text	0000001a wifi_softap_max_support_num
4014d2dc g     F .text	0000004d nan_dp_init
4012a74c g     F .text	0000005c mbedtls_psa_ecp_export_public_key
3ffce4d4 g     O .bss	00000004 s_wifi_api_lock
4014a9e0 g     F .text	00000025 wifi_mesh_ps_duty_cycle_get_process
40187b04 g     F .text	0000002a nt_challenge_response
4016da9c g     F .text	00000057 hal_mac_disable_low_rate
4011832c g     F .text	00000017 mbedtls_asn1_sequence_free
40169a60 g     F .text	00000012 pm_send_wake_null_cb
4012a634 g     F .text	00000061 mbedtls_psa_ecp_import_key
4016da18 g     F .text	00000043 hal_now
4011e124 g     F .text	0000004f mbedtls_ecp_grp_id_list
401618c0 g     F .text	00000024 ram_bb_tx_ht20_cen
40080fdc g     F .rwtext	000001a0 __level_3_interrupt
4008d59c g     F .rwtext.wifi	00000024 hal_mac_txq_disable
4012f318 g     F .text	00000057 mbedtls_rsa_pkcs1_verify
400013ac g       *ABS*	00000000 strcpy
400819e8 g     F .rwtext	00000000 Software0
40168824 g     F .text	00000047 pm_enable_disconnected_sleep_delay_timer
4015a41c g     F .text	00000013 esp_wifi_register_wpa_cb_internal
4018b6e0 g     F .text	00000007 wpa_sm_mlme_setprotection
400f6e6c g     F .text	00000099 Software1
401182d8 g     F .text	00000054 mbedtls_asn1_get_bitstring_null
4018b720 g     F .text	00000007 tls_connection_get_failed
40086fdc g     F .rwtext.wifi	00000129 ppRxPkt
401752b8 g     F .text	0000001c x509_sha512_oid
40105f00 g     F .text	00000068 mbedtls_ssl_config_free
4014f2b8 g     F .text	00000052 nan_sd_parse_availability
4016d3ac g     F .text	00000067 hal_ba_session_restore
401002b4 g     F .text	00000025 DefaultPreInit
401132b0 g     F .text	0000005e mbedtls_ssl_tls13_check_sig_alg_cert_key_match
4017dcdc g     F .text	00000081 eap_get_phase2_types
40064ae0 g     F *ABS*	00000043 .hidden __bswapsi2
3f425c14 g     O .rodata	00000038 psa_to_ssl_errors
40140fd8 g     F .text	0000002e ieee80211_setup_pmf
4012fbdc g     F .text	00000011 mbedtls_sha1_clone
40104918 g     F .text	00000016 mbedtls_ssl_get_extension_id
40177e5c g     F .text	0000000e des_block_decrypt
4015aac4 g     F .text	00000052 esp_wifi_sta_wpa2_ent_enable_internal
4015ebdc g     F .text	00000296 cnx_auth_done
40170b98 g     F .text	0000002d wpa_ap_rx_eapol
40177e18 g     F .text	0000001a des_key_setup
4014a268 g     F .text	0000012e wifi_send_mgmt_frame
40173520 g     F .text	0000002b tls_get_cipher_suite
40171604 g     F .text	0000001a tls_get_cipher
4008d5d4 g     F .rwtext.wifi	00000067 hal_get_tsf_time
4016a37c g     F .text	0000000f pp_register_timer_cb
40080774 g     F .rwtext	00000000 restore_context
4000d280 g     F *ABS*	0000003a .hidden __umoddi3
4016756c g     F .text	0000000a ic_get_next_tbtt
40102344 g     F .text	0000001e mbedtls_ssl_start_handshake_msg
3ffb1d7e g     O .data	00000001 rfcal_bb_atten_init
401546e0 g     F .text	0000001e ieee80211_regdomain_chan_in_range
40106078 g     F .text	00000029 mbedtls_ssl_get_ecp_group_id_from_tls_id
40150d58 g     F .text	00000050 ieee80211_wapi_alloc_tx_buf
4012da10 g     F .text	000001bb mbedtls_ripemd160_finish
4016da60 g     F .text	00000023 hal_mac_tx_set_cca
40154b64 g     F .text	0000007a scan_cancel
400f7f04 g     F .text	00000023 strrchr
3ff96544 g       *ABS*	00000000 __popcount_tab
4018a9ac g     F .text	00000013 psa_validate_key_persistence
40140f5c g     F .text	00000050 ieee80211_find_elem_match
40153108 g     F .text	0000013c ieee80211_send_nulldata
40168350 g     F .text	00000012 lmacProcessTxseckiderr
4017ab9c g     F .text	0000003d hostapd_setup_wpa_psk
401283e4 g     F .text	00000058 psa_hash_setup
401185b0 g     F .text	000000b2 mbedtls_mpi_shrink
40110ab4 g     F .text	000013f5 mbedtls_ssl_tls13_handshake_client_step
400844dc g     F .rwtext.wifi	00000057 wdev_mac_reg_load
40164460 g     F .text	000000e6 chan14_mic_cfg
4011b0f8 g     F .text	00000015 mbedtls_cipher_reset
4016dbdc g     F .text	0000003a hal_disable_mac
4011a938 g     F .text	00000085 mbedtls_mpi_core_write_be
4016ad18 g     F .text	0000002f ppDisableQueue
401354b4 g     F .text	00000022 mbedtls_ssl_get_ciphersuite_sig_alg
4014ebb8  w    F .text	0000000f nan_sm_handle_event
4012f8ac g     F .text	000001d4 mbedtls_rsa_validate_params
40162a5c g     F .text	00000027 set_chanfreq_nomac
4017153c g     F .text	00000014 tls_connection_handshake
40176de8 g     F .text	00000166 omac1_aes_vector
40145390 g     F .text	000000a0 ieee80211_ampdu_age_all
4014a05c g     F .text	0000005b wifi_ipc_process
400eff30 g     F .text	00000000 I2C_EXT0
4016c57c g     F .text	00000031 wDev_Get_Next_TBTT
3ffb1858 g     O .data	00000004 g_wifi_event_mask
401525d4 g     F .text	000000d2 ieee80211_search_node
4010215c g     F .text	00000087 mbedtls_ssl_recv_flight_completed
40149d78 g     F .text	0000005d wifi_set_chan_range
4015441c g     F .text	00000036 ieee80211_regdomain_get_country
3ffb257c g     O .data	00000038 wDevCtrl
40080c38 g     F .rwtext	0000002d __level_7_interrupt
40163c30 g     F .text	0000008f i2cmst_reg_init
4012a3d4 g     F .text	00000019 psa_driver_wrapper_hash_abort
4016c54c g     F .text	0000000d wDev_Set_Beacon_Int
4017163c g     F .text	00000014 tls_connection_set_session_ticket_cb
40127d14 g     F .text	00000038 psa_wipe_key_slot
4008d3f0 g     F .rwtext.wifi	00000078 ppRegressAmpdu
40103950 g     F .text	000000a0 mbedtls_ssl_send_alert_message
401804f0 g     F .text	0000001a eap_peer_tls_reauth_init
401244a4 g     F .text	0000035f mbedtls_nist_kw_wrap
40185848 g     F .text	00000086 wpabuf_resize
3ff80000 g       *ABS*	00000000 _rtc_dummy_end
401180ec g     F .text	0000005e mbedtls_asn1_get_bool
400809a8 g     F .rwtext	00000000 __default_naked_level_4_interrupt
40151e94  w    F .text	00000316 ieee80211_assoc_resp_construct
4012b78c g     F .text	00000018 psa_initialize_key_slots
40139300 g     F .text	0000098d mbedtls_aria_setkey_enc
401521b8 g     F .text	00000312 ieee80211_auth_construct
40123580 g     F .text	00000023 mbedtls_md_hmac_update
4008a6a4 g     F .rwtext.wifi	0000001b bb_wdt_timeout_clear
4015d7fc g     F .text	0000001e cnx_update_bss
4018a998 g     F .text	00000012 psa_validate_key_location
4015b9a4 g     F .text	0000001f cnx_sta_connect_led_timer_cb
401411c4 g     F .text	00000178 wifi_mode_set
40087c04 g     F .rwtext.wifi	000002ae pm_update_next_tbtt
40137e50 g     F .text	0000003e mbedtls_aes_xts_setkey_dec
40155cfc g     F .text	0000005b clear_bss_queue
40134d20 g     F .text	00000073 mbedtls_debug_print_msg
4016734c g     F .text	00000014 ic_register_pm_tx_null_cb
400f68c4 g     F .text	0000002d esp_wifi_free_internal_heap
40150f84 g     F .text	00000135 ieee80211_send_setup
3ffce753 g     O .bss	00000001 lr_enable
40168a50 g     F .text	00000035 pm_send_probe_start
4017dc9c g     F .text	0000003e eap_get_phase2_type
4018bc58 g     F .text	0000005b rsn_cipher_put_suites
40187910 g     F .text	00000039 challenge_hash
40180584 g     F .text	000000f1 eap_peer_select_phase2_methods
400eff30 g     F .text	00000000 TIMER2
40150434 g     F .text	00000064 ieee80211_adjust_2nd_chan
400845b4 g     F .rwtext.wifi	00000014 wdev_mac_special_reg_store
4018b324 g     F .text	000000ca phy_rfcal_data_check
40149908 g     F .text	00000024 wifi_hmac_init
40150278 g     F .text	00000038 wifi_nvs_commit
401055a8 g     F .text	0000007b mbedtls_ssl_get_output_max_frag_len
4015b4a0 g     F .text	00000030 chm_end_op
4008be7c g     F .rwtext.wifi	0000000d hal_mac_interrupt_get_event
40161a1c g     F .text	00000022 ram_bb_bss_bw_40_en
401612f0 g     F .text	000000c5 set_channel_rfpll_freq
4018a7d8 g     F .text	0000001a mbedtls_pk_can_do
40136028 g     F .text	00000086 mbedtls_ssl_named_group_to_str
3ff80000 g       *ABS*	00000000 _rtc_fast_bss_end
4018b3f8 g     F .text	00000005 pm_force_scan_unlock
4013f9ac g     F .text	00000021 wifi_api_unlock
401832d8 g     F .text	0000001e eap_fast_put_tlv_buf
4014ebf8 g     F .text	0000000f nan_dw_end_process
40169e2c g     F .text	000001c6 pm_stop
4013d578 g     F .text	0000002c mbedtls_chachapoly_init
4000cd4c g     F *ABS*	00000092 .hidden __moddi3
4014f30c g     F .text	0000024c nan_sd_receive_ctrl
40170fe4 g     F .text	0000000a wps_get_wps_sm_cb
40176f6c g     F .text	00000018 omac1_aes_128
400f6700 g     F .text	00000038 strnlen
40163dd0 g     F .text	000002f7 phy_rfcal_data_check_value
3ffb2274 g     O .data	00000060 g_pp_timer_info
4014f650 g     F .text	0000008a nan_sdf_txcb
4016cc94 g     F .text	00000100 wDev_IndicateCtrlFrame
4018a808 g     F .text	0000001a mbedtls_pk_get_bitlen
400f69c0 g     F .text	0000002f fclose
3ffce745 g     O .bss	00000001 phy_sw_set_chan_en
4014ac14 g     F .text	000000c8 is_esp_mesh_assoc
40184f54 g     F .text	0000004e wpa_sm_set_ap_rsnxe
401675b4 g     F .text	00000008 ic_reset_tbtt
401712dc g     F .text	00000042 tls_init
400eff30 g     F .text	00000000 TIMER1
4018a20c g     F .text	000000ad mbedtls_mpi_cmp_mpi
40159eac g     F .text	00000010 esp_wifi_ap_get_prof_authmode_internal
400881d8 g     F .rwtext.wifi	00000096 i2c_bt_filter_set
40170f34 g     F .text	0000000a wpa_sm_free_eapol
401734d8 g     F .text	00000047 tlsv1_client_send_alert
4016d300 g     F .text	0000006c hal_agreement_del_rx_ba
4015c6f8 g     F .text	0000005f cnx_clear_blacklist
4016731c g     F .text	0000000c ic_register_pp_tx_done_cb
3ffb25c4 g     O .data.wifi	00000004 g_intr_lock_mux
3ffb1d7c g     O .data	00000001 wifi_txband_ht40
4011dd28 g     F .text	00000012 mbedtls_ecdh_init
40106038 g     F .text	0000003d mbedtls_ssl_get_psa_curve_info_from_tls_id
3ffd0024 g     O .bss	00000001 he_dcm_max_constellation_tx
4014ccf0 g     F .text	0000013d nan_dp_parse_availability
4018b6f8 g     F .text	00000005 supplicant_sta_disconn_handler
4014bc20 g     F .text	00000030 nan_sched_avail_entries_len
4000c7e8 g     F *ABS*	0000002f .hidden __clzsi2
40167278 g     F .text	00000011 ic_tx_pkt
40159fe8 g     F .text	00000016 esp_wifi_sta_disable_sae_pk_internal
4016a298 g     F .text	00000016 pm_coex_reconnect_policy
40084720 g     F .rwtext.wifi	0000002c hal_mac_tx_config_timeout
4015c580 g     F .text	0000002c cnx_check_bssid_in_blacklist
3ffb255c g     O .data	0000001c trc_ctl
40170ff0 g     F .text	0000000a hostapd_get_hapd_data
40177134 g     F .text	000000ac crypto_cipher_init
40080000 g       *ABS*	00000000 _init_start
4015c934 g     F .text	00000039 cnx_rc_search
3ffce530 g     O .bss	00000001 g_beacon_idx
40150f4c g     F .text	00000025 ieee80211_output_init
4015cfdc g     F .text	00000220 cnx_sta_connect_cmd
401139b4 g     F .text	000000c7 mbedtls_ssl_reset_transcript_for_hrr
4008bf8c g     F .rwtext.wifi	00000062 ieee80211_align_eb
3ffb1d5c g     O .data	00000004 tx_rf_ana_gain
40167844 g     F .text	0000000a ic_get_pp_hdl
40154024 g     F .text	000000c9 pwrsave_flushq
4015cea4 g     F .text	00000052 cnx_start_handoff_cb
400f69f0 g     F .text	00000094 strdup
40185b78 g     F .text	00000079 asn1_parse_oid
401788bc g     F .text	000010eb SHA1Transform
40183d0c g     F .text	00000277 wpa_supplicant_process_1_of_4
4000c804 g       *ABS*	00000000 __ffssi2
4015ba90 g     F .text	0000000e cnx_connect_timeout
40118e08 g     F .text	00000106 mbedtls_mpi_sub_abs
4018b6c8 g     F .text	00000016 wpa_ap_get_peer_spp_msg
40176f50 g     F .text	00000019 omac1_aes_128_vector
40164414 g     F .text	0000003d phy_set_most_tpw
40183af8 g     F .text	00000103 wpa_supplicant_send_2_of_4
4018338c g     F .text	0000001d eap_fast_derive_eap_msk
400f6738 g     F .text	0000006e sleep
4016e828 g     F .text	00000050 hal_mac_get_txq_pmd
40161bb4 g     F .text	0000015b ram_gen_rx_gain_table
4017875c g     F .text	00000031 md5_vector
4011e480 g     F .text	00000128 mbedtls_ecp_point_read_binary
3ffce55c g     O .bss	00000004 g_wifi_global_lock
4000c938 g     F *ABS*	00000066 .hidden __floatunsidf
4013f9d0 g     F .text	00000023 wifi_init_completed
40123330 g     F .text	0000006e mbedtls_md_starts
4013f178 g     F .text	0000000f mbedtls_poly1305_init
4016b044 g     F .text	0000000a ppGetTaskHdl
400eff30 g     F .text	00000000 I2C_EXT1
400898b0 g     F .rwtext.wifi	000000d8 ram_chip_i2c_readReg
40139184 g     F .text	0000009a mbedtls_aes_crypt_cfb128
4000c8b0 g     F *ABS*	00000092 .hidden __floatundisf
4000178c g       *ABS*	00000000 open
401527e4 g     F .text	00000060 ieee80211_amsdu_encap_check
40150c98 g     F .text	00000081 ieee80211_empty_txq
4016c62c g     F .text	000000fb wdev_csi_rx_process
40170d94 g     F .text	0000001a esp_supplicant_deinit
40105668 g     F .text	000000c2 mbedtls_ssl_get_max_out_record_payload
40105fb0 g     F .text	0000005b mbedtls_ssl_check_curve
40159f80 g     F .text	0000001b esp_wifi_sta_get_rsnxe
40128478 g     F .text	00000034 psa_hash_finish
3ffd1340 g     O .bss	0000005e chip7_phy_init_ctrl
40002c98 g       *ABS*	00000000 __addvsi3
40084854 g     F .rwtext.wifi	00000023 hal_mac_is_low_rate_enabled
4016c730 g     F .text	00000070 wdev_set_promis_misc_pkt
401707fc g     F .text	0000003e esp_eap_client_set_password
4008ccd4 g     F .rwtext.wifi	0000004d ppRecycleRxPkt
40127c88 g     F .text	0000008b psa_import_key_into_slot
4000244c g     F *ABS*	00000031 .hidden __fixsfdi
4016d044 g     F .text	00000082 wDev_Insert_KeyEntry
4008cb18 g     F .rwtext.wifi	000001a8 pm_tx_data_process
400824f8 g     F .rwtext.wifi	0000004d cnx_node_is_existing
4016d888 g     F .text	0000003c hal_crypto_disable
4016b1d0 g     F .text	00000049 RC_GetCtsTime
401233a0 g     F .text	00000054 mbedtls_md_update
40113310 g     F .text	000003c7 mbedtls_ssl_tls13_write_certificate_verify
40171af0 g     F .text	00000008 tlsv1_client_global_deinit
40186f30 g     F .text	00000018 bignum_mul
40126298 g     F .text	0000015b mbedtls_pk_parse_subpubkey
4016556c g     F .text	00000679 pbus_rx_dco_cal_1step
4008a84c g     F .rwtext.wifi	00000072 phy_close_rf
400017f4 g       *ABS*	00000000 sbrk
400024ac g     F *ABS*	00000059 .hidden __fixunssfsi
3ffb1ea4 g     O .data	00000004 pTxRx
4010a9f4 g     F .text	000024cf mbedtls_ssl_handshake_server_step
40187c50 g     F .text	0000002c new_password_encrypted_with_old_nt_password_hash
401002b4 g     F .text	00000000 __pre_init
40150c70 g     F .text	00000024 ieee80211_recycle_cache_eb
401678e4 g     F .text	0000000a ic_txq_empty
4013a688 g     F .text	00000013 mbedtls_aria_free
40181cd4 g     F .text	0000002d eap_fast_get_pac
3ff80000 g       *ABS*	00000000 _rtc_fast_persistent_end
4015f228 g     F .text	00000083 ccmp_encap
401189bc g     F .text	00000035 mbedtls_mpi_read_binary_le
4018b708 g     F .text	00000005 esp_set_assoc_ie
40002e78 g       *ABS*	00000000 __negvsi2
4012ad34 g     F .text	00000061 mbedtls_psa_hash_compute
400eff30 g     F .text	00000000 TG1_T1_LEVEL
4016d6b8 g     F .text	00000017 hal_crypto_is_key_valid
4018b774 g     F .text	00000011 tlsv1_client_established
40089ebc g     F .rwtext.wifi	0000006f i2c_write_master
400632c8 g     F *ABS*	00000031 .hidden __mulsf3
40149cd4 g     F .text	00000042 wifi_connect_process
40183bfc g     F .text	0000006c wpa_supplicant_pairwise_gtk
401672b8 g     F .text	0000000e ic_ebuf_recycle_rx
4011defc g     F .text	000000a3 mbedtls_ecdh_get_params
4013d990 g     F .text	00000062 mbedtls_cipher_cmac_starts
4011ca84 g     F .text	0000032d mbedtls_des_crypt_ecb
40154200 g     F .text	0000003a ieee80211_wme_updateparams
40105324 g     F .text	000001be mbedtls_ssl_cipher_to_psa
3ffcef48 g     O .bss	000002a8 g_ic
4015c274 g     F .text	0000000e cnx_auth_timeout
4000c674 g       *ABS*	00000000 strstr
4012dfc4 g     F .text	000000ac mbedtls_rsa_export
4014a9b4 g     F .text	0000001e wifi_on_coex_start_process
40154678 g     F .text	00000026 ieee80211_regdomain_max_chan
40183fd4 g     F .text	00000076 wpa_sm_notify_assoc
40125aa4 g     F .text	0000001e mbedtls_pk_free
40184f34 g     F .text	0000001f wpa_sta_clear_curr_pmksa
40167100 g     F .text	00000028 ic_disable_crypto
40113d40 g     F .text	000001b8 mbedtls_x509_get_rsassa_pss_params
4016a3f8 g     F .text	00000049 ppRegisterTxCallback
3ffd13a0 g     O .bss	00000010 phy_rxbb_dc
40187854 g     F .text	000000bb aes_ccm_ad
3ffd13b0 g     O .bss	00000004 adc_ana_conf_org
4015df34 g     F .text	00000090 cnx_beacon_timeout_process
40146c14 g     F .text	000005d2 ieee80211_parse_beacon
40185c6c g     F .text	00000042 asn1_bit_string_to_long
40154c20 g     F .text	0000000f scan_set_pas_duration
4014d058 g     F .text	0000007f nan_parse_ndp_confirm
4012fa80 g     F .text	00000133 mbedtls_rsa_validate_crt
401650c4 g     F .text	00000097 ram_iq_est_enable
4016159c g     F .text	000002a3 ram_set_pbus_mem
4015d204 g     F .text	0000007c cnx_connect_timeout_process
40180678 g     F .text	00000047 eap_peer_tls_phase2_nak
40086f8c g     F .rwtext.wifi	0000001e ppEnqueueRxq
3ffb1d55 g     O .data	00000001 phy_wifi_pll_track_en
4017d1c8 g     F .text	00000032 wpa_compare_rsn_ie
4008b860 g     F .rwtext.wifi	0000000f lmacProcessCollisions
4012e104 g     F .text	00000028 mbedtls_rsa_set_padding
3ffb1d24 g     O .data	00000018 tkip
4018a624 g     F .text	00000010 mbedtls_ct_size_mask_ge
4017c2a0 g     F .text	00000038 hostap_eapol_resend_process
4013f188 g     F .text	00000012 mbedtls_poly1305_free
4015ab70 g     F .text	00000010 esp_wifi_set_wpa2_ent_state_internal
40171454 g     F .text	00000028 tls_connection_export_key
4008b7c8 g     F .rwtext.wifi	00000018 wifi_11g_rate_chg
401714d4 g     F .text	00000066 tls_connection_handshake2
40154a54 g     F .text	000000a3 ieee80211_scan_attach
401314ec g     F .text	00000091 mbedtls_sha1_update
401546b8 g     F .text	0000001c ieee80211_regdomain_min_chan
4018c0d0 g     F .text	00000055 cipher_type_map_public_to_supp
40184108 g     F .text	000000a8 wpa_set_passphrase
401877a8 g     F .text	000000a9 aes_ccm_ae
4012ea6c g     F .text	00000198 mbedtls_rsa_rsaes_oaep_decrypt
401717dc g     F .text	000001c0 tlsv1_client_handshake
4011af00 g     F .text	00000034 mbedtls_cipher_info_from_values
4014d11c g     F .text	00000138 nan_rx_naf
4017e000 g     F .text	000001a7 eap_peer_config_init
40167954 g     F .text	0000001d lmacIsLongFrame
3ffcea4c g     O .bss	00000004 g_wdev_csi_rx
4018be3c g     F .text	00000046 eap_hdr_len_valid
4015e4b4  w    F .text	000001e0 cnx_node_leave
40116100 g     F .text	00000051 mbedtls_x509_get_key_usage
4011855c g     F .text	00000051 mbedtls_mpi_grow
40159f48 g     F .text	00000038 esp_wifi_get_config_sae_pwe_h2e_internal
401687ac g     F .text	00000013 pm_noise_check_enable
4015a140 g     F .text	00000016 esp_wifi_sta_set_reset_param_internal
400eff30 g     F .text	00000000 level5_interrupt
4017a1dc g     F .text	0000002b sha384_done
4018bab8 g     F .text	00000007 crypto_global_init
3ffcebc0 g     O .bss	00000004 g_wpa_private_key_passwd_len
401142f0 g     F .text	00000071 mbedtls_x509_get_sig_alg
4017ba1c g     F .text	00000036 wpa_remove_ptk
40153b34 g     F .text	0000005d ieee80211_phy_mode_show
40159e10 g     F .text	00000023 wifi_sta_connect_internal_process
40189cac g     F .text	00000013 mbedtls_ssl_dtls_replay_reset
40170ce8 g     F .text	00000008 wpa_neg_complete
40080280 g     F .vectors	00000000 _Level6InterruptVector
3ffb1d54 g     O .data	00000001 dreg_1p2_set
40083338 g     F .rwtext.wifi	0000005b ppCalFrameTimes
4011c2f0 g     F .text	00000024 mbedtls_ctr_drbg_init
3f424fe4 g     O .rodata	0000000c mbedtls_sha512_info
4013ecf8 g     F .text	0000026c mbedtls_pkcs5_pbes2
40138420 g     F .text	000005bb mbedtls_internal_aes_decrypt
4016e918 g     F .text	00000059 hal_mac_rate_autoack_init
4012a518 g     F .text	0000011b mbedtls_psa_ecp_load_representation
40119228 g     F .text	000005dd mbedtls_mpi_div_mpi
40132ec0 g     F .text	00000013 mbedtls_sha512_free
40085f24 g     F .rwtext.wifi	0000004a sta_reset_beacon_timeout
4008c078 g     F .rwtext.wifi	00000178 ieee80211_output_do
40137c38 g     F .text	000001d9 mbedtls_aes_setkey_dec
40167578 g     F .text	0000000b ic_del_rx_ba
40167f44 g     F .text	0000017f lmacProcessLongRetryFail
4014abe4 g     F .text	00000021 config_get_wifi_task_stack_size
4015a004 g     F .text	00000037 esp_wifi_enable_sae_pk_only_mode_internal
4018afc4  w    F .text	00000007 adc2_wifi_acquire
4000c864 g     F *ABS*	0000005b .hidden __floatunsisf
40163400 g     F .text	000000b8 bb_init
401221e8 g     F .text	00000152 mbedtls_gcm_starts
40186eec g     F .text	00000011 bignum_cmp
3ffd13b4 g     O .bss	00000001 set_most_tpw
4017d248 g     F .text	0000017b wpa_pmk_to_ptk
401671b8 g     F .text	00000050 ic_get_key
40154bf8 g     F .text	00000013 scan_hidden_ssid
40110620 g     F .text	00000494 mbedtls_ssl_tls13_write_client_hello_exts
4012e99c g     F .text	000000d0 mbedtls_rsa_pkcs1_encrypt
40145550 g     F .text	00000035 ieee80211_ht_node_cleanup
4014603c g     F .text	0000003c ieee80211_add_htinfo
400f1770 g     F .text	00000100 __assert_func
4014ae24 g     F .text	00000011 nan_action_frames_queued
400eff30 g     F .text	00000000 TG0_LACT_EDGE
401041cc g     F .text	00000033 mbedtls_ssl_transform_free
40167584 g     F .text	00000014 ic_reset_rx_ba
4016e53c g     F .text	00000088 mac_tx_set_plcp1
4010572c g     F .text	000000f5 mbedtls_ssl_handshake_step
40002e98 g       *ABS*	00000000 __negvdi2
4000c7d0 g     F *ABS*	00000031 .hidden __umodsi3
4013b93c g     F .text	00000098 mbedtls_camellia_setkey_dec
40153cd8 g     F .text	000000a0 ieee80211_phy_init
4016b1b8 g     F .text	00000017 RC_GetAckTime
40107914 g     F .text	00000188 mbedtls_ssl_write_finished
4016a024 g     F .text	00000115 pm_attach
4016e5d8 g     F .text	0000006a mac_tx_set_plcp2
401800a0 g     F .text	000000ab eap_peer_tls_derive_session_id
40169a4c g     F .text	00000012 pm_send_sleep_null_cb
4005cfec g       *ABS*	00000000 crc32_le
3ffb231c g     O .data	00000060 rcP2P11GSchedTbl
4011d9cc g     F .text	0000002f mbedtls_dhm_read_public
4015c2c4 g     F .text	000000d4 cnx_csa_fn_process
4012a494 g     F .text	0000001f psa_driver_wrapper_mac_sign_finish
400887b4 g     F .rwtext.wifi	0000008a set_chan_rxcomp
40167304 g     F .text	0000000c ic_register_timer_post_cb
4018a134 g     F .text	00000023 mbedtls_ssl_conf_has_static_psk
40002d20 g       *ABS*	00000000 __subvdi3
401054e4 g     F .text	0000004f mbedtls_ssl_conf_dh_param_bin
400f140c g     F .text	00000037 mbedtls_platform_zeroize
4018b11c  w    F .text	00000058 ieee80211_is_bufferable_mmpdu
40101864 g     F .text	0000013c mbedtls_ssl_flush_output
401835c0 g     F .text	000000d7 pmksa_cache_add
4016ba7c g     F .text	00000008 rc_get_G6M_sched
401677cc g     F .text	0000001b ic_disable_rx
400880d0 g     F .rwtext.wifi	00000106 bb_bss_cbw40_ana
4013c538 g     F .text	0000001c mbedtls_ccm_free
4015ab80 g     F .text	0000000e esp_wifi_sta_pmf_enabled
4016d8d8 g     F .text	000000a0 mac_tx_set_plcp0
4018b1c8 g     F .text	00000024 scan_check_hidden
40142300 g     F .text	0000001e ap_rx_cb
40175178 g     F .text	00000013 x509_name_string
4018b400 g     F .text	00000023 getle32
4018afa4 g     F .text	00000018 ieee80211_is_lr_only
40088000 g     F .rwtext.wifi	0000001a wdev_csi_len_align
40100324 g     F .text	00000027 default_mem_hook
400eff30 g     F .text	00000000 UHCI1
40085eac g     F .rwtext.wifi	00000078 wifi_rf_phy_disable
40187ca0 g     F .text	0000003b old_nt_password_hash_encrypted_with_new_nt_password_hash
40108158 g     F .text	00000099 mbedtls_ssl_write_alpn_ext
4011014c g     F .text	000002c4 mbedtls_ssl_tls13_write_identities_of_pre_shared_key_ext
401507a4 g     F .text	0000001d wifi_nvs_validate_ap_num
4015b530 g     F .text	00000035 chm_acquire_lock
4013f8b8 g     F .text	0000006f esp_wifi_set_inactive_time_local
40150dac g     F .text	00000089 ieee80211_copy_eb_header
4014aa50 g     F .text	0000017e ieee80211_ioctl
40084948 g     F .rwtext.wifi	00000017 trc_tid_isTxAmpduOperational
4015c398 g     F .text	00000108 cnx_validate_owe_bss
40083854 g     F .rwtext.wifi	0000012d ppProcessTxQ
40127d4c g     F .text	00000079 psa_destroy_key
4016b050 g     F .text	00000012 dbg_lmac_ps_statis_reset
4014f014 g     F .text	0000005f nan_insert_peer_svc_record
400808b4 g     F .rwtext	00000000 __naked_double_exception
40161534 g     F .text	0000001f chip_v7_set_chan_ana
40106f40 g     F .text	000001b4 mbedtls_ssl_write_certificate
40153aac g     F .text	0000000a ieee80211_phy_deinit
40151490 g     F .text	0000001e ieee80211_add_assoc_resp_ies
400f4278 g     F .text	00000035 ets_timer_arm
4017c2d8 g     F .text	00000032 wpa_deinit
4016b118 g     F .text	0000000f pp_timer_register_post_cb
40170a50 g     F .text	00000024 wpa_deattach
40063c90 g       *ABS*	00000000 __muldc3
401713a4 g     F .text	00000010 tls_connection_shutdown
40145df0 g     F .text	0000008c ieee80211_setup_basic_htrates
40170728 g     F .text	00000011 esp_eap_client_clear_ca_cert
4008b880 g     F .rwtext.wifi	0000000f lmacPostTxComplete
401687c4 g     F .text	00000037 pm_enable_sleep_delay_timer
40140d8c g     F .text	000000a8 wifi_create_nan
4008801c g     F .rwtext.wifi	00000020 wDev_DiscardFrame
40088cd0 g     F .rwtext.wifi	00000107 bb_reg_init
4018592c g     F .text	0000001c wpabuf_free
4017de48 g     F .text	0000005f eap_sm_build_identity_resp
4014018c g     F .text	0000002a esp_wifi_get_mode
40146838 g     F .text	000000dc ieee80211_setup_rates
4012b550 g     F .text	000000c8 mbedtls_psa_rsa_export_public_key
40160958 g     F .text	000000e2 bt_i2c_set_wifi_data
4016c460 g     F .text	000000c8 rc_enable_trc
4011e344 g     F .text	0000002a mbedtls_ecp_set_zero
40154730 g     F .text	00000010 ieee80211_rfid_locp_recv_reset
4018c16c g     F .text	00000005 asn1_unexpected
40136724 g     F .text	000000e3 mbedtls_ssl_tls13_derive_application_secrets
4018b798 g     F .text	0000001e tlsv1_client_get_keyblock_size
4015dbac g     F .text	0000037f cnx_update_bss_more
3ffcf654 g     O .bss	000004c4 s_sd
40149fbc g     F .text	0000000b wifi_wps_is_started
401799a8 g     F .text	00000024 SHA1Init
400eff30 g     F .text	00000000 UHCI0
4012a438 g     F .text	0000003b psa_driver_wrapper_mac_sign_setup
40136a64 g     F .text	000001b7 mbedtls_ssl_tls13_create_psk_binder
4000c53c g       *ABS*	00000000 strchr
400855cc g     F .rwtext.wifi	0000001c pm_on_data_rx
3ffcfb18 g     O .bss	00000504 s_wifi_nvs
3ffd1278 g     O .bss	00000014 sta_con_timer
4017a8f8 g     F .text	000000fd eloop_register_timeout
4008a798 g     F .rwtext.wifi	00000039 phy_wifi_enable_set
4013df84 g     F .text	0000013a mbedtls_ecdsa_sign_det_restartable
4015fe88 g     F .text	0000002f i2c_bias_init
40122da0 g     F .text	0000025c mbedtls_gcm_finish
40104164 g     F .text	00000068 mbedtls_ssl_close_notify
4015a728 g     F .text	00000150 esp_wifi_set_ap_key_internal
40002504 g     F *ABS*	0000007a .hidden __fixunssfdi
40167b28 g     F .text	000000c7 lmacDiscardMSDU
4014bbb8 g     F .text	00000066 nan_sched_reset_avail_flags_sdf
4014d32c g     F .text	00000068 nan_dp_deinit
40160f00 g     F .text	000000d4 write_wifi_chan_data
4017731c g     F .text	0000015b crypto_cipher_decrypt
4012e1a8 g     F .text	0000008c mbedtls_rsa_check_pub_priv
401187cc g     F .text	0000009f mbedtls_mpi_set_bit
401832b0 g     F .text	00000026 eap_fast_put_tlv_hdr
3ffb25d4 g     O .data.wifi	00000080 eb_txdesc_space
400eff30 g     F .text	00000000 RTC_CORE
40104a8c g     F .text	00000063 mbedtls_ssl_print_ticket_flags
3f41bef4 g     O .rodata	00000298 mbedtls_cipher_definitions
40181dec g     F .text	00000296 eap_fast_load_pac
40113af8 g     F .text	00000109 mbedtls_ssl_tls13_generate_and_write_ecdh_key_exchange
40142a80 g     F .text	00000086 ap_sa_query_timeout_process
401640d4 g     F .text	00000076 reset_rf_dig
3ffd17ac g       *ABS*	00000000 _bss_end
40083204 g     F .rwtext.wifi	00000124 ppProcTxSecFrame
4018b564 g     F .text	00000011 trc_calc_duration
4016a9f4 g     F .text	0000015d pp_create_task
4008a678 g     F .rwtext.wifi	0000002a bb_wdt_int_enable
40149a04 g     F .text	00000022 wifi_deinit
4017d13c g     F .text	00000036 wpa_use_aes_key_wrap
40080a98 g     F .rwtext	00000000 __default_naked_level_7_interrupt
40084884 g     F .rwtext.wifi	00000033 hal_mac_deinit
40121eb8 g     F .text	0000032d mbedtls_gcm_setkey
401672c8 g     F .text	0000000e esp_wifi_internal_free_rx_buffer
40104bec g     F .text	00000174 mbedtls_ssl_setup
401230fc g     F .text	0000001b mbedtls_gcm_free
4016a708 g     F .text	000000f2 ppFillAMPDUBar
3f429bb8 g     O .rodata	00000006 NAN_STANDARD_BSSID
4018afdc g     F .text	00000056 nan_dp_alloc_ndp
50000000 g       *ABS*	00000000 _rtc_slow_data_end
4008d33c g     F .rwtext.wifi	00000049 ppDirectRecycleAmpdu
4008acdc g     F .rwtext.wifi	00000132 get_rate_fcc_index
4012e234 g     F .text	000000c9 mbedtls_rsa_public
40168954 g     F .text	00000031 pm_disconnected_wake
40084aa0 g     F .rwtext.wifi	00000089 ampdu_dispatch_all
40186de0 g     F .text	0000001e bignum_get_unsigned_bin_len
40167784 g     F .text	0000002c ic_clear_interrupt_handler
401549d8 g     F .text	00000024 ieee80211_scan_deattach
3ffcf268 g     O .bss	00000068 g_wifi_menuconfig
4018b424 g     F .text	00000020 putle32
4016be60 g     F .text	000001f2 rcUpdateRate
400020e8 g     F *ABS*	00000031 .hidden __addsf3
3ffce742 g     O .bss	00000002 rfpll_offset_delta
4014c0d0 g     F .text	00000084 nan_dp_alloc_ndl
40170ffc g     F .text	000001c9 hostap_init
4008943c g     F .rwtext.wifi	00000025 ram_tx_pwctrl_bg_init
3ff80000 g       *ABS*	00000000 _rtc_fast_data_end
4016c814 g     F .text	00000088 wdev_process_misc_pkt
4013c0f8 g     F .text	000002ad mbedtls_camellia_crypt_cbc
4012a35c g     F .text	00000019 psa_driver_wrapper_hash_compute
4011d708 g     F .text	0000011f mbedtls_dhm_read_params
40150758 g     F .text	0000004b wifi_nvs_validate_ap_chan
40140150 g     F .text	0000003c esp_wifi_set_mode
400833a8 g     F .rwtext.wifi	000001db ppTxPkt
40167880 g     F .text	0000000b ic_set_sta_auth_flag
40153a74 g     F .text	00000037 ieee80211_pm_tx_null_process
40183768 g     F .text	0000006f pmksa_cache_set_current
4015d8cc g     F .text	0000011c mgd_probe_send_timeout_process
40082e00 g     F .rwtext.wifi	00000023 ppResumeTxAMPDU
4013ced0 g     F .text	00000079 mbedtls_chacha20_starts
40113c04 g     F .text	000000c8 mbedtls_ssl_tls13_check_received_extension
40170fb0 g     F .text	00000031 esp_supplicant_common_init
4015fa1c g     F .text	00000010 phy_change_channel_nomac
40147318 g     F .text	00000025 ieee80211_better_rsn_pairwise_cipher
4016db6c g     F .text	0000005e mac_rxbuf_init
40113830 g     F .text	000000b9 mbedtls_ssl_tls13_write_finished_message
40168708 g     F .text	00000022 pm_is_sleeping
400f7d78 g     F .text	00000060 misc_nvs_deinit
401405e4 g     F .text	000000ae esp_wifi_vnd_lora_enable
40089ab4 g     F .rwtext.wifi	00000087 wifi_track_pll_cap
400eff30 g     F .text	00000000 GPIO_NMI
4017143c g     F .text	00000016 tls_connection_get_random
4016c1c8 g     F .text	0000001e rc_disable_trc_by_interface
401706d0 g     F .text	00000039 esp_eap_client_clear_certificate_and_key
4015ab1c g     F .text	00000052 esp_wifi_sta_wpa2_ent_disable_internal
4016a1cc g     F .text	0000009c pm_set_sleep_type
4008c8a4 g     F .rwtext.wifi	000000ea lmacProcessTxSuccess
4016762c g     F .text	000000a8 ic_set_trc
4016fdcc g     F .text	00000065 os_mktime
4015ac88 g     F .text	0000001a ieee80211w_get_active_igtk_key_id
3ffb2578 g     O .data	00000004 BcnInterval
4018afbc g     F .text	00000007 ieee80211_setup_rateset
40118214 g     F .text	0000004f mbedtls_asn1_get_mpi
400eff30 g     F .text	00000000 TWAI0
40175f1c g     F .text	00000123 x509_certificate_chain_validate
4012ee14 g     F .text	000000df mbedtls_rsa_rsassa_pkcs1_v15_sign
4016eb44 g     F .text	0000002b hal_sniffer_rx_clr_statistics
3ffce630 g     O .bss	00000004 s_netstack_free
4012a3f0 g     F .text	00000045 psa_driver_wrapper_mac_compute
40164c78 g     F .text	000000d0 ram_txiq_get_mis_pwr
4011f920 g     F .text	0000013c mbedtls_ecp_read_key
4017c724 g     F .text	00000048 wpa_add_kde
40118c18 g     F .text	00000029 mbedtls_mpi_cmp_int
4014e380 g     F .text	00000126 nan_master_event_hdlr
40125290 g     F .text	0000008e mbedtls_oid_get_md_hmac
4018a614 g     F .text	0000000e mbedtls_ct_mpi_uint_mask
4016d78c g     F .text	00000035 hal_crypto_init
401573a8 g     F .text	0000000d wifi_sta_reg_rxcb
4011c9ac g     F .text	00000021 mbedtls_des3_set2key_dec
40117978 g     F .text	00000087 mbedtls_x509_crt_free
4015a484 g     F .text	00000014 ieee80211_sta_is_connected
4008803c g     F .rwtext.wifi	00000029 pp_hdrsize
401678cc g     F .text	00000016 ic_stop_sw_txq
4017cc24 g     F .text	00000025 ap_get_sta
40183360 g     F .text	0000002c eap_fast_derive_key
4011c0bc g     F .text	00000067 mbedtls_mpi_safe_cond_assign
400eff30 g     F .text	00000000 TG1_T1_EDGE
401283c4 g     F .text	0000001e psa_hash_abort
400860f4 g     F .rwtext.wifi	00000054 pm_sleep_for
3ffce752 g     O .bss	00000001 corr_cca_thr
4017cc4c g     F .text	00000077 ap_free_sta
40154488 g     F .text	00000160 ieee80211_regdomain_update
4015a044 g     F .text	00000046 esp_wifi_sta_disable_owe_trans_internal
4017605c g     F .text	0000001a x509_certificate_self_signed
400eff30 g     F .text	00000000 SDIO_HOST
4018799c g     F .text	0000004a challenge_response
4017dd60 g     F .text	0000001b eap_peer_method_alloc
400879cc g     F .rwtext.wifi	00000010 hal_mac_rx_is_dscr_reload
40086e28 g     F .rwtext.wifi	00000020 pm_coex_schm_overall_period_get
401715e8 g     F .text	0000001a tls_get_version
4013a9d8 g     F .text	00000086 mbedtls_aria_crypt_ctr
40142d04 g     F .text	00000fae hostap_recv_mgmt
40187a54 g     F .text	0000007d generate_authenticator_response_pwhash
401019a0 g     F .text	0000001c mbedtls_ssl_flight_free
4018b9c8 g     F .text	000000a9 rc4_skip
401409b8 g     F .text	00000049 esp_mesh_get_running_active_duty_cycle
4017518c g     F .text	000000f3 x509_parse_time
3ffd17ac g       *ABS*	00000000 _stack_end_cpu0
40085f78 g     F .rwtext.wifi	00000138 esf_buf_alloc
400819d8 g     F .rwtext	00000000 __exception
40154c98 g     F .text	0000002d scan_remove_probe_ssid
401675bc g     F .text	0000000d ic_del_key_all
40147cd0 g     F .text	00000027 ieee80211_is_ht_cipher
4016fe34 g     F .text	00000020 os_memdup
4014ec6c g     F .text	00000013 nan_ndc_start_process
4018bcb4 g     F .text	0000005a wpa_cipher_put_suites
40137970 g     F .text	00000013 mbedtls_aes_free
4011b040 g     F .text	000000b6 mbedtls_cipher_set_iv
40189ba8 g     F .text	00000035 printf
4017ec40 g     F .text	0000003b eap_peer_mschapv2_register
4014ae70 g     F .text	00000013 nan_disc_enable_rx
40170cf0 g     F .text	000000a3 esp_supplicant_init
40171278 g     F .text	00000063 esp_send_assoc_resp
4017d1fc g     F .text	0000004a rsn_pmkid
40125b08 g     F .text	00000050 mbedtls_pk_verify_restartable
4012fbb4 g     F .text	00000011 mbedtls_sha1_init
3ffce63e g     O .bss	00000002 scannum
4010600c g     F .text	0000002a mbedtls_ssl_get_tls_id_from_ecp_group_id
40136168 g     F .text	00000017 mbedtls_ssl_states_str
4016dfa0 g     F .text	00000059 hal_deinit
400eff30 g     F .text	00000000 RSA
4016e000 g     F .text	00000066 hal_mac_set_addr
40174f34 g     F .text	00000244 x509_parse_name
400885d4 g     F .rwtext.wifi	000001ce ram_spur_coef_cfg
4008a1d8 g     F .rwtext.wifi	0000005d enable_wifi_agc
4015026c g     F .text	0000000a wifi_nvs_get
4015fc8c g     F .text	00000096 ram_rfpll_set_freq
4015a304 g     F .text	0000002c ieee80211_get_spp
40153d78 g     F .text	00000019 ieee80211_psq_init
3ffb1d56 g     O .data	00000001 phy_bt_pll_track_en
401841d8 g     F .text	00000062 wpa_sm_set_key
3ffcebcc g     O .bss	00000004 g_wpa_private_key
3ffcea50 g     O .bss	00000004 g_wdev_is_nan_pkt_in_valid_slot_cb
3ffce755 g     O .bss	00000001 re_entry
4018aa0c g     F .text	0000001b mbedtls_asn1_write_tag
4014734c g     F .text	000000b6 ieee80211_amsdu_negotiate
4000c830 g     F *ABS*	00000035 .hidden __ashrdi3
40186fb8 g     F .text	000000a9 pkcs1_encrypt
400847e4 g     F .rwtext.wifi	0000004f hal_mac_tx_get_blockack
4016fee4 g     F .text	00000036 esp_wifi_sta_enterprise_disable
4011c854 g     F .text	00000011 mbedtls_des_setkey_enc
4017ab40 g     F .text	0000005a eloop_destroy
40157440 g     F .text	0000009c ieee80211_parse_wmeparams
4010182c g     F .text	00000037 mbedtls_ssl_resend
40105824 g     F .text	00000077 mbedtls_ssl_handshake
4014a438 g     F .text	00000477 wifi_set_config_process
40136c1c g     F .text	00000172 mbedtls_ssl_tls13_populate_transform
4015a6f4 g     F .text	00000028 wifi_init_key
400f68f4 g     F .text	0000004f fwrite
4016b900 g     F .text	00000072 rcTxUpdatePer
4008a180 g     F .rwtext.wifi	00000056 disable_wifi_agc
40173574 g     F .text	0000001e tls_server_key_exchange_allowed
40129974 g     F .text	00000042 mbedtls_psa_get_random
401138ec g     F .text	0000007b mbedtls_ssl_tls13_handshake_wrapup
40168ec4 g     F .text	00000238 pm_set_next_tbtt
4015b238 g     F .text	00000030 ieee80211_register_hostap_timer
4018ae58 g     F .text	00000005 ieee80211_crypto_attach
4015b40c g     F .text	00000050 chm_mhz2num
40134de0 g     F .text	000001a8 mbedtls_debug_print_buf
40121ea4 g     F .text	00000012 mbedtls_gcm_init
40159148 g     F .text	0000006a sta_sa_query_process_timeout
401472f0 g     F .text	00000026 ieee80211_rsn_cipher_priority
40138a04 g     F .text	000002a8 mbedtls_aes_crypt_cbc
401510c8 g     F .text	00000152 ieee80211_tx_mgt_cb
401002dc g     F .text	00000045 Reset
4018b64c g     F .text	0000002c wDev_RxSecError
4015baa0 g     F .text	0000000e cnx_handshake_timeout
40153774 g     F .text	000001ee ieee80211_beacon_alloc
40105f90 g     F .text	0000001f mbedtls_ssl_sig_from_pk_alg
4008ce44 g     F .rwtext.wifi	00000142 ppProcTxDone
40154ce8 g     F .text	000001a9 scan_prefer_chan
401354fc g     F .text	000007a0 mbedtls_ssl_write_client_hello
40102920 g     F .text	00000e54 mbedtls_ssl_read_record
40141afc  w    F .text	00000049 ieee80211_free_beacon_eb
40002cbc g       *ABS*	00000000 __addvdi3
40151238 g     F .text	00000166 ieee80211_classify
40125b58 g     F .text	00000050 mbedtls_pk_verify
40189c60 g     F .text	0000004a mbedtls_ssl_update_out_pointers
4012a3b4 g     F .text	0000001f psa_driver_wrapper_hash_finish
400f45ac g     F .text	00000150 ets_timer_setfn
401408e4 g     F .text	0000004a esp_wifi_set_inactive_time
40082c80 g     F .rwtext.wifi	00000068 ppProcTxCallback
3ffce75d g     O .bss	00000001 phy_set_most_tpw_disbg
4012a9b8 g     F .text	00000140 mbedtls_psa_key_agreement_ecdh
40161088 g     F .text	0000007e rf_init
401363c4 g     F .text	000000da mbedtls_ssl_tls13_derive_secret
4013ccb8 g     F .text	00000039 mbedtls_ccm_encrypt_and_tag
401681e0 g     F .text	000000b4 lmacProcessAckTimeout
3ffce760 g     O .bss	00000001 sw_scan_mode
4014b3fc g     F .text	00000127 nan_alloc_sdf
401679c4 g     F .text	0000003d lmacInitAc
3ffb1b14 g     O .data	00000004 g_scan
40179b24 g     F .text	000000d7 pbkdf2_sha1
4018794c g     F .text	00000034 nt_password_hash
4014f0bc g     F .text	0000002f nan_send_replied_event
401726a4 g     F .text	00000506 tlsv1_client_process_handshake
4016bb18 g     F .text	0000013c rssi_margin
3ffce708 g     O .bss	00000001 g_rssi_threshold_failure
4016fdb4 g     F .text	00000016 bin_clear_free
40152740 g     F .text	000000a3 ieee80211_amsdu_send_check
40145b5c g     F .text	00000031 ieee80211_ht_updatehtcap
40084980 g     F .rwtext.wifi	0000001e wdev_bank_load
40125adc g     F .text	0000002b mbedtls_pk_setup
4012aaf8 g     F .text	00000054 mbedtls_psa_hash_abort
400020c0 g       *ABS*	00000000 __negsf2
3ffce746 g     O .bss	00000001 phy_force_wifi_chan_en
4016521c g     F .text	000002eb ram_pbus_rx_dco_cal
400f5b28 g     F .text	00000097 esp_fill_random
40136808 g     F .text	00000136 mbedtls_ssl_tls13_calculate_verify_data
400eff30 g     F .text	00000000 SPI2_DMA
40064b08 g     F *ABS*	00000060 .hidden __bswapdi2
4018828c g     F .text	000000aa sha1_t_prf
4016e1e0 g     F .text	000000ba hal_init
400853f0 g     F .rwtext.wifi	000000ef esf_buf_recycle
3ffb0000 g       *ABS*	00000000 _sidata
3ffce73e g     O .bss	00000001 btpwr_atten_offset
4014ec1c g     F .text	00000013 nan_send_sync_bcn_process
4017199c g     F .text	0000002a tlsv1_client_encrypt
40160168 g     F .text	00000096 write_freq_mem_all
40151730 g     F .text	00000217 ieee80211_mgmt_output
4018af5c g     F .text	00000048 ieee80211_is_support_rate
4015e9b0 g     F .text	000000c8 cnx_start_obss_scan
4015f96c g     F .text	0000003f ieee80211_getmgtframe
4018ae0c g     F .text	0000004a ieee80211_is_robust_mgmt_frm
40144bc8 g     F .text	00000033 ampdu_free_rx_ba_index
40106144 g     F .text	000000eb mbedtls_ssl_get_handshake_transcript
4016ed24 g     F .text	000000ad temprature_sens_read
40167804 g     F .text	0000000d ic_set_bssid
4008bc70 g     F .rwtext.wifi	00000182 wDev_ProcessFiq
40102644 g     F .text	00000039 mbedtls_ssl_write_version
40166f18 g     F .text	00000015 esf_buf_setdown
4008bea0 g     F .rwtext.wifi	0000001b hal_mac_interrupt_clr_watchdog
3ffd14b8 g     O .bss	00000011 phy_chan_pwr_index
400eff30 g     F .text	00000000 UART1
40167374 g     F .text	00000014 ic_register_timer_cb
40082e28 g     F .rwtext.wifi	00000023 ppCalSubFrameLength
40081964 g     F .rwtext	00000071 rtc_get_xtal
4017dd8c g     F .text	0000004a eap_peer_method_register
4016620c g     F .text	00000055 ram_meas_tone_pwr_db
4012536c g     F .text	000000c8 mbedtls_oid_get_numeric_string
3f4257b8 g     O .rodata	00000030 mbedtls_eckey_info
4016938c g     F .text	00000010 pm_coex_schm_process_restart
40080958 g     F .rwtext	00000000 __naked_level_3_interrupt
4015b918 g     F .text	0000003e chm_start_op
40166e34 g     F .text	0000004a esf_buf_setup_static
4015783c g     F .text	00000082 wifi_station_stop
4017083c g     F .text	0000001b esp_eap_client_clear_password
40185bf4 g     F .text	0000002e asn1_get_oid
4016112c g     F .text	000001b3 set_chan_freq_sw_start
4017a688 g     F .text	0000010a sha512_done
400eff30 g     F .text	00000000 UART0
4014ec98 g     F .text	00000012 nan_sm_deinit
4018a1bc g     F .text	0000000f mbedtls_mpi_init
40169920 g     F .text	000000d0 pm_coex_tbtt_process
4018168c g     F .text	0000005c eap_peer_ttls_register
4014ad70 g     F .text	0000000b nan_get_random_byte
400015d4 g       *ABS*	00000000 strncpy
400eff30 g     F .text	00000000 PCNT
40159ea0 g     F .text	0000000c esp_wifi_sta_get_prof_ssid_internal
3ffb2418 g     O .data	00000078 rcP2P11NSchedTbl
40145ec0 g     F .text	00000034 ieee80211_add_htcap_vendor
4016b57c g     F .text	00000294 rcUpdatePhyMode
401752d4 g     F .text	0000098f x509_certificate_parse
400849ac g     F .rwtext.wifi	0000005c ampdu_dispatch
401824cc g     F .text	000000b9 eap_fast_save_pac_bin
4008a8c4 g     F .rwtext.wifi	00000046 get_target_power_offset
400638e4 g     F *ABS*	00000035 .hidden __powidf2
4011898c g     F .text	0000002d mbedtls_mpi_add_int
3f400120 g       *ABS*	00000000 _rodata_start
40080a98 g     F .rwtext	00000000 __naked_level_7_interrupt
400eff30 g     F .text	00000000 TG0_T0_EDGE
4016a880 g     F .text	00000126 ppReSendBar
3f41b454 g     O .rodata	00000010 mbedtls_x509_crt_profile_default
4008a788 g     F .rwtext.wifi	00000010 bt_tx_gain_cal_set
40147d84 g     F .text	000000b2 ieee80211_parse_action
40149d20 g     F .text	00000055 wifi_disconnect_process
4008127c g     F .rwtext	00000173 __level_1_interrupt
4013f364 g     F .text	0000015d mbedtls_poly1305_finish
3ffd27ac g       *ABS*	00000000 __stack_chk_guard
4012e12c g     F .text	00000079 mbedtls_rsa_check_pubkey
4017a8b0 g     F .text	00000048 eloop_init
40080908 g     F .rwtext	00000000 __default_naked_level_2_interrupt
4014ec08 g     F .text	00000013 nan_send_disc_bcn_process
40063868 g       *ABS*	00000000 __absvsi2
4014a01c g     F .text	0000003c wifi_wpa2_ent_disable_process
40101dd8 g     F .text	00000381 mbedtls_ssl_write_record
40149a38 g     F .text	00000105 wifi_init_process
400895a8 g     F .rwtext.wifi	0000001a get_i2c_read_mask
4015e354 g     F .text	0000014e cnx_sta_associated
4015ce64 g     F .text	00000038 cnx_connect_next_ap
4015aa54 g     F .text	00000052 esp_wifi_set_appie_internal
4017e1a8 g     F .text	00000047 eap_peer_config_deinit
3ffb2538 g     O .data	00000018 rcLoRaSchedTbl
40155758 g     F .text	00000556 scan_profile_check
4016c55c g     F .text	0000000a wDev_Reset_TBTT
4015dfc4 g     F .text	000000c6 ic_set_sta
401688e0 g     F .text	0000004d pm_send_nullfunc
3ffd13b8 g     O .bss	0000000f chip7_phy_api_ctrl
401572a8 g     F .text	000000af sta_eapol_txdone_cb
40156130 g     F .text	0000001c scan_enter_oper_channel_process
4012363c g     F .text	00000011 mbedtls_md5_init
401498f4 g     F .text	0000000c wifi_crypto_init
4014b228 g     F .text	00000082 nan_transmit_bcn
4017dea8 g     F .text	00000155 eap_sm_build_nak
3ffce74c g     O .bss	00000004 g_phyFuns
40082f44 g     F .rwtext.wifi	00000108 ppSearchTxframe
40163ab0 g     F .text	00000176 rf_cal_data_backup
4018b6f0 g     F .text	00000005 supplicant_sta_conn_handler
40153668 g     F .text	000000f4 ieee80211_send_deauth_no_bss
3ffb25bc g       *ABS*	00000000 _data_end
401777b0 g     F .text	00000039 crypto_hash_update
401514b0 g     F .text	0000001e ieee80211_add_assoc_req_ies
4008245c g     F .rwtext.wifi	0000001a chm_is_at_home_channel
4015c1ac g     F .text	00000066 cnx_obss_scan
4011f8d4 g     F .text	0000004c mbedtls_ecp_gen_key
4018a964 g     F .text	0000000c psa_driver_wrapper_get_key_buffer_size_from_key_data
401678ac g     F .text	0000000f ic_trc_update_ifx_phy_mode
4014f1c0 g     F .text	00000078 nan_send_solicited_publish
4014c2c0 g     F .text	00000051 nan_dp_confirm_peer
3ffce768 g     O .bss	00000002 phy_tx_power_out
4013c6ac g     F .text	000000f7 mbedtls_ccm_update_ad
40082bd4 g     F .rwtext.wifi	00000016 pp_process_hmac_waiting_txq
4015a430 g     F .text	0000004e esp_wifi_get_assoc_bssid_internal
40175efc g     F .text	0000001e x509_certificate_check_signature
3ffce524 g     O .bss	00000004 ap_rxcb
4018beb8 g     F .text	00000013 eap_get_type
401625fc g     F .text	000001d7 wr_rx_gain_mem
40132b08 g     F .text	000002c1 mbedtls_sha256_finish
4014b2c8 g     F .text	00000126 nan_alloc_beacon
4018be84 g     F .text	0000001e eap_update_len
40159ecc g     F .text	00000010 esp_wifi_ap_get_prof_pairwise_cipher_internal
40189f44 g     F .text	00000010 mbedtls_ssl_set_outbound_transform
4016a368 g     F .text	0000000f pp_register_config_cb
4015f10c g     F .text	000000ea ieee80211_recv_action_vendor_spec
40173890 g     F .text	000000fd tls_verify_signature
4015c4ac g     F .text	000000b2 cnx_bss_init
4016836c g     F .text	00000094 lmacProcessTxError
4014ec44 g     F .text	00000013 nan_faw_start_process
40170a74 g     F .text	0000003e wpa_parse_wpa_ie_wrapper
4015fbc4 g     F .text	0000005e ram_restart_cal
400eff30 g     F .text	00000000 TG1_WDT_LEVEL
40116bbc g     F .text	00000429 mbedtls_x509_crt_info
4017e4bc g     F .text	00000090 eap_msg_alloc
400eff30 g     F .text	00000000 EFUSE
40136180 g     F .text	0000016f mbedtls_ssl_tls13_hkdf_expand_label
3ffcec18 g     O .bss	0000032c gWpaSm
4012b0f0 g     F .text	00000026 mbedtls_psa_mac_sign_finish
4008c32c g     F .rwtext.wifi	00000188 sta_rx_eapol
40150b2c g     F .text	00000047 wifi_nvs_deinit
40100324 g     F .text	00000000 __zero_bss
40134f88 g     F .text	00000125 mbedtls_debug_print_mpi
40086a0c g     F .rwtext.wifi	00000046 pm_beacon_monitor_timeout_process
4012b4ac g     F .text	000000a2 mbedtls_psa_rsa_export_key
4018a644 g     F .text	00000021 mbedtls_ct_mpi_uint_lt
40140868 g     F .text	00000033 esp_wifi_internal_on_coex_schm_phase
4015febc g     F .text	0000006f rfpll_1p2_opt
401870e4 g     F .text	00000162 pkcs8_key_import
4018b4cc g     F .text	00000005 dbg_lmac_init
40113f78 g     F .text	00000132 mbedtls_x509_get_name
400f114c g     F .text	000000ce _embassy_time_schedule_wake
401737f8 g     F .text	00000097 tls_key_x_server_params_hash
40178790 g     F .text	0000010b hmac_md5_vector
4015b568 g     F .text	0000000d chm_get_current_channel
400eff30 g     F .text	00000000 RWBLE
4011a74c g     F .text	00000016 mbedtls_mpi_core_cond_assign
40151a04 g     F .text	00000478 ieee80211_assoc_req_construct
4016fb0c g     F .text	00000026 hexstr2bin
3ffb1861 g     O .data	00000001 g_phy_cap_rx_stbc
40168738 g     F .text	00000060 pm_allow_tx
401666d0 g     F .text	000000d3 cal_rf_ana_gain
4008cd24 g     F .rwtext.wifi	0000005b pp_coex_tx_release
4018b444 g     F .text	00000050 ppCheckIsConnTraffic
40125960 g     F .text	00000026 mbedtls_pem_free
4012f370 g     F .text	0000005e mbedtls_rsa_free
3ffce628 g     O .bss	00000004 s_netstack_ref
4015a204 g     F .text	0000000e esp_wifi_sta_get_pairwise_cipher_internal
400eff30 g     F .text	00000000 WIFI_NMI
4015a3c0 g     F .text	00000022 esp_wifi_unregister_wpa2_cb_internal
4013f93c g     F .text	0000000a wifi_get_init_state
401002b4 g     F .text	00000000 __post_init
4013dcd8 g     F .text	00000215 mbedtls_ecdsa_sign_restartable
3ffce757 g     O .bss	00000001 phy_init_flag
40149bc4 g     F .text	00000106 wifi_stop_process
40187248 g     F .text	0000009f pkcs8_enc_key_import
3ffce741 g     O .bss	00000001 btpwr_tsen_init
40183328 g     F .text	00000037 eap_fast_derive_master_secret
40128a38 g     F .text	000000d3 psa_key_derivation_abort
4015fa50 g     F .text	000000ca ram_pbus_force_mode
4018b700 g     F .text	00000005 esp_set_scan_ie
4015b95c g     F .text	00000045 chm_return_home_channel
4014b734  w    F .text	000000b4 nan_start
40185254 g     F .text	0000002f wpa_sm_deinit
4008a0c0 g     F .rwtext.wifi	00000059 ram_write_gain_mem
4015c2a4 g     F .text	00000013 wl_clear_ap_no_lr
4015c224 g     F .text	0000004d cnx_obss_scan_timeout
400819e8 g     F .rwtext	00000000 NMI
40086404 g     F .rwtext.wifi	00000095 pm_get_tbtt_count
40168798 g     F .text	00000013 pm_noise_check_disable
3ffcebac g     O .bss	00000004 g_wpa_new_password
4012adf8 g     F .text	00000017 mbedtls_psa_mac_sign_setup
4008a298 g     F .rwtext.wifi	000000f6 wr_bt_tx_gain_mem
3f41b417 g     O .rodata	00000020 mbedtls_ssl_tls13_hello_retry_request_magic
4015a2ac g     F .text	0000003d ieee80211_set_gtk
40164984 g     F .text	000001af ram_txdc_cal_v70
4015aef0  w    F .text	0000002a ieee80211_ap_sa_query_timeout
3ffd15d0 g     O .bss	000001d0 g_pm
40088854 g     F .rwtext.wifi	000000a6 tx_delay_cfg
4018a0f8 g     F .text	00000008 mbedtls_ssl_conf_authmode
4018a794 g     F .text	00000016 mbedtls_md_get_size
400846a4 g     F .rwtext.wifi	00000078 wdev_mac_sleep
4013d5e8 g     F .text	000000b9 mbedtls_chachapoly_update
401672d8 g     F .text	00000015 ic_register_tx_cb
4011af34 g     F .text	00000011 mbedtls_cipher_init
400828b8 g     F .rwtext.wifi	00000014 lmacDiscardAgedMSDU
4000c818 g     F *ABS*	00000035 .hidden __ashldi3
40002ef8 g       *ABS*	00000000 __popcountdi2
40080a48 g     F .rwtext	00000000 __default_naked_level_6_interrupt
3ffcebb8 g     O .bss	00000004 g_wpa_ca_cert_len
3ffd13c8 g     O .bss	000000c4 chip7_sleep_params
4014ebe8 g     F .text	0000000f nan_dw_start_process
40159fa4 g     F .text	00000042 esp_wifi_sta_disable_wpa2_authmode_internal
4011d9a4 g     F .text	00000025 mbedtls_dhm_set_group
40157508 g     F .text	0000021c sta_rx_csa
4018a9f0 g     F .text	0000001c mbedtls_ssl_ciphersuite_uses_psk
400808b4 g     F .rwtext	00000000 __default_naked_double_exception
4012f75c g     F .text	000000c4 mbedtls_rsa_deduce_private_exponent
401545e8 g     F .text	00000012 ieee80211_regdomain_update_in_scan
40080840 g     F .rwtext	00000000 __naked_kernel_exception
4016c910 g     F .text	00000031 wdev_set_promis_ctrl_pkt
3ffe0000 g       *ABS*	00000000 _stack_start
40139220 g     F .text	00000057 mbedtls_aes_crypt_ofb
401565c4 g     F .text	00000080 scan_validate_owe_scenarios
4017dd7c g     F .text	0000000e eap_peer_method_free
4014c158 g     F .text	000000e7 nan_dp_delete_peer
4015c0d8 g     F .text	0000005c _cnx_start_connect_without_scan
4018c06c g     F .text	00000062 cipher_type_map_supp_to_public
40169bac g     F .text	0000005a pm_disconnected_start
4015a08c g     F .text	0000001c esp_wifi_ap_is_sta_sae_reauth_node
40118aec g     F .text	00000015 mbedtls_mpi_write_binary_le
4017064c g     F .text	0000003a esp_wifi_sta_enterprise_enable
401821a8 g     F .text	00000042 eap_fast_pac_list_truncate
4015fd2c g     F .text	0000005c get_lna_vga_dcap_val
40105f68 g     F .text	00000028 mbedtls_ssl_sig_from_pk
4015ca18 g     F .text	0000008a cnx_add_rc
40087f78 g     F .rwtext.wifi	00000082 pp_timer_do_process
4011e2e4 g     F .text	00000031 mbedtls_ecp_keypair_free
40171eb8 g     F .text	00000010 tlsv1_client_set_flags
3ffb1e48 g     O .data	00000030 lmacConfMib
40150aa8 g     F .text	0000000d wifi_nvs_get_sta_listen_interval
4014d400 g     F .text	0000005a nan_dp_indicate_faw_start
401422f0 g     F .text	0000000d wifi_ap_reg_rxcb
40123254 g     F .text	000000dc mbedtls_md_setup
40187328 g     F .text	0000000c crypto_rsa_get_modulus_len
4014cbb8 g     F .text	0000002c nan_dp_parse_ndca
40164554 g     F .text	00000056 phy_enable_low_rate
3ffd0144 g     O .bss	00000010 app_scan_params
4015396c g     F .text	00000107 ieee80211_encap_null_data
4015a2ec g     F .text	00000018 ieee80211_get_ptk
401786e4 g     F .text	00000076 MD5Final
4017167c g     F .text	00000024 tls_derive_pre_master_secret
40170ccc g     F .text	00000019 wpa_config_assoc_ie
40168990 g     F .text	0000007e pm_disconnected_sleep
50000000 g       *ABS*	00000000 _rtc_slow_bss_end
4015aebc  w    F .text	0000002a ieee80211_ap_try_sa_query
4013e408 g     F .text	0000009d mbedtls_ecdsa_read_signature_restartable
4018aef8 g     F .text	00000021 addba_timeout_process
40158878 g     F .text	0000017b sta_auth_sae
4015a500 g     F .text	00000174 wifi_set_rx_policy
40080908 g     F .rwtext	00000000 __naked_level_2_interrupt
4016515c g     F .text	00000034 ram_iq_est_disable
4008bf2c g     F .rwtext.wifi	0000005e ieee80211_alloc_tx_buf
4018a118 g     F .text	0000000d mbedtls_ssl_set_bio
3ffb1862 g     O .data	00000001 g_mesh_self_organized
4015f588 g     F .text	000000e6 ieee80211_ccmp_encrypt
3ffce70a g     O .bss	00000001 g_authmode_incompatible
3ffceba0 g     O .bss	00000004 g_wpa_phase1_options
40152d00 g     F .text	00000188 ieee80211_output_raw_process
4018a89c g     F .text	000000b6 mbedtls_ecc_group_of_psa
4017377c g     F .text	00000030 tls_prf
3ffcef44 g     O .bss	00000004 net80211_funcs
40165bfc g     F .text	0000029a rc_cal
401690fc g     F .text	00000062 pm_mesh_set_next_tbtt
40185c24 g     F .text	00000047 asn1_oid_to_str
400809a8 g     F .rwtext	00000000 __naked_level_4_interrupt
40135490 g     F .text	00000021 mbedtls_ssl_get_ciphersuite_sig_pk_alg
40002b30 g     F *ABS*	00000081 .hidden __fixunsdfsi
40187488 g     F .text	0000008c crypto_rsa_import_public_key
4015bab0 g     F .text	00000010 cnx_csa_fn
4017d55c g     F .text	0000008f ccmp_decrypt
4011715c g     F .text	00000057 mbedtls_x509_crt_check_extended_key_usage
40124f54 g     F .text	0000006b mbedtls_oid_get_pk_alg
401410dc g     F .text	000000d0 wifi_create_sta
40104930 g     F .text	00000015 mbedtls_ssl_get_extension_mask
4013c3a8 g     F .text	000000a5 mbedtls_camellia_crypt_cfb128
4008622c g     F .rwtext.wifi	000001aa pm_parse_beacon
40167360 g     F .text	00000014 ic_register_net80211_tx_cb
40161d3c g     F .text	0000033b set_rx_gain_cal_iq
400f697c g     F .text	00000044 fgets
40164bc4 g     F .text	0000009d ram_get_fm_sar_dout
401618ec g     F .text	0000003e ram_phy_get_noisefloor
40171dec g     F .text	00000086 tlsv1_client_hello_ext
4015a0a8 g     F .text	00000015 esp_wifi_sta_is_ap_notify_completed_rsne_internal
4017cdf4 g     F .text	0000002c wpa_parse_wpa_ie_rsnxe
4013cd84 g     F .text	0000001c mbedtls_chacha20_init
3ffcebdc g     O .bss	00000004 g_wpa_username
4018370c g     F .text	00000059 pmksa_cache_get_opportunistic
4018bde8 g     F .text	00000008 eap_get_config
4012e0f0 g     F .text	00000012 mbedtls_rsa_init
4015796c g     F .text	0000000e sta_is_wifi_ent_enabled
4018bb90 g     F .text	00000022 wpa_cipher_valid_mgmt_group
4011648c g     F .text	0000017e mbedtls_x509_info_key_usage
40150b80 g     F .text	00000069 wifi_nvs_init
40153e08  w    F .text	0000007f ieee80211_set_tim
401471e8 g     F .text	00000104 ieee80211_parse_wpa
4014e330 g     F .text	0000004e nan_schedule_disc_bcn
400802c0 g     F .vectors	00000000 _Level7InterruptVector
4011af7c g     F .text	0000003f mbedtls_cipher_setup
4008aca8 g     F .rwtext.wifi	0000002a ram_read_sar_dout
40084b30 g     F .rwtext.wifi	000000d3 ampdu_dispatch_upto
4017be8c g     F .text	00000067 wpa_auth_sta_associated
4017624c g     F .text	00000418 aes_decrypt
40103be0 g     F .text	000003d8 mbedtls_ssl_read
4015f3bc g     F .text	000001c5 ieee80211_ccmp_decrypt
40166094 g     F .text	00000178 tx_cap_init
4016e7d0 g     F .text	00000053 hal_mac_clr_txq_state
40146080 g     F .text	00000052 ieee80211_add_htinfo_vendor
40179a40 g     F .text	000000b0 SHA1Final
4014ad64 g     F .text	0000000a nan_get_random_word
4017dbb0 g     F .text	00000083 tls_prf_sha256
400f10e0 g     F .text	0000006a _embassy_time_now
400f8080 g     F .text	00000025 phy_printf
40080c08 g     F .rwtext	0000002d __level_6_interrupt
40081bd4 g     F .rwtext.wifi	00000060 nan_dp_search_node
40107828 g     F .text	000000ec mbedtls_ssl_handshake_wrapup
4018404c g     F .text	00000064 wpa_set_profile
40169a74 g     F .text	00000008 pm_on_coex_schm_process_restart
40106230 g     F .text	000001fd mbedtls_ssl_parse_sig_alg_ext
40008534 g       *ABS*	00000000 ets_delay_us
3ffcea7c g     O .bss	00000004 wifi_funcs
401021e4 g     F .text	000000f3 mbedtls_ssl_buffering_free
40104234 g     F .text	00000037 mbedtls_ssl_handle_pending_alert
4013d848 g     F .text	00000146 mbedtls_chachapoly_auth_decrypt
4000c7b0 g       *ABS*	00000000 __mulsi3
40170f7c g     F .text	00000017 esp_supplicant_unset_all_appie
4000240c g     F *ABS*	0000002f .hidden __fixsfsi
4011aa4c g     F .text	000000e5 mbedtls_mpi_core_montmul
4016d034 g     F .text	0000000d wDev_is_low_rate_enable
3ffcf1f0 g     O .bss	00000074 wpa_crypto_funcs
4011a9c0 g     F .text	00000089 mbedtls_mpi_core_shift_r
401546a0 g     F .text	00000018 ieee80211_regdomain_ap_max_chan
40087a78 g     F .rwtext.wifi	00000126 pm_update_by_connectionless_status
40127978 g     F .text	00000284 mbedtls_to_psa_error
401205e8 g     F .text	00000570 mbedtls_ecp_group_load
4016b488 g     F .text	00000042 rcGetHighestRateIdx
4014ba34 g     F .text	00000066 nan_sched_get_chan_bitmap
4018a954 g     F .text	00000007 psa_driver_wrapper_init
4008bb40 g     F .rwtext.wifi	0000000e wdev_record_rx_linked_list
40159ebc g     F .text	00000010 esp_wifi_ap_get_max_sta_conn
4008a90c g     F .rwtext.wifi	00000034 ram_txbbgain_to_index
40086650 g     F .rwtext.wifi	00000136 pm_dream
400860dc g     F .rwtext.wifi	00000012 pm_is_waked
40166f54 g     F .text	0000017f esf_buf_setup
401493c8 g     F .text	00000028 wifi_stop_sw_txq
40149b40 g     F .text	0000000a wifi_deinit_process
401474d8 g     F .text	000007f8 ieee80211_parse_rsn
4008bb54 g     F .rwtext.wifi	00000065 wdev_push_promis_misc_buf
40148744 g     F .text	00000062 wifi_station_save_ap_channel
3ffceb94 g     O .bss	00000001 g_wpa_default_cert_bundle
4016c5b4 g     F .text	0000006a wdev_csi_hw_bug_check
40140694 g     F .text	00000045 esp_wifi_vnd_lora_disable
3f42b338 g     O .rodata	0000000a rcons
4015b30c g     F .text	000000a0 ieee80211_timer_process
400eff30 g     F .text	00000000 TG0_LACT_LEVEL
4016afdc g     F .text	00000068 pp_stop_sw_txq
4017147c g     F .text	00000058 tls_connection_get_eap_fast_key
4000c7c0 g     F *ABS*	0000003b .hidden __modsi3
3ffce739 g     O .bss	00000001 bt_pwr_freq_old
40080380 g     F .vectors	00000000 _DoubleExceptionVector
4017dc34 g     F .text	0000001d eap_peer_get_eap_method
4008abe0 g     F .rwtext.wifi	00000084 force_txrx_off
40171234 g     F .text	00000041 esp_wifi_build_rsnxe
4012b7a4 g     F .text	0000002e psa_wipe_all_key_slots
40117938 g     F .text	0000002b mbedtls_x509_crt_verify_restartable
401285b4 g     F .text	00000025 psa_mac_compute
40150704 g     F .text	00000054 wifi_nvs_validate_country
40187980 g     F .text	0000001c hash_nt_password_hash
4016ab54 g     F .text	00000036 pp_deattach
3ffb25c8 g     O .data.wifi	00000001 g_mesh_is_root
40150f14 g     F .text	00000029 ieee80211_amsdu_length_check
4017ce20 g     F .text	0000019d wpa_parse_wpa_ie_rsn
4018bc28 g     F .text	0000002e wpa_cipher_valid_pairwise
4016c248 g     F .text	000000d4 trc_init
4018b6c0 g     F .text	00000005 __hide_aliasing_typecast
401709f4 g     F .text	00000021 wpa_attach
401180bc g     F .text	0000002f mbedtls_asn1_get_tag
4016e784 g     F .text	0000003d hal_mac_get_txq_state
40171550 g     F .text	00000037 tls_connection_encrypt
40001778 g       *ABS*	00000000 close
40002f3c g       *ABS*	00000000 __paritysi2
4016ba94 g     F .text	00000080 rcGetAmpduSched
40148440 g     F .text	0000001f current_task_is_wifi_task
401413bc g     F .text	00000099 ieee80211_crypto_decap
4000c1f4 g       *ABS*	00000000 bzero
40166dec g     F .text	00000019 esf_buf_alloc_default_handler
40164b34 g     F .text	0000005b txcal_debuge_mode
40142918 g     F .text	00000160 wifi_softap_stop
401405ac g     F .text	00000037 wifi_mesh_event_post
4008ab78 g     F .rwtext.wifi	00000065 get_phy_target_power
40150e3c g     F .text	000000d7 ieee80211_amsdu_adjust_head
401526ac g     F .text	00000019 ieee80211_output
4011879c g     F .text	00000030 mbedtls_mpi_get_bit
4014cbe8 g     F .text	000000f6 nan_sched_parse_avail_entries
4012fbc8 g     F .text	00000012 mbedtls_sha1_free
4015a0d0 g     F .text	0000000d wifi_sta_get_prof_password
4016c94c g     F .text	00000066 wdev_set_promis
4018ae60 g     F .text	0000002a ieee80211_get_cipher_mic_len
40132eac g     F .text	00000012 mbedtls_sha512_init
4017d174 g     F .text	00000054 wpa_eapol_key_mic
400eff30 g     F .text	00000000 TG0_T1_LEVEL
4017b3cc g     F .text	00000327 __wpa_send_eapol
4008bbc0 g     F .rwtext.wifi	0000007b wdev_process_panic_watchdog
400021d0 g     F *ABS*	00000038 .hidden __subsf3
4012316c g     F .text	00000018 mbedtls_md_info_from_type
3ffce978 g     O .bss	00000004 s_fix_rate_mask
401673a0 g     F .text	0000000a ic_disable_sniffer
40140218 g     F .text	0000016f esp_wifi_stop
4016818c g     F .text	00000044 lmacProcessCollisions_task
40124418 g     F .text	00000011 mbedtls_nist_kw_init
40082cec g     F .rwtext.wifi	00000114 pp_coex_tx_request
3ffce8c0 g     O .bss	000000b4 g_lmac_cnt
4016b500 g     F .text	00000033 rcClearCurAMPDUSched
4013ff80 g     F .text	000000ea esp_wifi_init_internal
401450ec g     F .text	00000012 ieee80211_ampdu_enable
4011c868 g     F .text	000000b1 mbedtls_des_setkey_dec
4015eee8 g     F .text	0000005f ieee80211_send_action_register
4018b494 g     F .text	00000005 ppSetInterface
4014adb4 g     F .text	0000001e nan_is_in_dw
4014b870 g     F .text	0000009c nan_set_config_local
40189f1c g     F .text	00000025 mbedtls_ssl_set_inbound_transform
400645a4 g       *ABS*	00000000 __divdc3
3ff96544 g       *ABS*	00000000 __nsau_data
4013f4c4 g     F .text	00000156 mbedtls_cipher_info_from_psa
4015a224 g     F .text	00000018 ieee80211_get_key
40146678 g     F .text	000001bf ieee80211_decap
40128934 g     F .text	00000023 psa_sign_hash
40125f44 g     F .text	00000022 mbedtls_pk_debug
40087998 g     F .rwtext.wifi	0000001d hal_mac_init
40166dcc g     F .text	00000019 esf_buf_alloc_dynamic_default_handler
401841b0 g     F .text	00000027 set_assoc_ie
4014a0c0 g     F .text	0000017b ieee80211_set_appie
4006340c g     F *ABS*	00000049 .hidden __gesf2
401005b8 g     F .text	00000690 mbedtls_ssl_decrypt_buf
4012ec04 g     F .text	00000085 mbedtls_rsa_pkcs1_decrypt
4008065c g     F .rwtext	00000000 save_context
4011c378 g     F .text	00000013 mbedtls_des3_free
40177e6c g     F .text	0000004e des3_key_setup
4011c38c g     F .text	00000078 mbedtls_des_key_set_parity
401670ec g     F .text	00000014 ic_get_ptk_alg
400f43ec g     F .text	000001c0 ets_timer_done
4018a100 g     F .text	00000009 mbedtls_ssl_conf_rng
4015a23c g     F .text	0000003c ieee80211_set_key
4014c900 g     F .text	000000b5 nan_dp_parse_ndpa
400eff30 g     F .text	00000000 RWBT_NMI
40088274 g     F .rwtext.wifi	000002a7 phy_i2c_init
4012b450 g     F .text	0000005a mbedtls_psa_rsa_import_key
4018be10 g     F .text	00000019 eap_get_config_password2
40085b30 g     F .rwtext.wifi	000002da wDev_IndicateAmpdu
401669d4 g     F .text	000001da bt_tx_pwctrl_init
401506c0 g     F .text	00000041 wifi_nvs_validate_sta_password
3ffb1d7d g     O .data	00000001 wifi_txband
3ffce73f g     O .bss	00000001 btpwr_tsen_flag
40160200 g     F .text	00000036 get_rfrx_dcap_bt
3f42b444 g     O .rodata	00000400 Td0
401775d8 g     F .text	000001d8 crypto_hash_init
4016ff30 g     F .text	00000097 wpa2_post
40154154 g     F .text	00000037 ieee80211_pwrsave_node_cleanup
4018c128 g     F .text	00000016 wpa_supplicant_gtk_tx_bit_workaround
4012e070 g     F .text	0000007f mbedtls_rsa_export_crt
401401bc g     F .text	00000034 esp_wifi_start
4000681c g       *ABS*	00000000 intr_matrix_set
40102680 g     F .text	000001f7 mbedtls_ssl_prepare_handshake_record
401166cc g     F .text	00000019 mbedtls_x509_crt_parse_der_nocopy
4017a9f8 g     F .text	00000058 eloop_cancel_timeout
400eff30 g     F .text	00000000 ETH_MAC
401513f8 g     F .text	00000056 ieee80211_add_xrates
401777ec g     F .text	000001ef crypto_hash_finish
4015d2c4 g     F .text	00000024 cnx_assoc_timeout_process
40170258 g     F .text	00000046 eap_sm_send_eapol
4016e2ac g     F .text	000000be hal_mac_tsf_get_time
400eff30 g     F .text	00000000 TG0_WDT_EDGE
4018a0b4 g     F .text	00000042 mbedtls_ssl_add_hs_msg_to_checksum
4016c3e0 g     F .text	00000075 rc_set_per_conn_fix_rate
4008c1f0 g     F .rwtext.wifi	00000019 esp_wifi_internal_tx
400eff30 g     F .text	00000000 TG0_WDT_LEVEL
40183698 g     F .text	00000035 pmksa_cache_deinit
400637f4 g     F *ABS*	00000069 .hidden __unorddf2
3ffb1a20 g     O .data	000000e6 country_info_24ghz
3ffb1410 g     O .data	00000004 WIFI_EVENT
4016692c g     F .text	00000098 tx_pwctrl_init
40153f7c g     F .text	00000035 ieee80211_psq_is_buff_pkt
400f5a80 g     F .text	000000a6 calloc
40153d98 g     F .text	0000003a ieee80211_gpsq_init
4017e370 g     F .text	0000003a eap_peer_blob_deinit
40117120 g     F .text	00000039 mbedtls_x509_crt_check_key_usage
4018016c g     F .text	0000002c eap_peer_tls_status
4008be00 g     F .rwtext.wifi	00000076 wdev_dump_rx_linked_list
4016eb94 g     F .text	0000001b hal_disable_sta_tsf
40163248 g     F .text	000000d8 txiq_cal_init
3ffce761 g     O .bss	00000001 force_tx_gain_en
401677b0 g     F .text	0000001b ic_enable_rx
4017ac14 g     F .text	0000001b hostapd_config_clear_wpa_psk
4014f174 g     F .text	00000047 nan_send_static_sdfs
401420dc g     F .text	0000009e hostap_deliver_data
4014f6ec g     F .text	000000ce nan_update_static_sdfs
4016ab8c g     F .text	00000062 ppInitTxq
4014bee0 g     F .text	000000c8 nan_dp_alloc_node
40168404 g     F .text	00000018 lmacRxDone
40132dcc g     F .text	000000dd mbedtls_sha256
4018b254 g     F .text	0000001b cnx_rc_update_age
4012518c g     F .text	000000d7 mbedtls_oid_get_md_alg
3ffb1438 g     O .data	00000008 g_wifi_feature_caps
400eff30 g     F .text	00000000 BT_BB_NMI
4016e078 g     F .text	00000093 hal_mac_set_bssid
40172d14 g     F .text	000001df tls_send_client_hello
400eff30 g     F .text	00000000 WIFI_BB
4013e788 g     F .text	000001f6 mbedtls_pkcs12_pbe
4011dd90 g     F .text	00000044 mbedtls_ecdh_free
3f424fc0 g     O .rodata	0000000c mbedtls_sha224_info
4016a6cc g     F .text	00000035 ppDequeueTxQ
4008ce0c g     F .rwtext.wifi	00000025 ppDequeueTxDone_Locked
4016cdc4 g     F .text	0000005d wDev_Rxbuf_Deinit
40088dd8 g     F .rwtext.wifi	0000006a mac_enable_bb
40084918 g     F .rwtext.wifi	0000001c ppSubFromAMPDU
3ffb25bc g     O .data.wifi	00000004 g_wifi_mac_time_delta
401672f0 g     F .text	00000012 ic_register_rx_cb
3ffb1d60 g     O .data	00000001 wifi_bbgain_max
4016aca0 g     F .text	00000077 pp_delete_task
40173dc8 g     F .text	0000012d tlsv1_record_send
4015d730 g     F .text	00000072 cnx_rc_update_state_metric
4012b0a4 g     F .text	0000004b mbedtls_psa_mac_update
4008ac68 g     F .rwtext.wifi	0000003b phy_pwdet_onetime_en
40145114 g     F .text	00000150 ieee80211_ampdu_request
3ffce4dc g     O .bss	00000001 s_wifi_stop_in_progress
3ffce763 g     O .bss	00000001 phy_dis_pwdet_one
3ffcea48 g     O .bss	00000004 g_wdev_csi_rx_ctx
4016b88c g     F .text	0000006e rcUpSched
3f429bc2 g     O .rodata	00000004 NAN_STANDARD_OUI
40119890 g     F .text	000006b1 mbedtls_mpi_exp_mod
40080340 g     F .vectors	00000000 _UserExceptionVector
40127dc8 g     F .text	00000139 psa_get_key_attributes
4006358c g     F *ABS*	00000037 .hidden __muldf3
40118f10 g     F .text	00000015 mbedtls_mpi_add_mpi
4015eea0 g     F .text	00000037 offchan_send_action_tx_status
40180548 g     F .text	0000003b eap_peer_tls_encrypt
4018b800 g     F .text	00000026 tlsv1_client_set_cb
40167814 g     F .text	0000000c ic_set_current_channel
40128088 g     F .text	00000080 psa_export_public_key
4015157c g     F .text	00000034 ieee80211_add_csa
40103774 g     F .text	000001da mbedtls_ssl_handle_message_type
4008a628  w    F .rwtext.wifi	00000029 set_xpd_sar
4016a13c g     F .text	00000085 pm_deattach
4014bc50 g     F .text	000000ac nan_sched_add_entry
40164630 g     F .text	00000321 phy_dig_reg_backup
401677f4 g     F .text	0000000d ic_set_mac
4017b39c g     F .text	00000030 wpa_auth_sta_deinit
4008cf88 g     F .rwtext.wifi	00000087 ppGetTxframe
40189d88 g     F .text	00000133 mbedtls_ssl_dtls_replay_update
40151668 g     F .text	00000018 ieee80211_vnd_lora_ie_size
4013544c g     F .text	0000001c mbedtls_ssl_ciphersuite_from_id
401493a0 g     F .text	00000024 wifi_txq_empty
40180198 g     F .text	000000bb eap_peer_tls_process_init
40089e8c g     F .rwtext.wifi	00000030 get_i2c_write_data
40184ee8 g     F .text	00000026 wpa_sta_in_4way_handshake
40080080 g     F .vectors	00000000 _WindowOverflow8
40089284 g     F .rwtext.wifi	00000057 i2c_master_reset
400eff30 g     F .text	00000000 MCPWM0
40064bec g       *ABS*	00000000 __udiv_w_sdiv
40167604 g     F .text	0000001d ic_ampdu_op
400eff30 g     F .text	00000000 MCPWM2
400eff30 g     F .text	00000000 FROM_CPU_INTR2
40171620 g     F .text	0000001a tls_connection_client_hello_ext
40104200 g     F .text	00000034 mbedtls_ssl_read_version
4012edec g     F .text	00000025 mbedtls_rsa_rsassa_pss_sign
40168800 g     F .text	00000024 pm_disable_disconnected_sleep_delay_timer
400017dc g       *ABS*	00000000 read
4016b4d0 g     F .text	0000002d rcClearCurSched
400eff30 g     F .text	00000000 MCPWM1
40107a9c g     F .text	00000177 mbedtls_ssl_parse_finished
3ffce9d4 g     O .bss	00000004 BcnSendTick
4018392c g     F .text	000000a3 wpa_eapol_key_send
400eff30 g     F .text	00000000 FROM_CPU_INTR1
40080240 g     F .vectors	00000000 _Level5InterruptVector
3ffce63c g     O .bss	00000001 connect_scan_flag
401775ac g     F .text	0000000a crypto_public_key_free
4012b984 g     F .text	00000012 mbedtls_ripemd160_free
4014f558 g     F .text	000000b9 nan_rx_sdf
40080000 g     F .vectors	00000000 _WindowOverflow4
4017faa0 g     F .text	0000005c eap_peer_peap_register
3ffb270c g     O .data.wifi	00000084 s_record_list
4016848c g     F .text	0000003e lmacProcessTxTimeout
40142334 g     F .text	00000155 hostap_auth_open
40101474 g     F .text	0000034a mbedtls_ssl_fetch_input
50000000 g       *ABS*	00000000 _rtc_slow_persistent_end
4017137c g     F .text	00000017 tls_connection_deinit
4017fe7c g     F .text	000001f0 eap_peer_tls_ssl_init
40153fb4  w    F .text	0000006e ieee80211_pwrsave
40153ecc g     F .text	0000004f ieee80211_psq_drop_one_pkt
40171b9c g     F .text	000000b8 tlsv1_client_prf
40167394 g     F .text	0000000a ic_enable_sniffer
401507c4 g     F .text	0000001c wifi_nvs_validate_sta_listen_interval
3f424fa8 g     O .rodata	0000000c mbedtls_ripemd160_info
4011e264 g     F .text	0000007f mbedtls_ecp_group_free
4000c7b8 g     F *ABS*	00000031 .hidden __divsi3
40183c88 g     F .text	0000002a wpa_supplicant_key_neg_complete
4015b484 g     F .text	0000001c chm_release_lock
40159e90 g     F .text	0000000f esp_wifi_ap_get_prof_ap_ssid_internal
4014ecbc g     F .text	00000013 nan_sm_stop
40149404 g     F .text	000000f4 wifi_hw_stop
3ffce618 g     O .bss	00000004 g_mesh_topology
40176040 g     F .text	0000001c x509_certificate_get_subject
400eff30 g     F .text	00000000 CACHE_IA
4015d634 g     F .text	00000088 cnx_remove_rc_except
40153ab8 g     F .text	0000005b ieee80211_phy_type_get
4014ebc8 g     F .text	0000000f nan_warmup_timeout_process
4014d39c g     F .text	00000064 nan_dp_indicate_ndc_start
40081848 g     F .rwtext	0000002a esp_dport_access_reg_read
4015f0ec g     F .text	00000018 get_iav_key
40149fcc g     F .text	0000000b wifi_wpa2_is_started
40115f74 g     F .text	0000014c mbedtls_x509_parse_subject_alt_name
401677e8 g     F .text	0000000a ic_set_beacon_int
4011e700 g     F .text	00000038 mbedtls_ecp_tls_write_group
40186e94 g     F .text	00000056 bignum_set_unsigned_bin
40153dd4 g     F .text	00000033 ieee80211_psq_find_max_bss
40160ab0 g     F .text	00000448 bt_get_i2c_data
4014c574 g     F .text	000002d2 nan_construct_ndp_resp
4018a668 g     F .text	00000025 mbedtls_ct_mpi_uint_cond_assign
4017c30c g     F .text	000000c5 wpa_ap_join
40083f7c g     F .rwtext.wifi	00000097 ppProcessLifeTime
4014aeac g     F .text	00000076 nan_set_trc
4014a8bc g     F .text	000000f6 wifi_ap_remove_sta_node_process
401833ac g     F .text	0000001d eap_fast_derive_eap_emsk
4018b49c g     F .text	0000002d pp_gettid
401837d8 g     F .text	00000022 pmksa_cache_init
401675cc g     F .text	00000020 ic_del_key
400eff30 g     F .text	00000000 MCPWM3
4018a7bc g     F .text	0000000d mbedtls_pem_init
40150ab8 g     F .text	00000072 wifi_nvs_reset_current_ap_info
4012a698 g     F .text	000000b1 mbedtls_psa_ecp_export_key
4013d6a4 g     F .text	0000008b mbedtls_chachapoly_finish
40149fdc g     F .text	0000003c wifi_wpa2_ent_enable_process
4013acbc g     F .text	00000053 mbedtls_asn1_write_octet_string
4017ae94 g     F .text	0000001a resend_eapol_handle
4008d204 g     F .rwtext.wifi	0000008b ppAssembleAMPDU
4011e174 g     F .text	00000018 mbedtls_ecp_curve_info_from_grp_id
4016a354 g     F .text	0000000f pp_register_net80211_tx_cb
4018b7b8 g     F .text	0000003a tlsv1_client_set_cipher_list
4015797c g     F .text	0000000f sta_get_owe_data
401126dc g     F .text	00000070 mbedtls_ssl_tls13_fetch_handshake_msg
4008a398 g     F .rwtext.wifi	000000c6 set_tx_gain_table
3ffcebd4 g     O .bss	00000004 g_wpa_client_cert
4015adb0 g     F .text	0000002e esp_wifi_sta_connect_internal
400eff30 g     F .text	00000000 FROM_CPU_INTR3
40128528 g     F .text	00000089 psa_mac_sign_finish
00000000 g       *ABS*	00000000 RESERVE_DRAM
4012b758 g     F .text	00000032 psa_is_valid_key_id
4017079c g     F .text	00000042 esp_eap_client_set_username
4015db74 g     F .text	00000031 cnx_sta_pm
4016e64c g     F .text	0000012d mac_tx_set_htsig
4015c978 g     F .text	0000009c cnx_do_handoff_internal
4008aee0 g     F .rwtext.wifi	00000059 write_wifi_dig_gain
400eff30 g     F .text	00000000 FROM_CPU_INTR0
4013e5b0 g     F .text	00000050 mbedtls_hmac_drbg_seed_buf
40170bec g     F .text	0000001d wpa_get_key
3ffb26e8 g     O .data.wifi	0000001e pp_sig_cnt
3f426ef8 g     O .rodata	000000ed mbedtls_ssl_tls13_labels
40173ae0 g     F .text	000000ba tlsv1_set_ca_cert
40156348 g     F .text	00000127 scan_start
4018b844 g     F .text	00000014 tls_version_ok
4015a158 g     F .text	0000002b esp_wifi_sta_prof_is_wpa_internal
40154b00 g     F .text	00000060 scan_flush_all_tx_buf
40167974 g     F .text	0000004d lmacSetAcParam
40116aa0 g     F .text	0000011b mbedtls_x509_crt_parse
4016a2b4 g     F .text	00000033 pm_coex_set_reconnect_policy
4014baa4 g     F .text	00000110 nan_sched_allocate_crbs
3ffb2654 g     O .data.wifi	00000004 xphyQueue
40162b68 g     F .text	000002a0 set_rx_sense
4018014c g     F .text	0000001e eap_peer_tls_build_ack
4017a7d4 g     F .text	0000001d os_get_time
400819e8 g     F .rwtext	0000003e __default_user_exception
40103a58 g     F .text	0000012c mbedtls_ssl_parse_change_cipher_spec
40106e80 g     F .text	000000bd mbedtls_ssl_resend_hello_request
401802e8 g     F .text	00000010 eap_peer_tls_reset_output
3ffcebe8 g     O .bss	00000030 assoc_ie_buf
401840b0 g     F .text	00000056 wpa_set_pmk
4018b3f0 g     F .text	00000005 pm_noise_check_process
40085640 g     F .rwtext.wifi	00000402 ppRxFragmentProc
40129a74 g     F .text	000001fd psa_generate_key
4016b3f0 g     F .text	0000005c rcGet11GHighestRateIdx
401143b0 g     F .text	00000169 mbedtls_x509_dn_gets
4016d27c g     F .text	0000007e hal_agreement_clr_rx_ba
40135468 g     F .text	00000027 mbedtls_ssl_get_ciphersuite_name
40166e0c g     F .text	0000001a esf_buf_recycle_default_handler
4008cdb4 g     F .rwtext.wifi	00000057 ppEnqueueTxDone
4011e388 g     F .text	000000f5 mbedtls_ecp_point_write_binary
40174ee4 g     F .text	0000004f x509_parse_algorithm_identifier
4008459c g     F .rwtext.wifi	00000014 wdev_mac_special_reg_load
3ffce61c g     O .bss	00000004 ndp_rxcb
40140480 g     F .text	00000040 esp_wifi_set_ps
4015a188 g     F .text	00000029 esp_wifi_sta_prof_is_wpa2_internal
40140080 g     F .text	000000cc esp_wifi_deinit_internal
4014eb8c g     F .text	0000002b nan_sm_handle_event_internal
40165190 g     F .text	00000076 ram_dc_iq_est
4016cda8 g     F .text	00000016 wDev_isNANPktInValidSlot
4018b034 g     F .text	0000005e nan_dp_construct_device_caps
4015ff30 g     F .text	000000a3 get_rf_freq_cap
3ffceb98 g     O .bss	00000004 g_wpa_pac_file_len
401353f4 g     F .text	00000057 mbedtls_ssl_list_ciphersuites
4008694c g     F .rwtext.wifi	0000003a pm_check_state
4012dd4c g     F .text	000001cf mbedtls_rsa_complete
401857f4 g     F .text	00000016 base64_decode
3ffce756 g     O .bss	00000001 force_hw_set_freq_flag
4017cbac g     F .text	0000005c pmksa_cache_auth_get
40136670 g     F .text	000000b4 mbedtls_ssl_tls13_derive_handshake_secrets
4016953c g     F .text	0000019c pm_tx_null_data_done_process
40154c30 g     F .text	00000066 scan_add_probe_ssid
401460d4 g     F .text	00000021 ht_action_output
3f424fb4 g     O .rodata	0000000c mbedtls_sha1_info
3ffce740 g     O .bss	00000001 btpwr_tsen_old
401425d8 g     F .text	0000033a wifi_softap_start
4012f278 g     F .text	000000a0 mbedtls_rsa_rsassa_pkcs1_v15_verify
4008a948 g     F .rwtext.wifi	00000081 ram_set_chan_cal_interp
4014f0ec g     F .text	0000005c nan_send_receive_event
4011dd3c g     F .text	00000052 mbedtls_ecdh_setup
40171af8 g     F .text	00000051 tlsv1_client_init
40105534 g     F .text	00000071 mbedtls_ssl_set_hostname
40082200 g     F .rwtext.wifi	00000258 ieee80211_output_process
4018a178 g     F .text	00000018 mbedtls_ssl_md_alg_from_hash
40063820 g       *ABS*	00000000 __cmpdi2
4017c76c g     F .text	0000021c wpa_validate_wpa_ie
4018bbfc g     F .text	0000002a wpa_cipher_to_alg
400848d8 g     F .rwtext.wifi	0000001e ieee80211_is_tx_allowed
401319cc g     F .text	00000012 mbedtls_sha256_init
4012f010 g     F .text	0000004e mbedtls_rsa_pkcs1_sign
40168934 g     F .text	0000000b pm_mac_wakeup
40125ac4 g     F .text	00000018 mbedtls_pk_info_from_type
401145ec g     F .text	0000008f mbedtls_x509_sig_alg_gets
401564c4 g     F .text	0000006d scan_parse_ht2040_coex
4014d258 g     F .text	0000002f nan_naf_txcb
400eff30 g     F .text	00000022 EspDefaultHandler
401292f8 g     F .text	00000017 psa_key_derivation_input_bytes
40179e80 g     F .text	00000035 sha256_init
40082e54 g     F .rwtext.wifi	000000ee ppSearchTxQueue
40136e88 g     F .text	0000001d mbedtls_ssl_tls13_export_handshake_psk
401678bc g     F .text	0000000a ic_stop_hw_txq
401664b4 g     F .text	0000020d ram_tx_pwr_backoff
4015b4f0 g     F .text	00000040 chm_cancel_op
401136d8 g     F .text	00000158 mbedtls_ssl_tls13_process_finished_message
40167310 g     F .text	0000000c ic_register_michael_mic_failure_cb
40140ef0 g     F .text	0000006a wifi_destroy_sta
400eff30 g     F .text	00000000 SPI3
40167a0c g     F .text	00000098 lmacInit
40170c0c g     F .text	0000000b wpa_deauthenticate
4017e420 g     F .text	00000099 eap_hdr_validate
400f46fc g     F .text	00000031 ets_timer_arm_us
40186f90 g     F .text	00000026 bignum_exptmod
4012d97c g     F .text	00000091 mbedtls_ripemd160_update
401697b4 g     F .text	00000055 pm_send_probe_stop
4008d508 g     F .rwtext.wifi	00000091 trc_onPPTxDone
400879dc g     F .rwtext.wifi	0000001a hal_mac_rx_set_dscr_reload
4018be2c g     F .text	0000000d eap_get_config_new_password
4018a6c4 g     F .text	00000067 mbedtls_mpi_core_lt_ct
4017cb84 g     F .text	00000028 pmksa_cache_auth_deinit
40160a4c g     F .text	0000005d tsens_read_init
4016980c g     F .text	0000008a pm_on_channel
4011f168 g     F .text	00000021 mbedtls_ecp_mul
4011790c g     F .text	0000002b mbedtls_x509_crt_verify_with_profile
40124cdc g     F .text	00000041 mbedtls_oid_get_attr_short_name
4008b890 g     F .rwtext.wifi	0000004b lmacProcessRxSucData
401288b0 g     F .text	00000083 psa_sign_hash_builtin
40141b88 g     F .text	0000035a ieee80211_hostap_send_beacon_process
40167208 g     F .text	0000006f ic_obtain_key
400eff30 g     F .text	00000000 TG1_LACT_LEVEL
4016949c g     F .text	0000001f pm_disconnected_sleep_delay_timeout_process
4011aed0 g     F .text	0000002f mbedtls_cipher_info_from_type
40189ebc g     F .text	0000005e mbedtls_ssl_reset_in_out_pointers
400eff30 g     F .text	00000000 SPI1
401613d0 g     F .text	000000dd chip_v7_set_chan_nomac
4012b920 g     F .text	0000004e psa_pk_status_to_mbedtls
4012448c g     F .text	00000017 mbedtls_nist_kw_free
400eff30 g     F .text	00000000 RWBLE_NMI
4011814c g     F .text	000000c8 mbedtls_asn1_get_int
400853cc g     F .rwtext.wifi	00000018 sta_rx_cb
3ffce73a g     O .bss	00000001 bt_pwr_cap_sum_old
40171218 g     F .text	00000019 hostap_deinit
4015b4d0 g     F .text	0000001f chm_end_op_timeout_process
401088f8 g     F .text	000018fe mbedtls_ssl_handshake_client_step
3ff80000 g       *ABS*	00000000 _rtc_dummy_start
400eff30 g     F .text	00000000 SPI2
40087970 g     F .rwtext.wifi	0000000d hal_mac_rx_read_rxdscrnext
4011c404 g     F .text	0000044e mbedtls_des_setkey
4011902c g     F .text	0000002b mbedtls_mpi_sub_int
4016f93c g     F .text	000000de sha256_prf_bits
401673d0 g     F .text	0000019b ic_set_vif
40146320 g     F .text	0000006b ieee80211_decap1
400f48e0 g     F .text	0000006a esp_timer_get_time
3ffcebb0 g     O .bss	00000004 g_wpa_password_len
4011da64 g     F .text	00000271 mbedtls_dhm_calc_secret
4014be34 g     F .text	00000057 nan_dp_send_confirm_event
4016c320 g     F .text	00000090 trc_update_ifx_phy_mode
4013e0c0 g     F .text	00000034 mbedtls_ecdsa_sign_det_ext
4016c56c g     F .text	0000000f wDev_reset_bcnSendTick
40156470 g     F .text	0000004c check_bss_queue
4014038c g     F .text	00000044 esp_wifi_connect
401737ac g     F .text	0000004c tlsv12_key_x_server_params_hash
4011a200 g     F .text	00000040 mbedtls_mpi_fill_random
400eff30 g     F .text	00000000 SPI0
40181d04 g     F .text	000000e7 eap_fast_add_pac
4018bb00 g     F .text	00000014 ap_sta_hash_add
40089cc8 g     F .rwtext.wifi	00000062 tsens_code_read
3f429c28 g     O .rodata	00000038 gNanSm
401140ac g     F .text	00000207 mbedtls_x509_get_time
3ffb1b18 g     O .data	0000000c g_dynamic_cs
4014f804 g     F .text	0000004c nan_services_deinit
400809f8 g     F .rwtext	00000000 __default_naked_level_5_interrupt
40162e28 g     F .text	0000015a noise_check_loop
40146bb8 g     F .text	0000003a ieee80211_alloc_challenge
401540f0 g     F .text	00000062 ieee80211_node_pwrsave
40136d90 g     F .text	000000f6 mbedtls_ssl_tls13_key_schedule_stage_early
40002d60 g       *ABS*	00000000 __mulvsi3
4015b578 g     F .text	0000000d chm_get_home_channel
3ffcf430 g     O .bss	00000224 s_dp
4011f18c g     F .text	000000d8 mbedtls_ecp_muladd_restartable
400634a0 g       *ABS*	00000000 __negdf2
40084754 g     F .rwtext.wifi	00000057 hal_mac_tx_config_edca
4013e0f4 g     F .text	000001be mbedtls_ecdsa_verify_restartable
40141894 g     F .text	000000a8 wifi_log
401645ac g     F .text	00000056 phy_disable_low_rate
4011ddd4 g     F .text	00000098 mbedtls_ecdh_make_params
4013ae8c g     F .text	00000012 mbedtls_camellia_init
401634c8 g     F .text	00000215 register_chipv7_phy_init_param
4008117c g     F .rwtext	000000ff __level_2_interrupt
4015d360 g     F .text	000002d0 cnx_bss_alloc
4011a7a4 g     F .text	00000067 mbedtls_mpi_core_read_le
3ffce75a g     O .bss	00000002 target_power_backoff_qdb
401775b8 g     F .text	0000000a crypto_private_key_free
4008d388 g     F .rwtext.wifi	00000068 ppRecycleAmpdu
4017e3ac g     F .text	00000021 eap_sm_abort
40089ba0 g     F .rwtext.wifi	000000c5 btpwr_pll_track
4016a334 g     F .text	0000001a xswap
4014abd0 g     F .text	0000000e config_is_cache_tx_buf_enabled
4014fad4 g     F .text	00000795 wifi_nvs_cfg_init
401707e0 g     F .text	0000001b esp_eap_client_clear_username
4015f868 g     F .text	00000099 tkip_encap
40089b3c g     F .rwtext.wifi	0000001e phy_get_fetx_delay
4015066c g     F .text	0000001a wifi_nvs_validate_ap_ssid
4017a808 g     F .text	0000001f os_sleep
40080040 g     F .vectors	00000000 _WindowUnderflow4
4011274c g     F .text	000003c0 mbedtls_ssl_tls13_process_certificate_verify
4010262c g     F .text	00000018 mbedtls_ssl_finish_handshake_msg
40088b04 g     F .rwtext.wifi	0000017b agc_reg_init
3ffce710 g     O .bss	00000004 g_cnx_probe_rc_list_cb
40157728 g     F .text	0000002a reset_cs_thres
400892f0 g     F .rwtext.wifi	00000050 reg_init_begin
40123184 g     F .text	0000006b mbedtls_md_free
3f42cb50 g       *ABS*	00000000 _rodata_end
4013aea0 g     F .text	00000013 mbedtls_camellia_free
3f4257e8 g     O .rodata	00000030 mbedtls_eckeydh_info
401502cc g     F .text	00000166 wifi_nvs_set
40129820 g     F .text	00000044 psa_key_agreement_raw_builtin
4015fb24 g     F .text	000000a0 ram_pbus_xpd_tx_on
4016ea8c g     F .text	000000b3 hal_sniffer_rx_set_promis
40089104 g     F .rwtext.wifi	0000016b set_chan_reg
4012b9ac g     F .text	00000026 mbedtls_ripemd160_starts
4017ac30 g     F .text	00000013 hostapd_config_free_bss
4014f7f0 g     F .text	00000013 nan_services_init
401680d4 g     F .text	000000b4 lmacProcessCollision
4016c170 g     F .text	00000056 rc_disable_trc
3ffb1e78 g     O .data	0000002c g_pm_cfg
4013abfc g     F .text	00000053 mbedtls_asn1_write_oid
4016fae8 g     F .text	00000023 hex2byte
4018a7f4 g     F .text	00000013 mbedtls_pk_get_type
40154be0 g     F .text	00000015 scan_remove_bssid
40145efc g     F .text	00000135 ieee80211_add_htinfo_body
4008b8dc g     F .rwtext.wifi	00000094 pm_get_null_max_tx_time
40080300 g     F .vectors	00000000 _KernelExceptionVector
400879f8 g     F .rwtext.wifi	00000027 pm_get_connectionless_status
401019bc g     F .text	000002c6 mbedtls_ssl_flight_transmit
4008c690 g     F .rwtext.wifi	0000015a lmacSetTxFrame
401052c8 g     F .text	00000059 mbedtls_ssl_get_mode_from_ciphersuite
401573bc g     F .text	00000032 sta_michael_mic_failure
400840b8 g     F .rwtext.wifi	0000032e rcUpdateTxDoneAmpdu2
4017ddd8 g     F .text	00000025 eap_peer_unregister_methods
4018bdb8 g     F .text	0000000f eap_sm_request_identity
3ffd0154 g     O .bss	00000004 s_eapol_txdone_cb
4013d730 g     F .text	0000002b mbedtls_chachapoly_encrypt_and_tag
40116334 g     F .text	00000156 mbedtls_x509_info_cert_type
4013ab6c g     F .text	0000008f mbedtls_asn1_write_mpi
40123448 g     F .text	00000061 mbedtls_md
4013c554 g     F .text	0000006b mbedtls_ccm_starts
3ffb1ea8 g     O .data	000003cc TxRxCxt
4016bc54 g     F .text	0000004d TRC_PER_IS_GOOD
4017caec g     F .text	00000065 pmksa_cache_free_entry
4000c7d8 g       *ABS*	00000000 __umulsidi3
3ffcebe0 g     O .bss	00000004 g_wpa_anonymous_identity_len
40162a90 g     F .text	00000072 chip_sleep_prot_en
4014ee90 g     F .text	00000155 nan_construct_subscribe_sdf
4012dbcc g     F .text	0000007f mbedtls_ripemd160
40084e90 g     F .rwtext.wifi	0000053b sta_input
00000000 g     O .espressif.metadata	00000007 bootloader.NAME
40149b4c g     F .text	00000073 wifi_start_process
4008b870 g     F .rwtext.wifi	0000000f lmacProcessAllTxTimeout
40088fa4 g     F .rwtext.wifi	0000007a opt_11b_resart
4016d9b4 g     F .text	00000022 hal_mac_tx_set_ppdu
4014efe8 g     F .text	0000002b nan_get_peer_svc_record
40169b98 g     F .text	00000011 pm_on_data_tx_done
40063478 g     F *ABS*	0000003e .hidden __unordsf2
40116a84 g     F .text	00000019 mbedtls_x509_crt_parse_der
4018bf20 g     F .text	00000027 mschapv2_remove_domain
40087a38 g     F .rwtext.wifi	00000028 pm_enable_dream_timer
4018006c g     F .text	00000034 eap_peer_tls_derive_key
40159370 g     F .text	00000a9f sta_recv_mgmt
40116154 g     F .text	000001e0 mbedtls_x509_info_subject_alt_name
3f424f9c g     O .rodata	0000000c mbedtls_md5_info
40082920 g     F .rwtext.wifi	00000292 lmacEndFrameExchangeSequence
40189c44 g     F .text	0000001c vsnprintf
4013ff4c g     F .text	00000020 net80211_funcs_deinit
4013e980 g     F .text	00000378 mbedtls_pkcs12_derivation
40140c48 g     F .text	00000026 ieee80211_freedom_init
40087f10 g     F .rwtext.wifi	0000004c pm_connectionless_wake_window_timeout_process
40124dd8 g     F .text	000000c8 mbedtls_oid_get_extended_key_usage
40181c20 g     F .text	00000037 eap_fast_free_pac
3ffb2490 g     O .data	000000a8 rc11NSchedTbl
40084c28 g     F .rwtext.wifi	0000021a ieee80211_ampdu_reorder
4011c350 g     F .text	00000013 mbedtls_des_free
4018b094 g     F .text	0000002c nan_dp_parse_dev_caps
40153e88 g     F .text	00000041 ieee80211_psq_take_head
4013fd38 g     F .text	00000072 wifi_check_chan_param
40140514 g     F .text	0000004e esp_wifi_internal_reg_rxcb
40177d7c g     F .text	0000009c des_encrypt
4015a69c g     F .text	00000054 esp_wifi_ap_deauth_internal
401614cc g     F .text	00000066 chip_v7_set_chan_offset
40064a70 g       *ABS*	00000000 __gcc_bcmp
4011e18c g     F .text	00000018 mbedtls_ecp_point_init
4017a17c g     F .text	00000060 sha384_init
4014ecac g     F .text	0000000f nan_sm_start
40157aa4 g     F .text	00000aa1 ieee80211_sta_new_state
4014b6d4 g     F .text	00000027 nan_tx_action_frame
4017abdc g     F .text	00000037 hostapd_get_psk
40008534 g       *ABS*	00000000 esp_rom_delay_us
40151954 g     F .text	0000008b ieee80211_getcapinfo
400eff30 g     F .text	00000000 level4_interrupt
40141570 g     F .text	00000141 ieee80211_crypto_aes_128_cmac_decrypt
40125f7c g     F .text	000000fe mbedtls_pk_psa_rsa_sign_ext
3ffce747 g     O .bss	00000001 phy_freq_wifi_only
401454e0 g     F .text	0000006f ieee80211_recv_bar
401834c0 g     F .text	000000fd pmksa_cache_add_entry
40171d98 g     F .text	00000052 tlsv1_client_shutdown
4000cff8 g     F *ABS*	0000003a .hidden __udivdi3
4011886c g     F .text	00000011 mbedtls_mpi_bitlen
4012a2e0 g     F .text	00000022 psa_driver_wrapper_generate_key
4012a4d0 g     F .text	00000045 psa_driver_wrapper_key_agreement
3ffcea88 g     O .bss	00000090 g_wpa_supp
40167cd8 g     F .text	000001fb lmacProcessShortRetryFail
40128108 g     F .text	00000124 psa_import_key
40185948 g     F .text	0000001b wpabuf_clear_free
400845e0 g     F .rwtext.wifi	00000089 wdev_mac_wakeup
4017ccc4 g     F .text	0000004e ap_sta_add
4014a3bc g     F .text	00000062 wifi_nan_set_config_local
40148468 g     F .text	00000070 _do_wifi_stop
40145724 g     F .text	000000a8 ieee80211_has_ht40_bss
4016af98 g     F .text	00000040 ppClearTxq
4016d12c g     F .text	00000022 wDev_Crypto_Disable
40167850 g     F .text	00000018 ic_set_rx_policy_ubssid_check
401855dc g     F .text	00000126 wpa_supplicant_parse_ies
4016ebcc g     F .text	0000001b hal_disable_nan_tsf
401487bc g     F .text	000000bc ieee80211_sta_connect
40166bd0 g     F .text	00000170 ram_phy_get_vdd33
4015cf00 g     F .text	000000bf cnx_remove_rc
4015ffec g     F .text	00000107 correct_rfpll_offset
3ffb22d4 g     O .data	00000048 rc11BSchedTbl
4012dc4c g     F .text	00000069 mbedtls_rsa_import
40080840 g     F .rwtext	00000000 __naked_user_exception
40173bbc g     F .text	00000111 tlsv1_set_private_key
40123118 g     F .text	0000001a mbedtls_hash_info_get_size
4014d28c g     F .text	0000004f nan_sched_init_availability
4015a0c0 g     F .text	0000000f esp_wifi_ap_get_prof_password_internal
4013e74c g     F .text	00000017 mbedtls_hmac_drbg_random
4011e318 g     F .text	0000002b mbedtls_ecp_copy
401573f8 g     F .text	00000047 ieee80211_wme_standard_ac_to_esp_ac
40084670 g     F .rwtext.wifi	0000002e wdev_is_data_in_rxlist
50000000 g       *ABS*	00000000 _rtc_slow_data_start
400860c4 g     F .rwtext.wifi	0000000a ic_mac_init
400f1054 g     F .text	0000008a __pender
400800c0 g     F .vectors	00000000 _WindowUnderflow8
4011ab34 g     F .text	000000c7 mbedtls_mpi_core_fill_random
4014ecd0 g     F .text	000001be nan_construct_publish_sdf
4000c84c g     F *ABS*	00000035 .hidden __lshrdi3
3ffb2550 g     O .data	0000000c BasicOFDMSched
40080180 g     F .vectors	00000000 _Level2InterruptVector
401708b4 g     F .text	0000000d esp_eap_client_set_disable_time_check
40173b9c g     F .text	00000020 tlsv1_set_cert
3ffce744 g     O .bss	00000001 phy_bt_power_track_en
40119058 g     F .text	000001ce mbedtls_mpi_mul_mpi
40118530 g     F .text	0000002a mbedtls_mpi_free
40186e00 g     F .text	00000093 bignum_get_unsigned_bin
3f42b014 g     O .rodata	00000074 g_wifi_default_wpa_crypto_funcs
40158ac4 g     F .text	00000676 sta_recv_assoc
3ff80000 g       *ABS*	00000000 _rtc_fast_bss_start
40140c24 g     F .text	0000001e ieee80211_rate_ref_init
40170f40 g     F .text	0000001a wpa_sm_deauthenticate
4017a020 g     F .text	00000040 sha256_vector
40104af0 g     F .text	0000001b mbedtls_ssl_optimize_checksum
40107d50 g     F .text	000001ea mbedtls_ssl_write_sig_alg_ext
40155cb4 g     F .text	0000003e free_bss_info
40170c18 g     F .text	0000003d wpa_config_profile
40176680 g     F .text	00000032 aes_encrypt_init
401676d4 g     F .text	00000013 ic_deinit
4013f19c g     F .text	00000133 mbedtls_poly1305_starts
400f8080 g     F .text	00000025 rtc_printf
4016abf0 g     F .text	0000004f ppEnableQueue
4008c214 g     F .rwtext.wifi	000000ed ieee80211_set_tx_desc
40089e54 g     F .rwtext.wifi	00000036 chan_to_freq
4016fb34 g     F .text	00000056 wpa_get_ntp_timestamp
401713b4 g     F .text	00000085 tls_connection_set_params
3f41576c g     O .rodata	000001e0 g_wifi_osi_funcs
40107f3c g     F .text	00000109 mbedtls_ssl_parse_server_name_ext
4016d150 g     F .text	0000000d wdev_is_mgmt_hwdecr_enabled
4018a51c g     F .text	0000002f mbedtls_mpi_core_sub_int
40158738 g     F .text	0000013a sta_auth_shared
4014ae98 g     F .text	00000014 nan_set_update_sdf_pending
40001808 g       *ABS*	00000000 times
40082bb4 g     F .rwtext.wifi	0000001c is_lmac_idle
40185a00 g     F .text	00000176 asn1_get_next
4013aa60 g     F .text	00000109 mbedtls_asn1_write_len
4013d9f4 g     F .text	000000e0 mbedtls_cipher_cmac_update
3ffcd4b4 g     O .bss	00000001 _ESP_HAL_DEVICE_PERIPHERALS
3ffce75c g     O .bss	00000001 phy_set_most_tpw_flag
400847b4 g     F .rwtext.wifi	00000024 hal_mac_txq_enable
400825f4 g     F .rwtext.wifi	0000004a lmacAdjustTimestamp
401881b4 g     F .text	000000d5 md4_vector
4015aaa8 g     F .text	00000016 esp_wifi_unset_appie_internal
40088a00 g     F .rwtext.wifi	00000098 tx_paon_set
40081a28 g     F .rwtext	0000003e __default_interrupt
4014b9c8 g     F .text	00000031 nan_sched_in_ndc_slot
4013e4a8 g     F .text	00000018 mbedtls_hmac_drbg_init
4018bd98 g     F .text	0000001e eap_deinit_prev_method
40084960 g     F .rwtext.wifi	0000001e wdev_bank_store
4015abcc g     F .text	000000bc esp_wifi_set_igtk_internal
3ffb1860 g     O .data	00000001 TmpSTAAPCloseAP
3ffce4d8 g     O .bss	00000004 wifi_sta_rx_probe_req
4011a764 g     F .text	0000003d mbedtls_mpi_core_cond_swap
40089a2c g     F .rwtext.wifi	00000083 phy_unforce_wifi_chan
400879bc g     F .rwtext.wifi	0000000d hal_mac_rx_get_last_dscr
40171650 g     F .text	0000002b tlsv1_client_free_dh
400f7dd8 g     F .text	00000062 misc_nvs_init
40127284 g     F .text	0000018c mbedtls_pk_parse_public_key
40153bb8 g     F .text	00000115 ieee80211_setup_ratetable
400eff30 g     F .text	00000000 RWBT
3f425788 g     O .rodata	00000030 mbedtls_rsa_info
401591c4 g     F .text	00000169 sta_try_sa_query_process
4013fb9c g     F .text	0000019a wifi_softap_get_config
4013a69c g     F .text	0000029e mbedtls_aria_crypt_cbc
40170ec4 g     F .text	00000058 wpa_supplicant_transition_disable
4014ebd8 g     F .text	0000000f nan_scan_timeout_process
40064bf4 g     F *ABS*	00000045 .hidden __udivmoddi4
4011fac0 g     F .text	000000f9 mbedtls_ecp_check_pub_priv
3ffd148c g     O .bss	00000028 phy_version_str
40170e18 g     F .text	0000004a wpa_ether_send
4012442c g     F .text	0000005e mbedtls_nist_kw_setkey
4008a150 g     F .rwtext.wifi	00000029 ram_set_rxclk_en
4013c7a4 g     F .text	00000289 mbedtls_ccm_update
40176664 g     F .text	0000001a aes_decrypt_deinit
4013cda0 g     F .text	00000013 mbedtls_chacha20_free
4014c84c g     F .text	00000044 nan_send_ndp_confirm
4008a08c g     F .rwtext.wifi	0000001b ram_enable_agc
4015a1d8 g     F .text	00000029 esp_wifi_sta_prof_is_rsn_internal
40154614 g     F .text	00000061 ieee80211_add_countryie
4017d3c4 g     F .text	00000077 wpa_cipher_to_suite
40125434 g     F .text	00000374 mbedtls_pem_read_buffer
40183cdc g     F .text	00000030 wpa_sm_set_pmk_from_pmksa
40089da8 g     F .rwtext.wifi	00000038 bt_track_tx_power
4018a33c g     F .text	000001af mbedtls_mpi_core_mla
4018b994 g     F .text	00000032 x509_sha1_oid
40089758 g     F .rwtext.wifi	00000100 phy_force_wifi_chan
401416c4 g     F .text	000001b7 ieee80211_crypto_gmac_decrypt
3ffd14cc g     O .bss	00000008 phy_chan_gain_table
400854f0 g     F .rwtext.wifi	0000006e pm_enable_active_timer
400f57c8 g     F .text	000000b7 free
3ffce709 g     O .bss	00000001 g_authmode_threshold_failure
4008a6c0 g     F .rwtext.wifi	00000010 bb_wdt_get_status
401514d0 g     F .text	0000001e ieee80211_add_probe_req_ies
4014c240 g     F .text	0000007a nan_dp_setup_peer
3ffceb9c g     O .bss	00000004 g_wpa_pac_file
3ffcdcb0 g     O .bss	00000004 g_log_level
4016733c g     F .text	0000000d ic_is_mgmt_hwdecr_enabled
4000c7c8 g     F *ABS*	00000031 .hidden __udivsi3
4012a474 g     F .text	0000001d psa_driver_wrapper_mac_update
40113130 g     F .text	0000017f mbedtls_ssl_tls13_write_certificate
4011de6c g     F .text	00000090 mbedtls_ecdh_read_params
0000000c g     O .espressif.metadata	00000006 espflash.LOG_FORMAT
3ffd14b4 g     O .bss	00000001 phy_dac_org
4016df34 g     F .text	0000005d mac_last_rxbuf_init
40167edc g     F .text	00000058 lmacProcessCtsTimeout
4016ce48 g     F .text	000001d5 wDev_Rxbuf_Init
40170460 g     F .text	000001ec wpa2_task
3ffb0000 g       *ABS*	00000000 _data_start
400828cc g     F .rwtext.wifi	00000023 lmacRecycleMPDU
4017354c g     F .text	00000027 tls_get_cipher_data
4016b810 g     F .text	0000007a rcLowerSched
401836d0 g     F .text	0000003a pmksa_cache_get
401672a4 g     F .text	0000000e ic_ebuf_recycle_tx
40167918 g     F .text	0000001b lmacIsIdle
40185910 g     F .text	0000001c wpabuf_dup
4012b330 g     F .text	0000011d mbedtls_psa_rsa_load_representation
400880b8 g     F .rwtext.wifi	00000011 i2c_bbpll_init
4011f638 g     F .text	0000017e mbedtls_ecp_check_pubkey
3ffce76b g     O .bss	00000001 g_pp_tx_pkt_num
4018a1a4 g     F .text	00000007 mbedtls_ssl_tls13_finalize_client_hello
4015795c g     F .text	0000000e sta_is_11r_enabled
400848bc g     F .rwtext.wifi	0000001c hal_mac_tx_is_cbw40
401235a4 g     F .text	00000060 mbedtls_md_hmac_finish
4015ace0 g     F .text	0000000e esp_wifi_skip_supp_pmkcaching
4016b974 g     F .text	000000e1 trc_onAmpduOp
4012fbf0 g     F .text	00000026 mbedtls_sha1_starts
4017c5c4 g     F .text	00000032 wpa_write_rsnxe
4014d538 g     F .text	0000005f nan_dp_schedule_ndc_start
401676f0 g     F .text	00000057 ic_init
4011b718 g     F .text	00000116 mbedtls_cipher_auth_decrypt_ext
4000c9fc g     F *ABS*	00000037 .hidden __muldi3
400026e4 g     F *ABS*	0000003b .hidden __subdf3
400f6a84 g     F .text	000000f5 atoi
40080100 g     F .vectors	00000000 _WindowOverflow12
4011d9fc g     F .text	00000067 mbedtls_dhm_make_public
4018c054 g     F .text	0000000a pmksa_cache_get_current
3ffce754 g     O .bss	00000001 chan14_mic_en
40159e34 g     F .text	0000000f esp_wifi_ap_get_prof_pmk_internal
40063704 g     F *ABS*	0000004d .hidden __ledf2
4014cab4 g     F .text	00000048 nan_dp_chan_from_bitmap
401085bc g     F .text	0000025d mbedtls_ssl_tls12_write_client_hello_exts
40124ea0 g     F .text	0000002b mbedtls_oid_get_certificate_policies
3ffce4e0 g     O .bss	00000040 g_hmac_cnt
40100c48 g     F .text	0000067a mbedtls_ssl_encrypt_buf
40083d9c g     F .rwtext.wifi	000001d3 ppTask
4011c124 g     F .text	00000065 mbedtls_mpi_safe_cond_swap
4017c3d4 g     F .text	00000027 wpa_ap_remove
4014b9fc g     F .text	00000034 nan_sched_is_peer_available
401408c8 g     F .text	00000018 esp_wifi_set_tx_done_cb
4014a23c g     F .text	00000018 wifi_set_appie_process
40171340 g     F .text	0000003b tls_connection_init
3ffd12a0 g     O .bss	00000014 bt_wifi_chan_data
4015a130 g     F .text	0000000e esp_wifi_sta_get_reset_param_internal
3ffce758 g     O .bss	00000001 phy_set_most_tpw_index
4011dfa0 g     F .text	0000006d mbedtls_ecdh_make_public
4016c1e8 g     F .text	0000005a rc_get_trc_by_index
40119808 g     F .text	00000087 mbedtls_mpi_mod_mpi
40002590 g     F *ABS*	00000037 .hidden __adddf3
4012f060 g     F .text	00000182 mbedtls_rsa_rsassa_pss_verify_ext
40167598 g     F .text	00000019 ic_add_rx_ba
3ffb1b24 g     O .data	00000001 send_deauth
40186f00 g     F .text	00000018 bignum_add
4014ec58 g     F .text	00000013 nan_faw_end_process
40002954 g     F *ABS*	00000037 .hidden __divdf3
3ffb27d0 g       *ABS*	00000000 _bss_start
4013f94c g     F .text	0000000b wifi_is_stop_in_progress
40173d30 g     F .text	0000004b tlsv1_record_change_write_cipher
4012f820 g     F .text	0000008b mbedtls_rsa_deduce_crt
4008b054 g     F .rwtext.wifi	000000a0 tx_gain_table_set
4016d020 g     F .text	00000008 wDev_disable_low_rate
401419c8 g     F .text	000000b6 ieee80211_hostapd_beacon_txcb
4014ec30 g     F .text	00000013 nan_send_action_process
40124ecc g     F .text	0000003d mbedtls_oid_get_sig_alg_desc
4016ad48 g     F .text	000000b0 ppCheckTxIdle
401627e8 g     F .text	00000228 set_rx_gain_testchip_70
4015d9e8 g     F .text	000000ca cnx_node_alloc
40104bc4 g     F .text	00000012 mbedtls_ssl_session_init
4014ae38 g     F .text	00000026 nan_flush_action_q
400f6bf0 g     F .text	000001b6 mktime
4012ac78 g     F .text	000000bb mbedtls_psa_hash_finish
4008ae14 g     F .rwtext.wifi	00000047 get_rate_target_power
400819e8 g     F .rwtext	00000000 Profiling
4011e370 g     F .text	00000017 mbedtls_ecp_is_zero
4000ca2c g       *ABS*	00000000 __ffsdi2
4015ab94 g     F .text	00000022 esp_wifi_sta_get_mgmt_group_cipher
4013ff14 g     F .text	00000037 net80211_funcs_init
40064b64 g       *ABS*	00000000 __clrsbsi2
40089de8 g     F .rwtext.wifi	0000005f bt_track_pll_cap
40168b48 g     F .text	0000004c pm_wake_done
40184f10 g     F .text	00000022 wpa_sta_cur_pmksa_matches_akm
40167aac g     F .text	0000006f lmacEndRetryAMPDUFail
4015c5b0 g     F .text	00000089 cnx_remove_from_blacklist
40183c68 g     F .text	0000001d wpa_sm_set_state
40089048 g     F .rwtext.wifi	000000ab phy_reg_init
4011c364 g     F .text	00000012 mbedtls_des3_init
401319f4 g     F .text	00000012 mbedtls_sha256_clone
4014f238 g     F .text	0000007d nan_match_filters
4014c9b8 g     F .text	0000001b nan_dp_parse_ndla
4018af1c g     F .text	0000003e ampdu_dispatch_movement
4011e678 g     F .text	00000036 mbedtls_ecp_tls_write_point
4008b6c8 g     F .rwtext.wifi	000000e4 tx_pwctrl_background
40110410 g     F .text	00000126 mbedtls_ssl_tls13_write_binders_of_pre_shared_key_ext
40163324 g     F .text	000000bf analog_gain_init
4014b210 g     F .text	00000010 nan_rx_cb
40169898 g     F .text	00000085 pm_update_params
3ffce664 g     O .bss	00000001 in_rssi_adjust
40082bf0 g     F .rwtext.wifi	0000008d ppTxProtoProc
40140fac g     F .text	0000001a ieee80211_find_ie
4018a604 g     F .text	0000000e mbedtls_ct_size_mask
4011a6f4 g     F .text	00000057 mbedtls_mpi_core_bitlen
4018bab0 g     F .text	00000007 crypto_public_key_from_cert
4013d5d4 g     F .text	00000011 mbedtls_chachapoly_setkey
40138cac g     F .text	000004d7 mbedtls_aes_crypt_xts
40004100 g       *ABS*	00000000 phy_get_romfuncs
3ffce654 g     O .bss	00000004 sta_rxcb
40141460 g     F .text	000000fe ieee80211_crypto_aes_128_cmac_encrypt
4018a190 g     F .text	00000014 mbedtls_ssl_hash_from_md_alg
40114364 g     F .text	0000004c mbedtls_x509_get_ext
4013ef64 g     F .text	00000065 mbedtls_pkcs5_pbkdf2_hmac_ext
40187ad4 g     F .text	0000002e generate_authenticator_response
40135300 g     F .text	000000f4 mbedtls_debug_printf_ecdh
40162a30 g     F .text	0000002b set_tx_gain_table_bt
4016e114 g     F .text	000000be hal_mac_rx_set_policy
3ffb1854 g     O .data	00000004 WIFI_MESH_EVENT
400eff30 g     F .text	00000000 I2S0
3ffce640 g     O .bss	00000014 sta_csa_timer
4018b5a0 g     F .text	0000003b rcSetTxAmpduLimit
4015a334 g     F .text	0000007f esp_wifi_wpa_ptk_init_done_internal
4014cf60 g     F .text	000000f0 nan_parse_ndp_resp
401491e8 g     F .text	0000001c chip_enable
400eff30 g     F .text	00000000 I2S1
4014056c g     F .text	00000037 wifi_event_post
4008ccc0 g     F .rwtext.wifi	00000010 pm_on_data_tx
4015738c g     F .text	0000001a wifi_sta_reg_eapol_txdone_cb
4018b174 g     F .text	00000036 ieee80211_gettid
40167824 g     F .text	0000000d ic_get_random
4018a10c g     F .text	00000009 mbedtls_ssl_conf_dbg
4014bebc g     F .text	0000001f nan_dp_node_available
4018b718 g     F .text	00000007 tls_connection_enable_workaround
400f7e3c g     F .text	00000079 puts
40173cd0 g     F .text	0000005e tlsv1_record_set_cipher_suite
40170e64 g     F .text	00000060 hostapd_send_eapol
40105624 g     F .text	00000041 mbedtls_ssl_get_current_mtu
4015b760 g     F .text	000000d4 chm_init
40174e64 g     F .text	0000001b x509_certificate_chain_free
40170a18 g     F .text	00000008 wpa_config_done
3ffcf2d0 g     O .bss	00000158 s_ni
4015dab4  w    F .text	000000bf cnx_node_remove
400eff30 g     F .text	00000000 MMU_IA
40176164 g     F .text	000000e7 aes_decrypt_init
4015a680 g     F .text	0000001b esp_wifi_get_macaddr_internal
3ffce75e g     O .bss	00000002 phy_meas_noise_floor
401858f4 g     F .text	0000001a wpabuf_alloc_copy
401319e0 g     F .text	00000013 mbedtls_sha256_free
40189cc0 g     F .text	000000c8 mbedtls_ssl_dtls_replay_check
40080840 g     F .rwtext	00000000 __default_naked_exception
3ffce534 g     O .bss	00000008 g_beacon_eb
401832f8 g     F .text	00000030 eap_fast_tlv_eap_payload
4015798c g     F .text	00000065 sta_update_power_off_reset_flag
4014bff4 g     F .text	0000006a nan_dp_get_peer_ndp
4016d7f0 g     F .text	00000095 hal_crypto_enable
4008a120 g     F .rwtext.wifi	00000029 ram_set_txclk_en
40108048 g     F .text	0000010d mbedtls_ssl_parse_alpn_ext
3f42b844 g     O .rodata	00000400 Te0
3ffce751 g     O .bss	00000001 init_wifi_disable
40173a9c g     F .text	00000042 tlsv1_cred_free
40145bb8 g     F .text	00000167 ieee80211_ht_updateparams
40146a68 g     F .text	000000da ieee80211_setup_phy_mode
4013e4c0 g     F .text	000000ee mbedtls_hmac_drbg_update
4016fa3c g     F .text	00000092 sha1_prf
40177e34 g     F .text	00000028 des_block_encrypt
3ffd14b6 g     O .bss	00000002 pwrdet_offset
4012b884 g     F .text	0000006c psa_get_and_lock_key_slot
401688d0 g     F .text	0000000f pm_register_pm_tx_null_cb
400f6944 g     F .text	00000038 fopen
40089b60 g     F .rwtext.wifi	0000002c get_temp_cal
4016dedc g     F .text	00000041 hal_mac_set_rxq_policy
4014f614 g     F .text	00000036 nan_get_service_by_id
4015fc28 g     F .text	00000040 ram_wait_rfpll_cal_end
4018a970 g     F .text	0000000c psa_driver_wrapper_get_key_buffer_size
40170e08 g     F .text	00000010 wpa_free_eapol
4018b788 g     F .text	0000000e tlsv1_client_resumed
40131a08 g     F .text	00000060 mbedtls_sha256_starts
40131580 g     F .text	00000206 mbedtls_sha1_finish
40156154 g     F .text	00000068 scan_inter_channel_timeout_process
4015f04c g     F .text	0000009b ieee80211_recv_action
400848f8 g     F .rwtext.wifi	00000020 ppEmptyDelimiterLength
400eff30 g     F .text	00000000 TG1_T0_EDGE
4008b974 g     F .rwtext.wifi	00000136 pp_post
40146390 g     F .text	00000104 ieee80211_decap_amsdu
4016a510 g     F .text	00000088 ppAssembleMicHdr
4016b21c g     F .text	00000046 RC_GetBlockAckTime
40149208 g     F .text	0000001c chip_disable
401678fc g     F .text	0000000a ic_delete_wifi_task
40173ef8 g     F .text	0000018f tlsv1_record_receive
40131788 g     F .text	00000241 mbedtls_sha1
4016788c g     F .text	0000000d ic_set_interface
4016a3c8 g     F .text	0000000f ppRegisterTxDoneUserActionCallback
40118410 g     F .text	000000ba mbedtls_asn1_get_alg
4000c944 g     F *ABS*	00000031 .hidden __floatsidf
4016bca8 g     F .text	0000006e TRC_AMPDU_PER_DOWN_THRESHOLD
3ffb2658 g     O .data.wifi	00000090 bars
4018a4ec g     F .text	00000030 mbedtls_mpi_core_montmul_init
4016b128 g     F .text	0000001a pp_timer_process
40132ee8 g     F .text	000000cc mbedtls_sha512_starts
4011b5c4 g     F .text	0000005b mbedtls_cipher_crypt
40170c58 g     F .text	00000035 wpa_config_bss
4008660c g     F .rwtext.wifi	00000035 pm_disable_beacon_monitor_timer
4008bab0 g     F .rwtext.wifi	00000013 wifi_gpio_debug
3ffb1d80 g     O .data	000000c8 g_eb_list_desc
4014ae88 g     F .text	0000000d wifi_nan_reg_rxcb
4018bdf0 g     F .text	0000000d eap_get_config_identity
40085e24 g     F .rwtext.wifi	0000007f wifi_rf_phy_enable
4013f928 g     F .text	0000000d esp_wifi_send_deauth_local
4014ce3c g     F .text	0000011a nan_parse_ndp_req
4012a298 g     F .text	00000045 psa_driver_wrapper_sign_hash
4018b738 g     F .text	0000003a tls_client_highest_ver
4013f83c  w    F .text	00000031 .hidden __divsf3
401526cc g     F .text	0000006c ieee80211_output_pending_eb
40150c38 g     F .text	00000033 ieee80211_set_hmac_stop
401494fc g     F .text	000001e2 wifi_set_mode_process
401231f0 g     F .text	00000064 mbedtls_md_clone
4008cd80 g     F .rwtext.wifi	0000002a ppTxqUpdateBitmap
40086c88 g     F .rwtext.wifi	000000e3 pm_tbtt_process
3ffcebbc g     O .bss	00000004 g_wpa_ca_cert
40147e68 g     F .text	000000de ieee80211_ioctl_process
400874e8 g     F .rwtext.wifi	000002f5 wDev_ProcessRxSucData
4017cc08 g     F .text	0000001c pmksa_cache_auth_init
400eff30 g     F .text	00000000 TG1_LACT_EDGE
4013c4ec g     F .text	0000004b mbedtls_ccm_setkey
4017aa50 g     F .text	000000e4 eloop_run
401766b4 g     F .text	000003ea aes_encrypt
401675ec g     F .text	00000017 ic_set_ac_param
40170780 g     F .text	0000001b esp_eap_client_clear_identity
3ffb1cf4 g     O .data	00000018 ccmp
4013c450 g     F .text	00000088 mbedtls_camellia_crypt_ctr
4016ff1c g     F .text	00000014 eap_client_get_eap_state
40188338 g     F .text	00000029 chap_md5
401406e0 g     F .text	00000023 esp_wifi_get_event_mask
401614b0 g     F .text	0000001b chip_v7_set_chan
400819d8 g     F .rwtext	0000000d __default_exception
40102364 g     F .text	000002c8 mbedtls_ssl_write_handshake_msg_ext
40141a90 g     F .text	0000000e hostap_handle_timer
401364a0 g     F .text	000001cf mbedtls_ssl_tls13_evolve_secret
400801c0 g     F .vectors	00000000 _Level3InterruptVector
4018bdd8 g     F .text	0000000f eap_sm_request_new_password
4012b970 g     F .text	00000011 mbedtls_ripemd160_init
401556e4 g     F .text	0000002f scan_reset_cipher_and_akm
40105180 g     F .text	00000044 mbedtls_ssl_validate_ciphersuite
4014bfa8 g     F .text	00000041 nan_dp_remove_node
401286c0 g     F .text	000000d9 psa_sign_message_builtin
4012b9d4 g     F .text	00001fa5 mbedtls_internal_ripemd160_process
401546d4 g     F .text	0000000b ieee80211_regdomain_ap_min_chan
4016dca0 g     F .text	00000236 mac_txrx_init
4016d100 g     F .text	0000002a wDev_remove_KeyEntry_all_cnx
4008399c g     F .rwtext.wifi	000003c3 ppResortTxAMPDU
401691e4 g     F .text	000001a5 pm_coex_schm_process
4018baec g     F .text	00000012 wpa_auth_uses_mfp
40125140 g     F .text	0000004b mbedtls_oid_get_cipher_alg
400eff30 g     F .text	00000000 LEDC
4005cfec g       *ABS*	00000000 esp_rom_crc32_le
40151470 g     F .text	0000001f ieee80211_add_beacon_app_ies
40154368 g     F .text	00000060 ieee80211_get_chan_info
4012a394 g     F .text	0000001d psa_driver_wrapper_hash_update
401484e4 g     F .text	000000a6 _do_wifi_start
401543d0 g     F .text	0000004c ieee80211_is_40mhz_valid_bw
401693a0 g     F .text	000000be pm_coex_slice_timeout_process
3ffb1c2c g     O .data	00000004 g_chm
4014b6fc g     F .text	0000002d nan_tx_queued_action_frames
4018bea4 g     F .text	00000013 eap_get_id
40082574 g     F .rwtext.wifi	0000007e lmacMSDUAged
401855ac g     F .text	00000030 wpa_gen_rsnxe
40164b90 g     F .text	0000002e ram_txcal_work_mode
4016b2a0 g     F .text	0000001b rx11NRate2AMPDULimit
4017e2f8 g     F .text	00000076 eap_sm_buildIdentity
40167934 g     F .text	0000001a lmacGetTxFrame
4016a460 g     F .text	000000b0 ppCheckTxConnTrafficIdle
40189be0 g     F .text	00000032 sprintf
3ffce878 g     O .bss	00000048 g_pm_cnt
4015a498 g     F .text	00000012 esp_wifi_get_hostap_private_internal
40177498 g     F .text	0000009d crypto_mod_exp
50000000 g       *ABS*	00000000 _rtc_slow_persistent_start
4016ba58 g     F .text	00000020 trc_set_per_pkt_rate
4015b45c g     F .text	00000026 chm_deinit
4015424c g     F .text	000000e7 ieee80211_mlme_connect_bss
401514f8 g     F .text	00000084 ieee80211_add_wme_param
3ffb1d58 g     O .data	00000001 phy_in_most_power_bk
40158614 g     F .text	0000011b sta_auth_open
40152504 g     F .text	00000059 ieee80211_deauth_construct
40140a04 g     F .text	00000034 ieee80211_freedom_inside_cb
4014e310 g     F .text	0000000e nan_send_started_event
40106430 g     F .text	00000200 mbedtls_ssl_derive_keys
4014ec80 g     F .text	00000017 nan_sm_init
40171ec8 g     F .text	0000003e tlsv1_client_get_version
4016d6dc g     F .text	00000098 hal_crypto_get_key_entry
4017e3d0 g     F .text	0000001a eap_set_config_blob
40084838 g     F .rwtext.wifi	0000000d hal_random
4012a7a8 g     F .text	0000009b mbedtls_psa_ecp_generate_key
40184fa4 g     F .text	00000045 wpa_sm_set_assoc_rsnxe
40140830 g     F .text	00000033 esp_wifi_internal_on_coex_start
400eff30 g     F .text	00000000 MPU_IA
3f400020 g     O .rodata_desc	00000100 esp_app_desc
4013fed8  w    F .text	00000036 net80211_softap_funcs_init
4017529c g     F .text	0000001c x509_sha384_oid
4014f14c g     F .text	00000027 nan_static_sdfs_present
4015a3e4 g     F .text	00000013 esp_wifi_register_wpa2_cb_internal
4012a304 g     F .text	0000002f psa_driver_wrapper_import_key
40087eb4 g     F .rwtext.wifi	0000005a pm_connectionless_wake_interval_timeout_process
4000c2c8 g     F *ABS*	00000031 .hidden memcpy
4015324c g     F .text	00000235 ieee80211_send_probereq
40124f0c g     F .text	00000048 mbedtls_oid_get_sig_alg
40104038 g     F .text	0000012a mbedtls_ssl_write
400eff30 g     F .text	00000000 TG1_WDT_EDGE
40186da4 g     F .text	00000024 bignum_init
4012a334 g     F .text	00000026 psa_driver_wrapper_export_public_key
400636a8 g     F *ABS*	0000004d .hidden __nedf2
400864c8 g     F .rwtext.wifi	000000cf pm_beacon_monitor_tbtt_start
4017d9d4 g     F .text	0000006e aes_gcm_ae
40087984 g     F .rwtext.wifi	00000010 hal_mac_rx_set_base
4016b450 g     F .text	00000038 rcGet11BHighestRateIdx
4015a278 g     F .text	00000029 ieee80211_set_sta_gtk_index
40105a10 g     F .text	000000de mbedtls_ssl_handshake_free
40137544 g     F .text	00000415 mbedtls_ssl_tls13_compute_application_transform
4013e600 g     F .text	0000014a mbedtls_hmac_drbg_random_with_add
4018a1cc g     F .text	0000003f mbedtls_mpi_lsb
40159e70 g     F .text	0000001e esp_wifi_sta_get_ap_info_prof_pmk_internal
4018bbb4 g     F .text	00000045 wpa_cipher_key_len
4012843c g     F .text	0000003c psa_hash_update
40187a28 g     F .text	0000002c generate_nt_response_pwhash
3ffd128c g     O .bss	00000008 ctx
40134bc4 g     F .text	0000015c mbedtls_sha512
4000c7f0 g     F *ABS*	0000002f .hidden __ctzsi2
40162078 g     F .text	000001c3 rx_chan_dc_sort
4014bde8 g     F .text	0000004b nan_dp_send_indication_event
4012b998 g     F .text	00000011 mbedtls_ripemd160_clone
4008401c g     F .rwtext.wifi	00000067 rcUpdateTxDone
4012a378 g     F .text	0000001c psa_driver_wrapper_hash_setup
40158554 g     F .text	000000ae sta_auth_ft
4018b280 g     F .text	00000029 wep_decap
40187514 g     F .text	00000123 crypto_rsa_import_private_key
4015a3b4 g     F .text	0000000a esp_wifi_auth_done_internal
40086988 g     F .rwtext.wifi	00000081 pm_keep_alive
40149298 g     F .text	00000107 wifi_hw_start
3f429bb2 g     O .rodata	00000006 NAN_NETWORK_ID
4012a4b4 g     F .text	00000019 psa_driver_wrapper_mac_abort
4018afd4 g     F .text	00000007 wifi_station_get_reconnect_policy
40080200 g     F .vectors	00000000 _Level4InterruptVector
4012b234 g     F .text	000000f9 mbedtls_psa_mac_compute
3ffce707 g     O .bss	00000001 reconnect_flag
40162f98 g     F .text	0000007b chip_v7_set_chan_misc
401051c4 g     F .text	00000052 mbedtls_ssl_conf_own_cert
401299b8 g     F .text	000000bb psa_generate_key_internal
4016aecc g     F .text	000000c9 pp_attach
3ffce566 g     O .bss	00000001 g_mac_sleep_en
4018afcc  w    F .text	00000007 adc2_wifi_release
4013a0a4 g     F .text	000005ce mbedtls_aria_crypt_ecb
40176abc g     F .text	0000032b rijndaelKeySetupEnc
40162e08 g     F .text	00000014 read_hw_noisefloor
4015d2f0 g     F .text	00000046 cnx_handshake_timeout_process
4015a674 g     F .text	0000000c esp_wifi_register_eapol_txdonecb_internal
4011afbc g     F .text	00000036 mbedtls_cipher_set_padding_mode
4016a268 g     F .text	0000002d pm_enable_sta_disconnected_power_management
40118734 g     F .text	00000066 mbedtls_mpi_lset
4013ccf4 g     F .text	00000090 mbedtls_ccm_auth_decrypt
3ffd14e8 g     O .bss	000000c0 eb_space
401578c0 g     F .text	00000072 sta_bip_check
40184dac g     F .text	0000013a eapol_txcb
3ffce568 g     O .bss	000000b0 esp_mesh_quick_funcs
4013f870  w    F .text	0000003e .hidden strlen
4015ad40 g     F .text	0000006a esp_wifi_send_mgmt_frm_internal
3f425c4c g     O .rodata	00000040 psa_to_pk_rsa_errors
4018a128 g     F .text	0000000b mbedtls_ssl_conf_ca_chain
4015f9b4 g     F .text	00000066 ieee80211_getbcnframe
3ffce706 g     O .bss	00000001 ap_no_lr
4012748c g     F .text	00000151 mbedtls_pk_write_pubkey
4008649c g     F .rwtext.wifi	00000025 pm_save_tbtt_info
4011fa5c g     F .text	00000062 mbedtls_ecp_write_key
4018b2ac g     F .text	00000005 ram_rfpll_reset
4015c648 g     F .text	000000ac cnx_add_to_blacklist
40132fb4 g     F .text	0000160b mbedtls_internal_sha512_process
40149714 g     F .text	000001a6 wifi_menuconfig_init
40179d10 g     F .text	0000001d hmac_sha1
3f429bbe g     O .rodata	00000004 NAN_ACTION_OUI
401146ac g     F .text	0000010b mbedtls_x509_get_subject_alt_name
400eff30 g     F .text	00000000 WDT
40176078 g     F .text	0000006b aes_128_cbc_encrypt
4016a7fc g     F .text	0000007f ppCheckTxAMPDUlength
3ffd15a8 g     O .bss	00000028 if_ctrl
40118c44 g     F .text	000001c3 mbedtls_mpi_add_abs
3ffb1d3c g     O .data	00000018 wep
4016d028 g     F .text	00000008 wDev_enable_low_rate
40166e80 g     F .text	00000096 esf_buf_free_static
4012a844 g     F .text	00000173 mbedtls_psa_ecdsa_sign_hash
4014ace8 g     F .text	0000007a nan_mgmt_txcb
4013795c g     F .text	00000012 mbedtls_aes_init
40145344 g     F .text	00000049 ieee80211_ampdu_start_age_timer
4018a784 g     F .text	0000000d mbedtls_md_init
401524cc g     F .text	00000031 ieee80211_get_robustmgtframe
4012693c g     F .text	00000369 mbedtls_pk_parse_key
4012e760 g     F .text	00000107 mbedtls_rsa_rsaes_oaep_encrypt
40002b90 g     F *ABS*	00000031 .hidden __truncdfsf2
40171ea8 g     F .text	00000010 tlsv1_client_set_cred
40087240 g     F .rwtext.wifi	0000027e wDev_IndicateFrame
3ffe0000 g       *ABS*	00000000 _stack_start_cpu0
3ffce840 g     O .bss	00000010 s_fragment
40085568 g     F .rwtext.wifi	00000064 pm_rx_data_process
40184fec g     F .text	00000215 wpa_set_bss
4012a204 g     F .text	00000019 psa_reset_key_attributes
40089c78 g     F .rwtext.wifi	00000035 phy_bt_ifs_set
401408a0 g     F .text	00000028 esp_wifi_internal_issue_disconnect
400efe88 g     F .text	00000022 __stack_chk_fail
400eff30 g     F .text	00000000 DefaultHandler
4013ac50 g     F .text	0000006c mbedtls_asn1_write_int
4012a268 g     F .text	0000002e psa_driver_wrapper_sign_message
40186f48 g     F .text	00000046 bignum_mulmod
400f67a8 g     F .text	0000006a usleep
40141ac4 g     F .text	0000002a ieee80211_hostapd_ps_txcb
40163030 g     F .text	00000211 set_rx_gain_table
4016a3d8 g     F .text	0000001f ppRegisterRxCallback
4015a3f8 g     F .text	00000022 esp_wifi_unregister_wpa_cb_internal
40145074 g     F .text	00000076 ieee80211_ht_deattach
40169b30 g     F .text	00000067 pm_on_probe_resp_rx
40169460 g     F .text	00000016 pm_dream_timeout_process
4015c298 g     F .text	0000000b wl_is_ap_no_lr
4011c91c g     F .text	00000021 mbedtls_des3_set2key_enc
40183cb4 g     F .text	00000027 wpa_supplicant_stop_countermeasures
40171394 g     F .text	00000010 tls_connection_established
400eff30 g     F .text	00000000 RMT
4017e1f0 g     F .text	00000106 eap_peer_blob_init
4000ca64 g     F *ABS*	00000031 .hidden __ctzdi2
4012760c g     F .text	0000032a mbedtls_pk_write_key_der
40083598 g     F .rwtext.wifi	000002b4 ppCalTxAMPDULength
40088520 g     F .rwtext.wifi	00000023 ram_bb_bss_cbw40_dig
4015348c g     F .text	000000e4 ieee80211_send_mgmt
4017b290 g     F .text	000000a8 wpa_init
4015d81c g     F .text	00000096 send_ap_probe
4014f860 g     F .text	0000007c wifi_nvs_cfg_item_init
4015b590 g     F .text	000000a5 chm_set_home_channel
40155020 g     F .text	00000091 scan_build_chan_list
401373c8 g     F .text	00000179 mbedtls_ssl_tls13_compute_resumption_master_secret
4018b0c0 g     F .text	00000007 nan_in_transit_event_hdlr
3f424fd8 g     O .rodata	0000000c mbedtls_sha384_info
3f424fcc g     O .rodata	0000000c mbedtls_sha256_info
401715d0 g     F .text	00000016 tls_connection_set_cipher_list
400809f8 g     F .rwtext	00000000 __naked_level_5_interrupt
40148878 g     F .text	00000070 ieee80211_sta_disconnect
40137e14 g     F .text	0000003b mbedtls_aes_xts_setkey_enc
4015c144 g     F .text	00000056 cnx_can_do_obss_scan
40154700 g     F .text	0000002f ieee80211_regdomain_is_active_scan
40089f34 g     F .rwtext.wifi	00000024 ram_pbus_debugmode
4016ae08 g     F .text	000000bc ppPrepareBarFrame
4013c4d8 g     F .text	00000012 mbedtls_ccm_init
4018a1ac g     F .text	00000007 mbedtls_x509_time_is_past
3ffce850 g     O .bss	00000004 s_wifi_queue
401242cc g     F .text	0000014a mbedtls_md5
40152cac g     F .text	00000048 ieee80211_alloc_deauth
3ffce767 g     O .bss	00000001 tx_pwctrl_track_num
4015a1b4 g     F .text	0000001e esp_wifi_sta_prof_is_wapi_internal
4010d918 g     F .text	0000019e mbedtls_ssl_tls13_handshake_server_step
40063840 g       *ABS*	00000000 __ucmpdi2
4011e04c g     F .text	000000d6 mbedtls_ecdh_calc_secret
4017d104 g     F .text	00000036 wpa_use_akm_defined
4013ca30 g     F .text	00000181 mbedtls_ccm_finish
4015aa08 g     F .text	00000048 esp_wifi_get_sta_key_internal
401799cc g     F .text	00000071 SHA1Update
40153f1c g     F .text	0000005d ieee80211_psq_send_one_pkt
400f6b7c g     F .text	00000073 strcasecmp
40184d44 g     F .text	00000068 wpa_michael_mic_failure
401354d8 g     F .text	00000022 mbedtls_ssl_ciphersuite_uses_ec
4014ae64 g     F .text	00000008 nan_get_clust_id
3ffcea80 g     O .bss	00000001 g_wpa_pmk_caching_disabled
40086eb0 g     F .rwtext.wifi	000000d9 ppRxProtoProc
400860b0 g     F .rwtext.wifi	00000014 ic_interface_enabled
400eff30 g     F .text	00000000 SPI3_DMA
4008bec0 g     F .rwtext.wifi	00000010 hal_mac_rx_get_end_state
4017c5f8 g     F .text	00000129 wpa_auth_gen_wpa_ie
400636a8 g     F *ABS*	0000004d .hidden __eqdf2
40177070 g     F .text	000000c3 aes_wrap
4012b7d4 g     F .text	000000af psa_get_empty_key_slot
400eff30 g     F .text	00000000 UART2
4016872c g     F .text	0000000b pm_is_open
3ffd14d4 g     O .bss	00000011 phy_chan_target_power
400eff30 g     F .text	00000000 level7_interrupt
4017fdfc g     F .text	0000003b eap_peer_tls_register
4012ad98 g     F .text	00000060 mbedtls_psa_mac_abort
401404c4 g     F .text	0000004a esp_wifi_set_country
3ffcf428 g     O .bss	00000008 action_q
400f6da8 g     F .text	000000c4 _putchar
40141ee4 g     F .text	00000030 hostap_delete_ptk
40002a78 g     F *ABS*	00000031 .hidden __fixdfsi
4008a244 g     F .rwtext.wifi	00000048 wr_bt_tx_atten
4017073c g     F .text	00000042 esp_eap_client_set_identity
4016c8a0 g     F .text	00000069 wdev_set_promis_misc_buf
4016ca2c g     F .text	00000264 wDev_SnifferRxData
40166d48 g     F .text	00000080 txpwr_offset
400f1444 g     F .text	0000003f mbedtls_psa_external_get_random
401775c4 g     F .text	00000014 crypto_public_key_decrypt_pkcs1
4015e6c4 g     F .text	000002da cnx_node_join
40140444 g     F .text	00000038 esp_wifi_get_config
40177478 g     F .text	0000001e crypto_cipher_deinit
401684d4 g     F .text	000000c6 lmacStopTransmit
40149f8c g     F .text	0000002c wifi_set_rxcb_process
40119014 g     F .text	00000015 mbedtls_mpi_sub_mpi
401550cc g     F .text	0000000c scan_get_type
3ffb25d0 g     O .data.wifi	00000001 g_mesh_is_started
400eff30 g     F .text	00000000 BT_MAC
4014c4b0 g     F .text	000000bd nan_construct_ndp_confirm
4017b338 g     F .text	00000061 wpa_auth_sta_init
4012e300 g     F .text	00000326 mbedtls_rsa_private
4014e520 g     F .text	000002e2 nan_am_event_hdlr
40144384  w    F .text	0000004e add_mic_ie_bip
4010589c g     F .text	0000008e mbedtls_ssl_start_renegotiation


